
./build/bootloader_fat32.elf:     ファイル形式 elf32-littleriscv


セクション .text の逆アセンブル:

00100000 <_start>:
.section .text
.globl _start
_start:
    la sp, _stack_top
  100000:	00008117          	auipc	sp,0x8
  100004:	ba010113          	addi	sp,sp,-1120 # 107ba0 <fat32_buf>
    call bootloader_main
  100008:	00000097          	auipc	ra,0x0
  10000c:	04c080e7          	jalr	76(ra) # 100054 <bootloader_main>
1:
    j 1b
  100010:	0000006f          	j	100010 <_start+0x10>

00100014 <putchar>:
#ifndef USER_LOAD_ADDR
#define USER_LOAD_ADDR      0x00400000u
#endif

void putchar(char ch)
{
  100014:	100005b7          	lui	a1,0x10000

static inline void mmio_w32(uint32_t addr, uint32_t v) {
    *(volatile uint32_t*)addr = v;
}
static inline uint32_t mmio_r32(uint32_t addr) {
    return *(volatile uint32_t*)addr;
  100018:	0085a603          	lw	a2,8(a1) # 10000008 <_stack_top+0xfef4068>
    while (mmio_r32(UART_MMIO_BASE + UART_ST) & ST_TX_BUSY) {
  10001c:	00167613          	andi	a2,a2,1
  100020:	00060663          	beqz	a2,10002c <putchar+0x18>
        __asm__ __volatile__("nop");
  100024:	00000013          	nop
  100028:	ff1ff06f          	j	100018 <putchar+0x4>
    *(volatile uint32_t*)addr = v;
  10002c:	00a5a023          	sw	a0,0(a1)
    }

    mmio_w32(UART_MMIO_BASE + UART_TX, (uint32_t)(uint8_t)ch);
}
  100030:	00008067          	ret

00100034 <uart_putchar>:

void uart_putchar(char c)
{
  100034:	100005b7          	lui	a1,0x10000
    return *(volatile uint32_t*)addr;
  100038:	0085a603          	lw	a2,8(a1) # 10000008 <_stack_top+0xfef4068>
    while (mmio_r32(UART_MMIO_BASE + UART_ST) & ST_TX_BUSY) {
  10003c:	00167613          	andi	a2,a2,1
  100040:	00060663          	beqz	a2,10004c <uart_putchar+0x18>
        __asm__ __volatile__("nop");
  100044:	00000013          	nop
  100048:	ff1ff06f          	j	100038 <uart_putchar+0x4>
    *(volatile uint32_t*)addr = v;
  10004c:	00a5a023          	sw	a0,0(a1)
    putchar(c);
}
  100050:	00008067          	ret

00100054 <bootloader_main>:
    void (*entry)(void) = (void (*)(void))addr;
    entry();
}

void bootloader_main(void)
{
  100054:	fe010113          	addi	sp,sp,-32
  100058:	00112e23          	sw	ra,28(sp)
  10005c:	00812c23          	sw	s0,24(sp)
  100060:	00912a23          	sw	s1,20(sp)
  100064:	01212823          	sw	s2,16(sp)
  100068:	00000513          	li	a0,0
    uint32_t kernel_words = 0;
  10006c:	00012623          	sw	zero,12(sp)
    uint32_t user_words = 0;
  100070:	00012423          	sw	zero,8(sp)
  100074:	06200613          	li	a2,98
  100078:	001045b7          	lui	a1,0x104
  10007c:	87958593          	addi	a1,a1,-1927 # 103879 <$d.1>
  100080:	100006b7          	lui	a3,0x10000
  100084:	01700713          	li	a4,23
  100088:	0080006f          	j	100090 <bootloader_main+0x3c>
        __asm__ __volatile__("nop");
  10008c:	00000013          	nop
    return *(volatile uint32_t*)addr;
  100090:	0086a783          	lw	a5,8(a3) # 10000008 <_stack_top+0xfef4068>
    while (mmio_r32(UART_MMIO_BASE + UART_ST) & ST_TX_BUSY) {
  100094:	0017f793          	andi	a5,a5,1
  100098:	fe079ae3          	bnez	a5,10008c <bootloader_main+0x38>
        putchar(*s++);
  10009c:	00150513          	addi	a0,a0,1
  1000a0:	00a587b3          	add	a5,a1,a0
    mmio_w32(UART_MMIO_BASE + UART_TX, (uint32_t)(uint8_t)ch);
  1000a4:	0ff67613          	zext.b	a2,a2
    *(volatile uint32_t*)addr = v;
  1000a8:	00c6a023          	sw	a2,0(a3)
    while (*s) {
  1000ac:	0007c603          	lbu	a2,0(a5)
  1000b0:	fee510e3          	bne	a0,a4,100090 <bootloader_main+0x3c>
  1000b4:	10006537          	lui	a0,0x10006
  1000b8:	00400593          	li	a1,4
    PSC_SD_IF_CTRL = SD_CTRL_FIFO_FLUSH;
  1000bc:	00b52423          	sw	a1,8(a0) # 10006008 <_stack_top+0xfefa068>
  1000c0:	f9c00513          	li	a0,-100
    while (n--) {
  1000c4:	00150513          	addi	a0,a0,1
        __asm__ __volatile__("nop");
  1000c8:	00000013          	nop
    while (n--) {
  1000cc:	fe051ce3          	bnez	a0,1000c4 <bootloader_main+0x70>
  1000d0:	05300613          	li	a2,83
  1000d4:	001035b7          	lui	a1,0x103
  1000d8:	61758593          	addi	a1,a1,1559 # 103617 <$d.3+0x29>
  1000dc:	100006b7          	lui	a3,0x10000
  1000e0:	00e00713          	li	a4,14
  1000e4:	0080006f          	j	1000ec <bootloader_main+0x98>
        __asm__ __volatile__("nop");
  1000e8:	00000013          	nop
    return *(volatile uint32_t*)addr;
  1000ec:	0086a783          	lw	a5,8(a3) # 10000008 <_stack_top+0xfef4068>
    while (mmio_r32(UART_MMIO_BASE + UART_ST) & ST_TX_BUSY) {
  1000f0:	0017f793          	andi	a5,a5,1
  1000f4:	fe079ae3          	bnez	a5,1000e8 <bootloader_main+0x94>
        putchar(*s++);
  1000f8:	00150513          	addi	a0,a0,1
  1000fc:	00a587b3          	add	a5,a1,a0
    mmio_w32(UART_MMIO_BASE + UART_TX, (uint32_t)(uint8_t)ch);
  100100:	0ff67613          	zext.b	a2,a2
    *(volatile uint32_t*)addr = v;
  100104:	00c6a023          	sw	a2,0(a3)
    while (*s) {
  100108:	0007c603          	lbu	a2,0(a5)
  10010c:	fee510e3          	bne	a0,a4,1000ec <bootloader_main+0x98>
  100110:	10006537          	lui	a0,0x10006
  100114:	00100593          	li	a1,1
    PSC_SD_IF_CTRL = SD_CTRL_INIT_TRIG;
  100118:	00b52423          	sw	a1,8(a0) # 10006008 <_stack_top+0xfefa068>
  10011c:	f9c00513          	li	a0,-100
    while (n--) {
  100120:	00150513          	addi	a0,a0,1
        __asm__ __volatile__("nop");
  100124:	00000013          	nop
    while (n--) {
  100128:	fe051ce3          	bnez	a0,100120 <bootloader_main+0xcc>
  10012c:	10006537          	lui	a0,0x10006
    while (PSC_SD_IF_CTRL & SD_ST_BUSY) {
  100130:	00852583          	lw	a1,8(a0) # 10006008 <_stack_top+0xfefa068>
  100134:	0025f593          	andi	a1,a1,2
  100138:	02058263          	beqz	a1,10015c <bootloader_main+0x108>
  10013c:	ffff45b7          	lui	a1,0xffff4
  100140:	cb058593          	addi	a1,a1,-848 # ffff3cb0 <_stack_top+0xffee7d10>
        if (--timeout == 0u) {
  100144:	00158593          	addi	a1,a1,1
  100148:	0e058263          	beqz	a1,10022c <bootloader_main+0x1d8>
    __asm__ __volatile__("nop");
  10014c:	00000013          	nop
    while (PSC_SD_IF_CTRL & SD_ST_BUSY) {
  100150:	00852603          	lw	a2,8(a0)
  100154:	00267613          	andi	a2,a2,2
  100158:	fe0616e3          	bnez	a2,100144 <bootloader_main+0xf0>
  10015c:	f9c00513          	li	a0,-100
    while (n--) {
  100160:	00150513          	addi	a0,a0,1
        __asm__ __volatile__("nop");
  100164:	00000013          	nop
    while (n--) {
  100168:	fe051ce3          	bnez	a0,100160 <bootloader_main+0x10c>
    if (sd_init_if_needed()) {
        bl_print("SD init failed\n");
        for (;;) {}
    }

    if (boot_fat32_mount(boot_sd_read_sector)) {
  10016c:	00100537          	lui	a0,0x100
  100170:	48450513          	addi	a0,a0,1156 # 100484 <boot_sd_read_sector>
  100174:	00002097          	auipc	ra,0x2
  100178:	c20080e7          	jalr	-992(ra) # 101d94 <boot_fat32_mount>
  10017c:	04050663          	beqz	a0,1001c8 <bootloader_main+0x174>
  100180:	00000513          	li	a0,0
  100184:	04600613          	li	a2,70
  100188:	001035b7          	lui	a1,0x103
  10018c:	55258593          	addi	a1,a1,1362 # 103552 <$d.1+0x24c>
  100190:	100006b7          	lui	a3,0x10000
  100194:	01300713          	li	a4,19
  100198:	0080006f          	j	1001a0 <bootloader_main+0x14c>
        __asm__ __volatile__("nop");
  10019c:	00000013          	nop
    return *(volatile uint32_t*)addr;
  1001a0:	0086a783          	lw	a5,8(a3) # 10000008 <_stack_top+0xfef4068>
    while (mmio_r32(UART_MMIO_BASE + UART_ST) & ST_TX_BUSY) {
  1001a4:	0017f793          	andi	a5,a5,1
  1001a8:	fe079ae3          	bnez	a5,10019c <bootloader_main+0x148>
        putchar(*s++);
  1001ac:	00150513          	addi	a0,a0,1
  1001b0:	00a587b3          	add	a5,a1,a0
    mmio_w32(UART_MMIO_BASE + UART_TX, (uint32_t)(uint8_t)ch);
  1001b4:	0ff67613          	zext.b	a2,a2
    *(volatile uint32_t*)addr = v;
  1001b8:	00c6a023          	sw	a2,0(a3)
    while (*s) {
  1001bc:	0007c603          	lbu	a2,0(a5)
  1001c0:	fee510e3          	bne	a0,a4,1001a0 <bootloader_main+0x14c>
        bl_print("FAT32 mount failed\n");
        for (;;) {}
  1001c4:	0000006f          	j	1001c4 <bootloader_main+0x170>
    }

    if (boot_fat32_load_mem_file("KERNEL.MEM", KERNEL_LOAD_ADDR, &kernel_words)) {
  1001c8:	00103537          	lui	a0,0x103
  1001cc:	41150513          	addi	a0,a0,1041 # 103411 <$d.1+0x10b>
  1001d0:	002005b7          	lui	a1,0x200
  1001d4:	00c10613          	addi	a2,sp,12
  1001d8:	00003097          	auipc	ra,0x3
  1001dc:	bc0080e7          	jalr	-1088(ra) # 102d98 <boot_fat32_load_mem_file>
  1001e0:	0c050c63          	beqz	a0,1002b8 <bootloader_main+0x264>
  1001e4:	00000513          	li	a0,0
  1001e8:	04b00613          	li	a2,75
  1001ec:	001035b7          	lui	a1,0x103
  1001f0:	29358593          	addi	a1,a1,659 # 103293 <boot_fat32_load_mem_file+0x4fb>
  1001f4:	100006b7          	lui	a3,0x10000
  1001f8:	01700713          	li	a4,23
  1001fc:	0080006f          	j	100204 <bootloader_main+0x1b0>
        __asm__ __volatile__("nop");
  100200:	00000013          	nop
    return *(volatile uint32_t*)addr;
  100204:	0086a783          	lw	a5,8(a3) # 10000008 <_stack_top+0xfef4068>
    while (mmio_r32(UART_MMIO_BASE + UART_ST) & ST_TX_BUSY) {
  100208:	0017f793          	andi	a5,a5,1
  10020c:	fe079ae3          	bnez	a5,100200 <bootloader_main+0x1ac>
        putchar(*s++);
  100210:	00150513          	addi	a0,a0,1
  100214:	00a587b3          	add	a5,a1,a0
    mmio_w32(UART_MMIO_BASE + UART_TX, (uint32_t)(uint8_t)ch);
  100218:	0ff67613          	zext.b	a2,a2
    *(volatile uint32_t*)addr = v;
  10021c:	00c6a023          	sw	a2,0(a3)
    while (*s) {
  100220:	0007c603          	lbu	a2,0(a5)
  100224:	fee510e3          	bne	a0,a4,100204 <bootloader_main+0x1b0>
        bl_print("KERNEL.MEM load failed\n");
        for (;;) {}
  100228:	0000006f          	j	100228 <bootloader_main+0x1d4>
  10022c:	00000513          	li	a0,0
  100230:	05300613          	li	a2,83
  100234:	001045b7          	lui	a1,0x104
  100238:	91b58593          	addi	a1,a1,-1765 # 10391b <$d.1+0x8a>
  10023c:	100006b7          	lui	a3,0x10000
  100240:	01000713          	li	a4,16
  100244:	0080006f          	j	10024c <bootloader_main+0x1f8>
        __asm__ __volatile__("nop");
  100248:	00000013          	nop
    return *(volatile uint32_t*)addr;
  10024c:	0086a783          	lw	a5,8(a3) # 10000008 <_stack_top+0xfef4068>
    while (mmio_r32(UART_MMIO_BASE + UART_ST) & ST_TX_BUSY) {
  100250:	0017f793          	andi	a5,a5,1
  100254:	fe079ae3          	bnez	a5,100248 <bootloader_main+0x1f4>
        putchar(*s++);
  100258:	00150513          	addi	a0,a0,1
  10025c:	00a587b3          	add	a5,a1,a0
    mmio_w32(UART_MMIO_BASE + UART_TX, (uint32_t)(uint8_t)ch);
  100260:	0ff67613          	zext.b	a2,a2
    *(volatile uint32_t*)addr = v;
  100264:	00c6a023          	sw	a2,0(a3)
    while (*s) {
  100268:	0007c603          	lbu	a2,0(a5)
  10026c:	fee510e3          	bne	a0,a4,10024c <bootloader_main+0x1f8>
  100270:	00000513          	li	a0,0
  100274:	05300613          	li	a2,83
  100278:	001035b7          	lui	a1,0x103
  10027c:	79658593          	addi	a1,a1,1942 # 103796 <$d.3+0x1a8>
  100280:	100006b7          	lui	a3,0x10000
  100284:	00f00713          	li	a4,15
  100288:	0080006f          	j	100290 <bootloader_main+0x23c>
        __asm__ __volatile__("nop");
  10028c:	00000013          	nop
    return *(volatile uint32_t*)addr;
  100290:	0086a783          	lw	a5,8(a3) # 10000008 <_stack_top+0xfef4068>
    while (mmio_r32(UART_MMIO_BASE + UART_ST) & ST_TX_BUSY) {
  100294:	0017f793          	andi	a5,a5,1
  100298:	fe079ae3          	bnez	a5,10028c <bootloader_main+0x238>
        putchar(*s++);
  10029c:	00150513          	addi	a0,a0,1
  1002a0:	00a587b3          	add	a5,a1,a0
    mmio_w32(UART_MMIO_BASE + UART_TX, (uint32_t)(uint8_t)ch);
  1002a4:	0ff67613          	zext.b	a2,a2
    *(volatile uint32_t*)addr = v;
  1002a8:	00c6a023          	sw	a2,0(a3)
    while (*s) {
  1002ac:	0007c603          	lbu	a2,0(a5)
  1002b0:	fee510e3          	bne	a0,a4,100290 <bootloader_main+0x23c>
        for (;;) {}
  1002b4:	0000006f          	j	1002b4 <bootloader_main+0x260>
    }

    if (boot_fat32_load_mem_file("USER.MEM", USER_LOAD_ADDR, &user_words)) {
  1002b8:	00104537          	lui	a0,0x104
  1002bc:	91250513          	addi	a0,a0,-1774 # 103912 <$d.1+0x81>
  1002c0:	004005b7          	lui	a1,0x400
  1002c4:	00810613          	addi	a2,sp,8
  1002c8:	004004b7          	lui	s1,0x400
  1002cc:	00003097          	auipc	ra,0x3
  1002d0:	acc080e7          	jalr	-1332(ra) # 102d98 <boot_fat32_load_mem_file>
  1002d4:	04050663          	beqz	a0,100320 <bootloader_main+0x2cc>
  1002d8:	00000513          	li	a0,0
  1002dc:	05500613          	li	a2,85
  1002e0:	001035b7          	lui	a1,0x103
  1002e4:	2e058593          	addi	a1,a1,736 # 1032e0 <boot_fat32_load_mem_file+0x548>
  1002e8:	100006b7          	lui	a3,0x10000
  1002ec:	01500713          	li	a4,21
  1002f0:	0080006f          	j	1002f8 <bootloader_main+0x2a4>
        __asm__ __volatile__("nop");
  1002f4:	00000013          	nop
    return *(volatile uint32_t*)addr;
  1002f8:	0086a783          	lw	a5,8(a3) # 10000008 <_stack_top+0xfef4068>
    while (mmio_r32(UART_MMIO_BASE + UART_ST) & ST_TX_BUSY) {
  1002fc:	0017f793          	andi	a5,a5,1
  100300:	fe079ae3          	bnez	a5,1002f4 <bootloader_main+0x2a0>
        putchar(*s++);
  100304:	00150513          	addi	a0,a0,1
  100308:	00a587b3          	add	a5,a1,a0
    mmio_w32(UART_MMIO_BASE + UART_TX, (uint32_t)(uint8_t)ch);
  10030c:	0ff67613          	zext.b	a2,a2
    *(volatile uint32_t*)addr = v;
  100310:	00c6a023          	sw	a2,0(a3)
    while (*s) {
  100314:	0007c603          	lbu	a2,0(a5)
  100318:	fee510e3          	bne	a0,a4,1002f8 <bootloader_main+0x2a4>
        bl_print("USER.MEM load failed\n");
        for (;;) {}
  10031c:	0000006f          	j	10031c <bootloader_main+0x2c8>
    }

    bl_print("kernel words=");
  100320:	00104537          	lui	a0,0x104
  100324:	8b650513          	addi	a0,a0,-1866 # 1038b6 <$d.1+0x25>
  100328:	00000097          	auipc	ra,0x0
  10032c:	124080e7          	jalr	292(ra) # 10044c <bl_print>
    bl_print_hex(kernel_words);
  100330:	00c12503          	lw	a0,12(sp)
  100334:	00001097          	auipc	ra,0x1
  100338:	95c080e7          	jalr	-1700(ra) # 100c90 <bl_print_hex>
    bl_print("\n");
  10033c:	00103537          	lui	a0,0x103
  100340:	6c550413          	addi	s0,a0,1733 # 1036c5 <$d.3+0xd7>
  100344:	00040513          	mv	a0,s0
  100348:	00000097          	auipc	ra,0x0
  10034c:	104080e7          	jalr	260(ra) # 10044c <bl_print>

    bl_print("user words=");
  100350:	00103537          	lui	a0,0x103
  100354:	56650513          	addi	a0,a0,1382 # 103566 <$d.1+0x260>
  100358:	00000097          	auipc	ra,0x0
  10035c:	0f4080e7          	jalr	244(ra) # 10044c <bl_print>
    bl_print_hex(user_words);
  100360:	00812503          	lw	a0,8(sp)
  100364:	00001097          	auipc	ra,0x1
  100368:	92c080e7          	jalr	-1748(ra) # 100c90 <bl_print_hex>
    bl_print("\n");
  10036c:	00040513          	mv	a0,s0
  100370:	00000097          	auipc	ra,0x0
  100374:	0dc080e7          	jalr	220(ra) # 10044c <bl_print>

    bl_print("JUMP TO ");
  100378:	00103537          	lui	a0,0x103
  10037c:	3f350513          	addi	a0,a0,1011 # 1033f3 <$d.1+0xed>
  100380:	00000097          	auipc	ra,0x0
  100384:	0cc080e7          	jalr	204(ra) # 10044c <bl_print>
    bl_print_hex(KERNEL_LOAD_ADDR);
  100388:	00200537          	lui	a0,0x200
  10038c:	00200937          	lui	s2,0x200
  100390:	00001097          	auipc	ra,0x1
  100394:	900080e7          	jalr	-1792(ra) # 100c90 <bl_print_hex>
    bl_print("\n");
  100398:	00040513          	mv	a0,s0
  10039c:	00000097          	auipc	ra,0x0
  1003a0:	0b0080e7          	jalr	176(ra) # 10044c <bl_print>

    bl_print("kernel[0]=");
  1003a4:	00103537          	lui	a0,0x103
  1003a8:	70250513          	addi	a0,a0,1794 # 103702 <$d.3+0x114>
  1003ac:	00000097          	auipc	ra,0x0
  1003b0:	0a0080e7          	jalr	160(ra) # 10044c <bl_print>
    bl_print_hex(*(volatile uint32_t *)0x00200000);
  1003b4:	00092503          	lw	a0,0(s2) # 200000 <_stack_top+0xf4060>
  1003b8:	00001097          	auipc	ra,0x1
  1003bc:	8d8080e7          	jalr	-1832(ra) # 100c90 <bl_print_hex>
    bl_print("\n");
  1003c0:	00040513          	mv	a0,s0
  1003c4:	00000097          	auipc	ra,0x0
  1003c8:	088080e7          	jalr	136(ra) # 10044c <bl_print>

    bl_print("kernel[1]=");
  1003cc:	00103537          	lui	a0,0x103
  1003d0:	41c50513          	addi	a0,a0,1052 # 10341c <$d.1+0x116>
  1003d4:	00000097          	auipc	ra,0x0
  1003d8:	078080e7          	jalr	120(ra) # 10044c <bl_print>
    bl_print_hex(*(volatile uint32_t *)0x00200004);
  1003dc:	00492503          	lw	a0,4(s2)
  1003e0:	00001097          	auipc	ra,0x1
  1003e4:	8b0080e7          	jalr	-1872(ra) # 100c90 <bl_print_hex>
    bl_print("\n");
  1003e8:	00040513          	mv	a0,s0
  1003ec:	00000097          	auipc	ra,0x0
  1003f0:	060080e7          	jalr	96(ra) # 10044c <bl_print>

    bl_print("kernel[2]=");
  1003f4:	00103537          	lui	a0,0x103
  1003f8:	20750513          	addi	a0,a0,519 # 103207 <boot_fat32_load_mem_file+0x46f>
  1003fc:	00000097          	auipc	ra,0x0
  100400:	050080e7          	jalr	80(ra) # 10044c <bl_print>
    bl_print_hex(*(volatile uint32_t *)0x00200008);
  100404:	00892503          	lw	a0,8(s2)
  100408:	00001097          	auipc	ra,0x1
  10040c:	888080e7          	jalr	-1912(ra) # 100c90 <bl_print_hex>
    bl_print("\n");
  100410:	00040513          	mv	a0,s0
  100414:	00000097          	auipc	ra,0x0
  100418:	038080e7          	jalr	56(ra) # 10044c <bl_print>

    bl_print("user[0]=");
  10041c:	00103537          	lui	a0,0x103
  100420:	70d50513          	addi	a0,a0,1805 # 10370d <$d.3+0x11f>
  100424:	00000097          	auipc	ra,0x0
  100428:	028080e7          	jalr	40(ra) # 10044c <bl_print>
    bl_print_hex(*(volatile uint32_t *)0x00400000);
  10042c:	0004a503          	lw	a0,0(s1) # 400000 <_stack_top+0x2f4060>
  100430:	00001097          	auipc	ra,0x1
  100434:	860080e7          	jalr	-1952(ra) # 100c90 <bl_print_hex>
    bl_print("\n");
  100438:	00040513          	mv	a0,s0
  10043c:	00000097          	auipc	ra,0x0
  100440:	010080e7          	jalr	16(ra) # 10044c <bl_print>
    entry();
  100444:	000900e7          	jalr	s2

    jump_to_kernel(KERNEL_LOAD_ADDR);

    for (;;) {}
  100448:	0000006f          	j	100448 <bootloader_main+0x3f4>

0010044c <bl_print>:
    while (*s) {
  10044c:	00054583          	lbu	a1,0(a0)
  100450:	02058863          	beqz	a1,100480 <bl_print+0x34>
  100454:	10000637          	lui	a2,0x10000
  100458:	0080006f          	j	100460 <bl_print+0x14>
        __asm__ __volatile__("nop");
  10045c:	00000013          	nop
    return *(volatile uint32_t*)addr;
  100460:	00862683          	lw	a3,8(a2) # 10000008 <_stack_top+0xfef4068>
    while (mmio_r32(UART_MMIO_BASE + UART_ST) & ST_TX_BUSY) {
  100464:	0016f693          	andi	a3,a3,1
  100468:	fe069ae3          	bnez	a3,10045c <bl_print+0x10>
        putchar(*s++);
  10046c:	00150513          	addi	a0,a0,1
    mmio_w32(UART_MMIO_BASE + UART_TX, (uint32_t)(uint8_t)ch);
  100470:	0ff5f593          	zext.b	a1,a1
    *(volatile uint32_t*)addr = v;
  100474:	00b62023          	sw	a1,0(a2)
    while (*s) {
  100478:	00054583          	lbu	a1,0(a0)
  10047c:	fe0592e3          	bnez	a1,100460 <bl_print+0x14>
}
  100480:	00008067          	ret

00100484 <boot_sd_read_sector>:
{
  100484:	fd010113          	addi	sp,sp,-48
  100488:	02812623          	sw	s0,44(sp)
  10048c:	02912423          	sw	s1,40(sp)
  100490:	03212223          	sw	s2,36(sp)
  100494:	03312023          	sw	s3,32(sp)
  100498:	01412e23          	sw	s4,28(sp)
  10049c:	01512c23          	sw	s5,24(sp)
  1004a0:	01612a23          	sw	s6,20(sp)
  1004a4:	01712823          	sw	s7,16(sp)
  1004a8:	01812623          	sw	s8,12(sp)
  1004ac:	01912423          	sw	s9,8(sp)
  1004b0:	01a12223          	sw	s10,4(sp)
  1004b4:	01b12023          	sw	s11,0(sp)
  1004b8:	00000613          	li	a2,0
    for (uint32_t retry = 0; retry < SD_READ_RETRY_MAX; retry++) {
  1004bc:	20058693          	addi	a3,a1,512
  1004c0:	10006737          	lui	a4,0x10006
  1004c4:	00400793          	li	a5,4
  1004c8:	00200813          	li	a6,2
  1004cc:	ffff48b7          	lui	a7,0xffff4
  1004d0:	cb088293          	addi	t0,a7,-848 # ffff3cb0 <_stack_top+0xffee7d10>
  1004d4:	20000313          	li	t1,512
  1004d8:	000013b7          	lui	t2,0x1
  1004dc:	02138393          	addi	t2,t2,33 # 1021 <$d.10+0xa9>
  1004e0:	00103e37          	lui	t3,0x103
  1004e4:	7a6e0e13          	addi	t3,t3,1958 # 1037a6 <$d.3+0x1b8>
  1004e8:	10000eb7          	lui	t4,0x10000
  1004ec:	00b00f13          	li	t5,11
  1004f0:	00a00f93          	li	t6,10
  1004f4:	02000413          	li	s0,32
  1004f8:	07300493          	li	s1,115
  1004fc:	07700913          	li	s2,119
  100500:	03d00993          	li	s3,61
  100504:	06800a13          	li	s4,104
  100508:	00300a93          	li	s5,3
        PSC_SD_IF_CTRL = SD_CTRL_FIFO_FLUSH;
  10050c:	00f72423          	sw	a5,8(a4) # 10006008 <_stack_top+0xfefa068>
        __asm__ __volatile__("nop");
  100510:	00000013          	nop
  100514:	00000013          	nop
  100518:	00000013          	nop
  10051c:	00000013          	nop
  100520:	00000013          	nop
  100524:	00000013          	nop
  100528:	00000013          	nop
  10052c:	00000013          	nop
  100530:	00000013          	nop
  100534:	00000013          	nop
  100538:	00000013          	nop
  10053c:	00000013          	nop
  100540:	00000013          	nop
  100544:	00000013          	nop
  100548:	00000013          	nop
  10054c:	00000013          	nop
  100550:	00000013          	nop
  100554:	00000013          	nop
  100558:	00000013          	nop
  10055c:	00000013          	nop
  100560:	00000013          	nop
  100564:	00000013          	nop
  100568:	00000013          	nop
  10056c:	00000013          	nop
  100570:	00000013          	nop
  100574:	00000013          	nop
  100578:	00000013          	nop
  10057c:	00000013          	nop
  100580:	00000013          	nop
  100584:	00000013          	nop
  100588:	00000013          	nop
  10058c:	00000013          	nop
  100590:	00000013          	nop
  100594:	00000013          	nop
  100598:	00000013          	nop
  10059c:	00000013          	nop
  1005a0:	00000013          	nop
  1005a4:	00000013          	nop
  1005a8:	00000013          	nop
  1005ac:	00000013          	nop
  1005b0:	00000013          	nop
  1005b4:	00000013          	nop
  1005b8:	00000013          	nop
  1005bc:	00000013          	nop
  1005c0:	00000013          	nop
  1005c4:	00000013          	nop
  1005c8:	00000013          	nop
  1005cc:	00000013          	nop
  1005d0:	00000013          	nop
  1005d4:	00000013          	nop
        PSC_SD_SECTOR = lba;
  1005d8:	00a72223          	sw	a0,4(a4)
        PSC_SD_IF_CTRL = SD_CTRL_READ_TRIG;
  1005dc:	01072423          	sw	a6,8(a4)
        __asm__ __volatile__("nop");
  1005e0:	00000013          	nop
  1005e4:	00000013          	nop
  1005e8:	00000013          	nop
  1005ec:	00000013          	nop
  1005f0:	00000013          	nop
  1005f4:	00000013          	nop
  1005f8:	00000013          	nop
  1005fc:	00000013          	nop
  100600:	00000013          	nop
  100604:	00000013          	nop
  100608:	00000013          	nop
  10060c:	00000013          	nop
  100610:	00000013          	nop
  100614:	00000013          	nop
  100618:	00000013          	nop
  10061c:	00000013          	nop
  100620:	00000013          	nop
  100624:	00000013          	nop
  100628:	00000013          	nop
  10062c:	00000013          	nop
  100630:	00000013          	nop
  100634:	00000013          	nop
  100638:	00000013          	nop
  10063c:	00000013          	nop
  100640:	00000013          	nop
  100644:	00000013          	nop
  100648:	00000013          	nop
  10064c:	00000013          	nop
  100650:	00000013          	nop
  100654:	00000013          	nop
  100658:	00000013          	nop
  10065c:	00000013          	nop
  100660:	00000013          	nop
  100664:	00000013          	nop
  100668:	00000013          	nop
  10066c:	00000013          	nop
  100670:	00000013          	nop
  100674:	00000013          	nop
  100678:	00000013          	nop
  10067c:	00000013          	nop
  100680:	00000013          	nop
  100684:	00000013          	nop
  100688:	00000013          	nop
  10068c:	00000013          	nop
  100690:	00000013          	nop
  100694:	00000013          	nop
  100698:	00000013          	nop
  10069c:	00000013          	nop
  1006a0:	00000013          	nop
  1006a4:	00000013          	nop
        while ((PSC_SD_IF_CTRL & SD_ST_READ_READY) == 0u) {
  1006a8:	00872b03          	lw	s6,8(a4)
  1006ac:	004b7b13          	andi	s6,s6,4
  1006b0:	020b1063          	bnez	s6,1006d0 <boot_sd_read_sector+0x24c>
  1006b4:	00028b13          	mv	s6,t0
            if (--timeout == 0u) {
  1006b8:	001b0b13          	addi	s6,s6,1
  1006bc:	4c0b0e63          	beqz	s6,100b98 <boot_sd_read_sector+0x714>
    __asm__ __volatile__("nop");
  1006c0:	00000013          	nop
        while ((PSC_SD_IF_CTRL & SD_ST_READ_READY) == 0u) {
  1006c4:	00872b83          	lw	s7,8(a4)
  1006c8:	004bfb93          	andi	s7,s7,4
  1006cc:	fe0b86e3          	beqz	s7,1006b8 <boot_sd_read_sector+0x234>
  1006d0:	00000b13          	li	s6,0
        __asm__ __volatile__("nop");
  1006d4:	00000013          	nop
  1006d8:	00000013          	nop
  1006dc:	00000013          	nop
  1006e0:	00000013          	nop
  1006e4:	00000013          	nop
  1006e8:	00000013          	nop
  1006ec:	00000013          	nop
  1006f0:	00000013          	nop
  1006f4:	00000013          	nop
  1006f8:	00000013          	nop
  1006fc:	00000013          	nop
  100700:	00000013          	nop
  100704:	00000013          	nop
  100708:	00000013          	nop
  10070c:	00000013          	nop
  100710:	00000013          	nop
  100714:	00000013          	nop
  100718:	00000013          	nop
  10071c:	00000013          	nop
  100720:	00000013          	nop
  100724:	0180006f          	j	10073c <boot_sd_read_sector+0x2b8>
            dst[i] = (uint8_t)(PSC_SD_ADDR & 0xFFu);
  100728:	00072b83          	lw	s7,0(a4)
  10072c:	01658c33          	add	s8,a1,s6
        for (int i = 0; i < 512; i++) {
  100730:	001b0b13          	addi	s6,s6,1
            dst[i] = (uint8_t)(PSC_SD_ADDR & 0xFFu);
  100734:	017c0023          	sb	s7,0(s8)
        for (int i = 0; i < 512; i++) {
  100738:	026b0863          	beq	s6,t1,100768 <boot_sd_read_sector+0x2e4>
            while (PSC_SD_IF_CTRL & SD_ST_FIFO_EMPTY) {
  10073c:	00872b83          	lw	s7,8(a4)
  100740:	008bfb93          	andi	s7,s7,8
  100744:	fe0b82e3          	beqz	s7,100728 <boot_sd_read_sector+0x2a4>
  100748:	cb088b93          	addi	s7,a7,-848
                if (--timeout == 0u) {
  10074c:	001b8b93          	addi	s7,s7,1
  100750:	3a0b8063          	beqz	s7,100af0 <boot_sd_read_sector+0x66c>
    __asm__ __volatile__("nop");
  100754:	00000013          	nop
            while (PSC_SD_IF_CTRL & SD_ST_FIFO_EMPTY) {
  100758:	00872c03          	lw	s8,8(a4)
  10075c:	008c7c13          	andi	s8,s8,8
  100760:	fe0c16e3          	bnez	s8,10074c <boot_sd_read_sector+0x2c8>
  100764:	fc5ff06f          	j	100728 <boot_sd_read_sector+0x2a4>
  100768:	00000b93          	li	s7,0
  10076c:	00058b13          	mv	s6,a1
        crc ^= (uint16_t)((uint16_t)buf[i] << 8);
  100770:	000b4c03          	lbu	s8,0(s6)
  100774:	008c1c13          	slli	s8,s8,0x8
  100778:	017c4bb3          	xor	s7,s8,s7
  10077c:	010b9c13          	slli	s8,s7,0x10
  100780:	410c5c13          	srai	s8,s8,0x10
            if (crc & 0x8000u)
  100784:	011b9c93          	slli	s9,s7,0x11
  100788:	410cdc93          	srai	s9,s9,0x10
  10078c:	001b9d13          	slli	s10,s7,0x1
  100790:	00fc5c13          	srli	s8,s8,0xf
  100794:	007c7c33          	and	s8,s8,t2
  100798:	018d4c33          	xor	s8,s10,s8
  10079c:	001c1d13          	slli	s10,s8,0x1
  1007a0:	012b9d93          	slli	s11,s7,0x12
  1007a4:	410ddd93          	srai	s11,s11,0x10
  1007a8:	00fcdc93          	srli	s9,s9,0xf
  1007ac:	007cfcb3          	and	s9,s9,t2
  1007b0:	019d4cb3          	xor	s9,s10,s9
  1007b4:	001c9d13          	slli	s10,s9,0x1
  1007b8:	013b9b93          	slli	s7,s7,0x13
  1007bc:	410bdb93          	srai	s7,s7,0x10
  1007c0:	00fddd93          	srli	s11,s11,0xf
  1007c4:	007dfdb3          	and	s11,s11,t2
  1007c8:	01bd4d33          	xor	s10,s10,s11
  1007cc:	013c1c13          	slli	s8,s8,0x13
  1007d0:	410c5c13          	srai	s8,s8,0x10
  1007d4:	001d1d93          	slli	s11,s10,0x1
  1007d8:	00fbdb93          	srli	s7,s7,0xf
  1007dc:	007bfbb3          	and	s7,s7,t2
  1007e0:	017dcbb3          	xor	s7,s11,s7
  1007e4:	013c9c93          	slli	s9,s9,0x13
  1007e8:	410cdc93          	srai	s9,s9,0x10
  1007ec:	00fc5c13          	srli	s8,s8,0xf
  1007f0:	007c7c33          	and	s8,s8,t2
  1007f4:	001c1c13          	slli	s8,s8,0x1
  1007f8:	002b9d93          	slli	s11,s7,0x2
  1007fc:	013d1d13          	slli	s10,s10,0x13
  100800:	410d5d13          	srai	s10,s10,0x10
  100804:	00fcdc93          	srli	s9,s9,0xf
  100808:	007cfcb3          	and	s9,s9,t2
  10080c:	019c4c33          	xor	s8,s8,s9
  100810:	018dcc33          	xor	s8,s11,s8
  100814:	013b9b93          	slli	s7,s7,0x13
  100818:	410bdb93          	srai	s7,s7,0x10
  10081c:	00fd5c93          	srli	s9,s10,0xf
  100820:	007cfcb3          	and	s9,s9,t2
  100824:	002c1c13          	slli	s8,s8,0x2
  100828:	001c9c93          	slli	s9,s9,0x1
  10082c:	019c4c33          	xor	s8,s8,s9
  100830:	00fbdb93          	srli	s7,s7,0xf
  100834:	007bfbb3          	and	s7,s7,t2
    for (int i = 0; i < 512; i++) {
  100838:	001b0b13          	addi	s6,s6,1
            if (crc & 0x8000u)
  10083c:	017c4bb3          	xor	s7,s8,s7
    for (int i = 0; i < 512; i++) {
  100840:	f2db18e3          	bne	s6,a3,100770 <boot_sd_read_sector+0x2ec>
    uint32_t ctrl = PSC_SD_IF_CTRL;
  100844:	00872b03          	lw	s6,8(a4)
    uint8_t crc2_hw = (uint8_t)((ctrl >> 16) & 0xFFu);
  100848:	010b5b13          	srli	s6,s6,0x10
            if (crc_sw == crc_hw)
  10084c:	010b9b93          	slli	s7,s7,0x10
  100850:	010bdb93          	srli	s7,s7,0x10
  100854:	436b8a63          	beq	s7,s6,100c88 <boot_sd_read_sector+0x804>
  100858:	00000c13          	li	s8,0
  10085c:	04300c93          	li	s9,67
  100860:	0080006f          	j	100868 <boot_sd_read_sector+0x3e4>
        __asm__ __volatile__("nop");
  100864:	00000013          	nop
    return *(volatile uint32_t*)addr;
  100868:	008ead03          	lw	s10,8(t4) # 10000008 <_stack_top+0xfef4068>
    while (mmio_r32(UART_MMIO_BASE + UART_ST) & ST_TX_BUSY) {
  10086c:	001d7d13          	andi	s10,s10,1
  100870:	fe0d1ae3          	bnez	s10,100864 <boot_sd_read_sector+0x3e0>
        putchar(*s++);
  100874:	001c0c13          	addi	s8,s8,1
  100878:	018e0d33          	add	s10,t3,s8
    mmio_w32(UART_MMIO_BASE + UART_TX, (uint32_t)(uint8_t)ch);
  10087c:	0ffcfc93          	zext.b	s9,s9
    *(volatile uint32_t*)addr = v;
  100880:	019ea023          	sw	s9,0(t4)
    while (*s) {
  100884:	000d4c83          	lbu	s9,0(s10)
  100888:	ffec10e3          	bne	s8,t5,100868 <boot_sd_read_sector+0x3e4>
  10088c:	00700c93          	li	s9,7
  100890:	000c8c13          	mv	s8,s9
        uint8_t n = (uint8_t)((v >> (i * 4)) & 0xFu);
  100894:	002c9c93          	slli	s9,s9,0x2
  100898:	01955cb3          	srl	s9,a0,s9
  10089c:	00fcfc93          	andi	s9,s9,15
        putchar(n < 10 ? (char)('0' + n) : (char)('A' + n - 10));
  1008a0:	01fce663          	bltu	s9,t6,1008ac <boot_sd_read_sector+0x428>
  1008a4:	037c8c93          	addi	s9,s9,55
  1008a8:	0100006f          	j	1008b8 <boot_sd_read_sector+0x434>
  1008ac:	030c8c93          	addi	s9,s9,48
  1008b0:	0080006f          	j	1008b8 <boot_sd_read_sector+0x434>
        __asm__ __volatile__("nop");
  1008b4:	00000013          	nop
    return *(volatile uint32_t*)addr;
  1008b8:	008ead03          	lw	s10,8(t4)
    while (mmio_r32(UART_MMIO_BASE + UART_ST) & ST_TX_BUSY) {
  1008bc:	001d7d13          	andi	s10,s10,1
  1008c0:	fe0d1ae3          	bnez	s10,1008b4 <boot_sd_read_sector+0x430>
    *(volatile uint32_t*)addr = v;
  1008c4:	019ea023          	sw	s9,0(t4)
    for (int i = 7; i >= 0; i--) {
  1008c8:	fffc0c93          	addi	s9,s8,-1
  1008cc:	fc0c12e3          	bnez	s8,100890 <boot_sd_read_sector+0x40c>
  1008d0:	0080006f          	j	1008d8 <boot_sd_read_sector+0x454>
        __asm__ __volatile__("nop");
  1008d4:	00000013          	nop
    return *(volatile uint32_t*)addr;
  1008d8:	008eac03          	lw	s8,8(t4)
    while (mmio_r32(UART_MMIO_BASE + UART_ST) & ST_TX_BUSY) {
  1008dc:	001c7c13          	andi	s8,s8,1
  1008e0:	fe0c1ae3          	bnez	s8,1008d4 <boot_sd_read_sector+0x450>
    *(volatile uint32_t*)addr = v;
  1008e4:	008ea023          	sw	s0,0(t4)
    return *(volatile uint32_t*)addr;
  1008e8:	008eac03          	lw	s8,8(t4)
  1008ec:	001c7c13          	andi	s8,s8,1
  1008f0:	000c0663          	beqz	s8,1008fc <boot_sd_read_sector+0x478>
        __asm__ __volatile__("nop");
  1008f4:	00000013          	nop
  1008f8:	ff1ff06f          	j	1008e8 <boot_sd_read_sector+0x464>
    *(volatile uint32_t*)addr = v;
  1008fc:	009ea023          	sw	s1,0(t4)
    return *(volatile uint32_t*)addr;
  100900:	008eac03          	lw	s8,8(t4)
    while (mmio_r32(UART_MMIO_BASE + UART_ST) & ST_TX_BUSY) {
  100904:	001c7c13          	andi	s8,s8,1
  100908:	000c0663          	beqz	s8,100914 <boot_sd_read_sector+0x490>
        __asm__ __volatile__("nop");
  10090c:	00000013          	nop
  100910:	ff1ff06f          	j	100900 <boot_sd_read_sector+0x47c>
    *(volatile uint32_t*)addr = v;
  100914:	012ea023          	sw	s2,0(t4)
    return *(volatile uint32_t*)addr;
  100918:	008eac03          	lw	s8,8(t4)
    while (mmio_r32(UART_MMIO_BASE + UART_ST) & ST_TX_BUSY) {
  10091c:	001c7c13          	andi	s8,s8,1
  100920:	000c0663          	beqz	s8,10092c <boot_sd_read_sector+0x4a8>
        __asm__ __volatile__("nop");
  100924:	00000013          	nop
  100928:	ff1ff06f          	j	100918 <boot_sd_read_sector+0x494>
    *(volatile uint32_t*)addr = v;
  10092c:	013ea023          	sw	s3,0(t4)
  100930:	00700c93          	li	s9,7
  100934:	000c8c13          	mv	s8,s9
        uint8_t n = (uint8_t)((v >> (i * 4)) & 0xFu);
  100938:	002c9c93          	slli	s9,s9,0x2
  10093c:	019bdcb3          	srl	s9,s7,s9
  100940:	00fcfc93          	andi	s9,s9,15
        putchar(n < 10 ? (char)('0' + n) : (char)('A' + n - 10));
  100944:	01fce663          	bltu	s9,t6,100950 <boot_sd_read_sector+0x4cc>
  100948:	037c8c93          	addi	s9,s9,55
  10094c:	0100006f          	j	10095c <boot_sd_read_sector+0x4d8>
  100950:	030c8c93          	addi	s9,s9,48
  100954:	0080006f          	j	10095c <boot_sd_read_sector+0x4d8>
        __asm__ __volatile__("nop");
  100958:	00000013          	nop
    return *(volatile uint32_t*)addr;
  10095c:	008ead03          	lw	s10,8(t4)
    while (mmio_r32(UART_MMIO_BASE + UART_ST) & ST_TX_BUSY) {
  100960:	001d7d13          	andi	s10,s10,1
  100964:	fe0d1ae3          	bnez	s10,100958 <boot_sd_read_sector+0x4d4>
    *(volatile uint32_t*)addr = v;
  100968:	019ea023          	sw	s9,0(t4)
    for (int i = 7; i >= 0; i--) {
  10096c:	fffc0c93          	addi	s9,s8,-1
  100970:	fc0c12e3          	bnez	s8,100934 <boot_sd_read_sector+0x4b0>
  100974:	0080006f          	j	10097c <boot_sd_read_sector+0x4f8>
        __asm__ __volatile__("nop");
  100978:	00000013          	nop
    return *(volatile uint32_t*)addr;
  10097c:	008eab83          	lw	s7,8(t4)
    while (mmio_r32(UART_MMIO_BASE + UART_ST) & ST_TX_BUSY) {
  100980:	001bfb93          	andi	s7,s7,1
  100984:	fe0b9ae3          	bnez	s7,100978 <boot_sd_read_sector+0x4f4>
    *(volatile uint32_t*)addr = v;
  100988:	008ea023          	sw	s0,0(t4)
    return *(volatile uint32_t*)addr;
  10098c:	008eab83          	lw	s7,8(t4)
  100990:	001bfb93          	andi	s7,s7,1
  100994:	000b8663          	beqz	s7,1009a0 <boot_sd_read_sector+0x51c>
        __asm__ __volatile__("nop");
  100998:	00000013          	nop
  10099c:	ff1ff06f          	j	10098c <boot_sd_read_sector+0x508>
    *(volatile uint32_t*)addr = v;
  1009a0:	014ea023          	sw	s4,0(t4)
    return *(volatile uint32_t*)addr;
  1009a4:	008eab83          	lw	s7,8(t4)
    while (mmio_r32(UART_MMIO_BASE + UART_ST) & ST_TX_BUSY) {
  1009a8:	001bfb93          	andi	s7,s7,1
  1009ac:	000b8663          	beqz	s7,1009b8 <boot_sd_read_sector+0x534>
        __asm__ __volatile__("nop");
  1009b0:	00000013          	nop
  1009b4:	ff1ff06f          	j	1009a4 <boot_sd_read_sector+0x520>
    *(volatile uint32_t*)addr = v;
  1009b8:	012ea023          	sw	s2,0(t4)
    return *(volatile uint32_t*)addr;
  1009bc:	008eab83          	lw	s7,8(t4)
    while (mmio_r32(UART_MMIO_BASE + UART_ST) & ST_TX_BUSY) {
  1009c0:	001bfb93          	andi	s7,s7,1
  1009c4:	000b8663          	beqz	s7,1009d0 <boot_sd_read_sector+0x54c>
        __asm__ __volatile__("nop");
  1009c8:	00000013          	nop
  1009cc:	ff1ff06f          	j	1009bc <boot_sd_read_sector+0x538>
    *(volatile uint32_t*)addr = v;
  1009d0:	013ea023          	sw	s3,0(t4)
  1009d4:	00700c13          	li	s8,7
  1009d8:	000c0b93          	mv	s7,s8
        uint8_t n = (uint8_t)((v >> (i * 4)) & 0xFu);
  1009dc:	002c1c13          	slli	s8,s8,0x2
  1009e0:	018b5c33          	srl	s8,s6,s8
  1009e4:	00fc7c13          	andi	s8,s8,15
        putchar(n < 10 ? (char)('0' + n) : (char)('A' + n - 10));
  1009e8:	01fc6663          	bltu	s8,t6,1009f4 <boot_sd_read_sector+0x570>
  1009ec:	037c0c13          	addi	s8,s8,55
  1009f0:	0100006f          	j	100a00 <boot_sd_read_sector+0x57c>
  1009f4:	030c0c13          	addi	s8,s8,48
  1009f8:	0080006f          	j	100a00 <boot_sd_read_sector+0x57c>
        __asm__ __volatile__("nop");
  1009fc:	00000013          	nop
    return *(volatile uint32_t*)addr;
  100a00:	008eac83          	lw	s9,8(t4)
    while (mmio_r32(UART_MMIO_BASE + UART_ST) & ST_TX_BUSY) {
  100a04:	001cfc93          	andi	s9,s9,1
  100a08:	fe0c9ae3          	bnez	s9,1009fc <boot_sd_read_sector+0x578>
    *(volatile uint32_t*)addr = v;
  100a0c:	018ea023          	sw	s8,0(t4)
    for (int i = 7; i >= 0; i--) {
  100a10:	fffb8c13          	addi	s8,s7,-1
  100a14:	fc0b92e3          	bnez	s7,1009d8 <boot_sd_read_sector+0x554>
  100a18:	0080006f          	j	100a20 <boot_sd_read_sector+0x59c>
        __asm__ __volatile__("nop");
  100a1c:	00000013          	nop
    return *(volatile uint32_t*)addr;
  100a20:	008eab03          	lw	s6,8(t4)
    while (mmio_r32(UART_MMIO_BASE + UART_ST) & ST_TX_BUSY) {
  100a24:	001b7b13          	andi	s6,s6,1
  100a28:	fe0b1ae3          	bnez	s6,100a1c <boot_sd_read_sector+0x598>
    *(volatile uint32_t*)addr = v;
  100a2c:	01fea023          	sw	t6,0(t4)
  100a30:	f9c00b13          	li	s6,-100
    while (n--) {
  100a34:	001b0b13          	addi	s6,s6,1
        __asm__ __volatile__("nop");
  100a38:	00000013          	nop
    while (n--) {
  100a3c:	fe0b1ce3          	bnez	s6,100a34 <boot_sd_read_sector+0x5b0>
    for (uint32_t retry = 0; retry < SD_READ_RETRY_MAX; retry++) {
  100a40:	00160613          	addi	a2,a2,1
  100a44:	ad5614e3          	bne	a2,s5,10050c <boot_sd_read_sector+0x88>
  100a48:	00000593          	li	a1,0
  100a4c:	04300693          	li	a3,67
  100a50:	00103637          	lui	a2,0x103
  100a54:	2f660613          	addi	a2,a2,758 # 1032f6 <boot_fat32_load_mem_file+0x55e>
  100a58:	10000737          	lui	a4,0x10000
  100a5c:	00f00793          	li	a5,15
  100a60:	0080006f          	j	100a68 <boot_sd_read_sector+0x5e4>
        __asm__ __volatile__("nop");
  100a64:	00000013          	nop
    return *(volatile uint32_t*)addr;
  100a68:	00872803          	lw	a6,8(a4) # 10000008 <_stack_top+0xfef4068>
    while (mmio_r32(UART_MMIO_BASE + UART_ST) & ST_TX_BUSY) {
  100a6c:	00187813          	andi	a6,a6,1
  100a70:	fe081ae3          	bnez	a6,100a64 <boot_sd_read_sector+0x5e0>
        putchar(*s++);
  100a74:	00158593          	addi	a1,a1,1
  100a78:	00b60833          	add	a6,a2,a1
    mmio_w32(UART_MMIO_BASE + UART_TX, (uint32_t)(uint8_t)ch);
  100a7c:	0ff6f693          	zext.b	a3,a3
    *(volatile uint32_t*)addr = v;
  100a80:	00d72023          	sw	a3,0(a4)
    while (*s) {
  100a84:	00084683          	lbu	a3,0(a6)
  100a88:	fef590e3          	bne	a1,a5,100a68 <boot_sd_read_sector+0x5e4>
  100a8c:	00700713          	li	a4,7
  100a90:	00a00593          	li	a1,10
  100a94:	10000637          	lui	a2,0x10000
  100a98:	00070693          	mv	a3,a4
        uint8_t n = (uint8_t)((v >> (i * 4)) & 0xFu);
  100a9c:	00271713          	slli	a4,a4,0x2
  100aa0:	00e55733          	srl	a4,a0,a4
  100aa4:	00f77713          	andi	a4,a4,15
        putchar(n < 10 ? (char)('0' + n) : (char)('A' + n - 10));
  100aa8:	00b76663          	bltu	a4,a1,100ab4 <boot_sd_read_sector+0x630>
  100aac:	03770713          	addi	a4,a4,55
  100ab0:	0100006f          	j	100ac0 <boot_sd_read_sector+0x63c>
  100ab4:	03070713          	addi	a4,a4,48
  100ab8:	0080006f          	j	100ac0 <boot_sd_read_sector+0x63c>
        __asm__ __volatile__("nop");
  100abc:	00000013          	nop
    return *(volatile uint32_t*)addr;
  100ac0:	00862783          	lw	a5,8(a2) # 10000008 <_stack_top+0xfef4068>
    while (mmio_r32(UART_MMIO_BASE + UART_ST) & ST_TX_BUSY) {
  100ac4:	0017f793          	andi	a5,a5,1
  100ac8:	fe079ae3          	bnez	a5,100abc <boot_sd_read_sector+0x638>
    *(volatile uint32_t*)addr = v;
  100acc:	00e62023          	sw	a4,0(a2)
    for (int i = 7; i >= 0; i--) {
  100ad0:	fff68713          	addi	a4,a3,-1
  100ad4:	fc0692e3          	bnez	a3,100a98 <boot_sd_read_sector+0x614>
  100ad8:	10000537          	lui	a0,0x10000
    return *(volatile uint32_t*)addr;
  100adc:	00852583          	lw	a1,8(a0) # 10000008 <_stack_top+0xfef4068>
    while (mmio_r32(UART_MMIO_BASE + UART_ST) & ST_TX_BUSY) {
  100ae0:	0015f593          	andi	a1,a1,1
  100ae4:	14058e63          	beqz	a1,100c40 <boot_sd_read_sector+0x7bc>
        __asm__ __volatile__("nop");
  100ae8:	00000013          	nop
  100aec:	ff1ff06f          	j	100adc <boot_sd_read_sector+0x658>
  100af0:	00000593          	li	a1,0
  100af4:	04600693          	li	a3,70
  100af8:	00103637          	lui	a2,0x103
  100afc:	66360613          	addi	a2,a2,1635 # 103663 <$d.3+0x75>
  100b00:	10000737          	lui	a4,0x10000
  100b04:	01700793          	li	a5,23
  100b08:	0080006f          	j	100b10 <boot_sd_read_sector+0x68c>
  100b0c:	00000013          	nop
  100b10:	00872803          	lw	a6,8(a4) # 10000008 <_stack_top+0xfef4068>
    while (mmio_r32(UART_MMIO_BASE + UART_ST) & ST_TX_BUSY) {
  100b14:	00187813          	andi	a6,a6,1
  100b18:	fe081ae3          	bnez	a6,100b0c <boot_sd_read_sector+0x688>
        putchar(*s++);
  100b1c:	00158593          	addi	a1,a1,1
  100b20:	00b60833          	add	a6,a2,a1
    mmio_w32(UART_MMIO_BASE + UART_TX, (uint32_t)(uint8_t)ch);
  100b24:	0ff6f693          	zext.b	a3,a3
    *(volatile uint32_t*)addr = v;
  100b28:	00d72023          	sw	a3,0(a4)
    while (*s) {
  100b2c:	00084683          	lbu	a3,0(a6)
  100b30:	fef590e3          	bne	a1,a5,100b10 <boot_sd_read_sector+0x68c>
  100b34:	00700713          	li	a4,7
  100b38:	00a00593          	li	a1,10
  100b3c:	10000637          	lui	a2,0x10000
  100b40:	00070693          	mv	a3,a4
        uint8_t n = (uint8_t)((v >> (i * 4)) & 0xFu);
  100b44:	00271713          	slli	a4,a4,0x2
  100b48:	00e55733          	srl	a4,a0,a4
  100b4c:	00f77713          	andi	a4,a4,15
        putchar(n < 10 ? (char)('0' + n) : (char)('A' + n - 10));
  100b50:	00b76663          	bltu	a4,a1,100b5c <boot_sd_read_sector+0x6d8>
  100b54:	03770713          	addi	a4,a4,55
  100b58:	0100006f          	j	100b68 <boot_sd_read_sector+0x6e4>
  100b5c:	03070713          	addi	a4,a4,48
  100b60:	0080006f          	j	100b68 <boot_sd_read_sector+0x6e4>
        __asm__ __volatile__("nop");
  100b64:	00000013          	nop
    return *(volatile uint32_t*)addr;
  100b68:	00862783          	lw	a5,8(a2) # 10000008 <_stack_top+0xfef4068>
    while (mmio_r32(UART_MMIO_BASE + UART_ST) & ST_TX_BUSY) {
  100b6c:	0017f793          	andi	a5,a5,1
  100b70:	fe079ae3          	bnez	a5,100b64 <boot_sd_read_sector+0x6e0>
    *(volatile uint32_t*)addr = v;
  100b74:	00e62023          	sw	a4,0(a2)
    for (int i = 7; i >= 0; i--) {
  100b78:	fff68713          	addi	a4,a3,-1
  100b7c:	fc0692e3          	bnez	a3,100b40 <boot_sd_read_sector+0x6bc>
  100b80:	10000537          	lui	a0,0x10000
    return *(volatile uint32_t*)addr;
  100b84:	00852583          	lw	a1,8(a0) # 10000008 <_stack_top+0xfef4068>
    while (mmio_r32(UART_MMIO_BASE + UART_ST) & ST_TX_BUSY) {
  100b88:	0015f593          	andi	a1,a1,1
  100b8c:	0a058a63          	beqz	a1,100c40 <boot_sd_read_sector+0x7bc>
        __asm__ __volatile__("nop");
  100b90:	00000013          	nop
  100b94:	ff1ff06f          	j	100b84 <boot_sd_read_sector+0x700>
  100b98:	00000593          	li	a1,0
  100b9c:	05300693          	li	a3,83
  100ba0:	00103637          	lui	a2,0x103
  100ba4:	5d960613          	addi	a2,a2,1497 # 1035d9 <$d.1+0x2d3>
  100ba8:	10000737          	lui	a4,0x10000
  100bac:	01400793          	li	a5,20
  100bb0:	0080006f          	j	100bb8 <boot_sd_read_sector+0x734>
  100bb4:	00000013          	nop
  100bb8:	00872803          	lw	a6,8(a4) # 10000008 <_stack_top+0xfef4068>
    while (mmio_r32(UART_MMIO_BASE + UART_ST) & ST_TX_BUSY) {
  100bbc:	00187813          	andi	a6,a6,1
  100bc0:	fe081ae3          	bnez	a6,100bb4 <boot_sd_read_sector+0x730>
        putchar(*s++);
  100bc4:	00158593          	addi	a1,a1,1
  100bc8:	00b60833          	add	a6,a2,a1
    mmio_w32(UART_MMIO_BASE + UART_TX, (uint32_t)(uint8_t)ch);
  100bcc:	0ff6f693          	zext.b	a3,a3
    *(volatile uint32_t*)addr = v;
  100bd0:	00d72023          	sw	a3,0(a4)
    while (*s) {
  100bd4:	00084683          	lbu	a3,0(a6)
  100bd8:	fef590e3          	bne	a1,a5,100bb8 <boot_sd_read_sector+0x734>
  100bdc:	00700713          	li	a4,7
  100be0:	00a00593          	li	a1,10
  100be4:	10000637          	lui	a2,0x10000
  100be8:	00070693          	mv	a3,a4
        uint8_t n = (uint8_t)((v >> (i * 4)) & 0xFu);
  100bec:	00271713          	slli	a4,a4,0x2
  100bf0:	00e55733          	srl	a4,a0,a4
  100bf4:	00f77713          	andi	a4,a4,15
        putchar(n < 10 ? (char)('0' + n) : (char)('A' + n - 10));
  100bf8:	00b76663          	bltu	a4,a1,100c04 <boot_sd_read_sector+0x780>
  100bfc:	03770713          	addi	a4,a4,55
  100c00:	0100006f          	j	100c10 <boot_sd_read_sector+0x78c>
  100c04:	03070713          	addi	a4,a4,48
  100c08:	0080006f          	j	100c10 <boot_sd_read_sector+0x78c>
        __asm__ __volatile__("nop");
  100c0c:	00000013          	nop
    return *(volatile uint32_t*)addr;
  100c10:	00862783          	lw	a5,8(a2) # 10000008 <_stack_top+0xfef4068>
    while (mmio_r32(UART_MMIO_BASE + UART_ST) & ST_TX_BUSY) {
  100c14:	0017f793          	andi	a5,a5,1
  100c18:	fe079ae3          	bnez	a5,100c0c <boot_sd_read_sector+0x788>
    *(volatile uint32_t*)addr = v;
  100c1c:	00e62023          	sw	a4,0(a2)
    for (int i = 7; i >= 0; i--) {
  100c20:	fff68713          	addi	a4,a3,-1
  100c24:	fc0692e3          	bnez	a3,100be8 <boot_sd_read_sector+0x764>
  100c28:	10000537          	lui	a0,0x10000
    return *(volatile uint32_t*)addr;
  100c2c:	00852583          	lw	a1,8(a0) # 10000008 <_stack_top+0xfef4068>
    while (mmio_r32(UART_MMIO_BASE + UART_ST) & ST_TX_BUSY) {
  100c30:	0015f593          	andi	a1,a1,1
  100c34:	00058663          	beqz	a1,100c40 <boot_sd_read_sector+0x7bc>
        __asm__ __volatile__("nop");
  100c38:	00000013          	nop
  100c3c:	ff1ff06f          	j	100c2c <boot_sd_read_sector+0x7a8>
  100c40:	10000537          	lui	a0,0x10000
  100c44:	00a00593          	li	a1,10
    *(volatile uint32_t*)addr = v;
  100c48:	00b52023          	sw	a1,0(a0) # 10000000 <_stack_top+0xfef4060>
  100c4c:	fff00513          	li	a0,-1
  100c50:	02c12403          	lw	s0,44(sp)
  100c54:	02812483          	lw	s1,40(sp)
  100c58:	02412903          	lw	s2,36(sp)
  100c5c:	02012983          	lw	s3,32(sp)
  100c60:	01c12a03          	lw	s4,28(sp)
  100c64:	01812a83          	lw	s5,24(sp)
  100c68:	01412b03          	lw	s6,20(sp)
  100c6c:	01012b83          	lw	s7,16(sp)
  100c70:	00c12c03          	lw	s8,12(sp)
  100c74:	00812c83          	lw	s9,8(sp)
  100c78:	00412d03          	lw	s10,4(sp)
  100c7c:	00012d83          	lw	s11,0(sp)
}
  100c80:	03010113          	addi	sp,sp,48
  100c84:	00008067          	ret
  100c88:	00000513          	li	a0,0
  100c8c:	fc5ff06f          	j	100c50 <boot_sd_read_sector+0x7cc>

00100c90 <bl_print_hex>:
{
  100c90:	00700713          	li	a4,7
  100c94:	00a00593          	li	a1,10
  100c98:	10000637          	lui	a2,0x10000
  100c9c:	00070693          	mv	a3,a4
        uint8_t n = (uint8_t)((v >> (i * 4)) & 0xFu);
  100ca0:	00271713          	slli	a4,a4,0x2
  100ca4:	00e55733          	srl	a4,a0,a4
  100ca8:	00f77713          	andi	a4,a4,15
        putchar(n < 10 ? (char)('0' + n) : (char)('A' + n - 10));
  100cac:	00b76663          	bltu	a4,a1,100cb8 <bl_print_hex+0x28>
  100cb0:	03770713          	addi	a4,a4,55
  100cb4:	0100006f          	j	100cc4 <bl_print_hex+0x34>
  100cb8:	03070713          	addi	a4,a4,48
  100cbc:	0080006f          	j	100cc4 <bl_print_hex+0x34>
        __asm__ __volatile__("nop");
  100cc0:	00000013          	nop
    return *(volatile uint32_t*)addr;
  100cc4:	00862783          	lw	a5,8(a2) # 10000008 <_stack_top+0xfef4068>
    while (mmio_r32(UART_MMIO_BASE + UART_ST) & ST_TX_BUSY) {
  100cc8:	0017f793          	andi	a5,a5,1
  100ccc:	fe079ae3          	bnez	a5,100cc0 <bl_print_hex+0x30>
    *(volatile uint32_t*)addr = v;
  100cd0:	00e62023          	sw	a4,0(a2)
    for (int i = 7; i >= 0; i--) {
  100cd4:	fff68713          	addi	a4,a3,-1
  100cd8:	fc0692e3          	bnez	a3,100c9c <bl_print_hex+0xc>
}
  100cdc:	00008067          	ret

00100ce0 <memcpy>:
#include "common.h"

void *memcpy(void *dst, const void *src, size_t n) {
    uint8_t *d = (uint8_t *) dst;
    const uint8_t *s = (const uint8_t *) src;
    while (n--)
  100ce0:	02060263          	beqz	a2,100d04 <memcpy+0x24>
  100ce4:	00c50633          	add	a2,a0,a2
  100ce8:	00050693          	mv	a3,a0
        *d++ = *s++;
  100cec:	0005c703          	lbu	a4,0(a1)
  100cf0:	00158593          	addi	a1,a1,1
  100cf4:	00168793          	addi	a5,a3,1
  100cf8:	00e68023          	sb	a4,0(a3)
  100cfc:	00078693          	mv	a3,a5
    while (n--)
  100d00:	fec796e3          	bne	a5,a2,100cec <memcpy+0xc>
    return dst;
  100d04:	00008067          	ret

00100d08 <dma_memcpy>:
    __asm__ __volatile__("csrr %0, 0x7F0" : "=r"(value));
    return value;
}

void *dma_memcpy(void *dst, const void *src, size_t n)
{
  100d08:	00000693          	li	a3,0
    csr_write(CSR_DMA_WORDS, (uint32_t)(n >> 2));
  100d0c:	00265613          	srli	a2,a2,0x2
        __asm__ __volatile__("csrw 0x7E4, %0" :: "r"(value));
  100d10:	7e461073          	csrw	0x7e4,a2
        __asm__ __volatile__("csrw 0x7E8, %0" :: "r"(value));
  100d14:	7e859073          	csrw	0x7e8,a1
        __asm__ __volatile__("csrw 0x7EC, %0" :: "r"(value));
  100d18:	7ec51073          	csrw	0x7ec,a0
  100d1c:	00100593          	li	a1,1
        __asm__ __volatile__("csrw 0x7E0, %0" :: "r"(value));
  100d20:	7e059073          	csrw	0x7e0,a1
  100d24:	7e069073          	csrw	0x7e0,a3
    __asm__ __volatile__("csrr %0, 0x7F0" : "=r"(value));
  100d28:	7f0025f3          	csrr	a1,0x7f0
    csr_write(CSR_DMA_DST,   (uint32_t)dst);

    csr_write(CSR_DMA_CTRL, 1);
    csr_write(CSR_DMA_CTRL, 0);

    while (csr_read_dma_status() == 0)
  100d2c:	fe058ee3          	beqz	a1,100d28 <dma_memcpy+0x20>
        ;

    return dst;
  100d30:	00008067          	ret

00100d34 <memset>:
*/

#if 1
void *memset(void *buf, char c, size_t n) {
    uint8_t *p = (uint8_t *) buf;
    while (n--)
  100d34:	00060e63          	beqz	a2,100d50 <memset+0x1c>
  100d38:	00c50633          	add	a2,a0,a2
  100d3c:	00050693          	mv	a3,a0
        *p++ = c;
  100d40:	00168713          	addi	a4,a3,1
  100d44:	00b68023          	sb	a1,0(a3)
  100d48:	00070693          	mv	a3,a4
    while (n--)
  100d4c:	fec71ae3          	bne	a4,a2,100d40 <memset+0xc>
    return buf;
  100d50:	00008067          	ret

00100d54 <s_print_int>:
    *rem = r;
    return q;
}

void s_print_int(int v)
{
  100d54:	fe010113          	addi	sp,sp,-32
  100d58:	00112e23          	sw	ra,28(sp)
  100d5c:	00812c23          	sw	s0,24(sp)
  100d60:	00912a23          	sw	s1,20(sp)
  100d64:	01212823          	sw	s2,16(sp)
    uint32_t u;
    char buf[10];
    int idx = 0;

    if (v < 0) {
  100d68:	02054463          	bltz	a0,100d90 <s_print_int+0x3c>
        u = (uint32_t)(-(v + 1)) + 1u;
    } else {
        u = (uint32_t)v;
    }

    if (u == 0) {
  100d6c:	02051e63          	bnez	a0,100da8 <s_print_int+0x54>
        uart_putchar('0');
  100d70:	03000513          	li	a0,48
  100d74:	01c12083          	lw	ra,28(sp)
  100d78:	01812403          	lw	s0,24(sp)
  100d7c:	01412483          	lw	s1,20(sp)
  100d80:	01012903          	lw	s2,16(sp)
  100d84:	02010113          	addi	sp,sp,32
  100d88:	fffff317          	auipc	t1,0xfffff
  100d8c:	2ac30067          	jr	684(t1) # 100034 <uart_putchar>
  100d90:	00050413          	mv	s0,a0
        uart_putchar('-');
  100d94:	02d00513          	li	a0,45
  100d98:	fffff097          	auipc	ra,0xfffff
  100d9c:	29c080e7          	jalr	668(ra) # 100034 <uart_putchar>
  100da0:	00040513          	mv	a0,s0
        u = (uint32_t)(-(v + 1)) + 1u;
  100da4:	40800533          	neg	a0,s0
  100da8:	00000793          	li	a5,0
  100dac:	00100593          	li	a1,1
  100db0:	fff00613          	li	a2,-1
  100db4:	00610693          	addi	a3,sp,6
  100db8:	00000813          	li	a6,0
  100dbc:	00000713          	li	a4,0
  100dc0:	00078413          	mv	s0,a5
  100dc4:	01f00793          	li	a5,31
        r = (r << 1) | ((u >> i) & 1u);
  100dc8:	00181813          	slli	a6,a6,0x1
  100dcc:	00f558b3          	srl	a7,a0,a5
  100dd0:	0018f893          	andi	a7,a7,1
  100dd4:	0108e833          	or	a6,a7,a6
        if (r >= 10u) {
  100dd8:	00a83893          	sltiu	a7,a6,10
  100ddc:	00f592b3          	sll	t0,a1,a5
  100de0:	fff88893          	addi	a7,a7,-1
  100de4:	0058f2b3          	and	t0,a7,t0
  100de8:	00e2e733          	or	a4,t0,a4
  100dec:	ff68f893          	andi	a7,a7,-10
    for (int i = 31; i >= 0; --i) {
  100df0:	fff78793          	addi	a5,a5,-1
        if (r >= 10u) {
  100df4:	01180833          	add	a6,a6,a7
    for (int i = 31; i >= 0; --i) {
  100df8:	fcc798e3          	bne	a5,a2,100dc8 <s_print_int+0x74>
    }

    while (u != 0) {
        uint32_t rem;
        u = divmod10(u, &rem);
        buf[idx++] = (char)('0' + rem);
  100dfc:	03080513          	addi	a0,a6,48
  100e00:	00140793          	addi	a5,s0,1
  100e04:	00868833          	add	a6,a3,s0
  100e08:	00a80023          	sb	a0,0(a6)
  100e0c:	00070513          	mv	a0,a4
    while (u != 0) {
  100e10:	fa0714e3          	bnez	a4,100db8 <s_print_int+0x64>
  100e14:	00610493          	addi	s1,sp,6
  100e18:	00100913          	li	s2,1
    }

    while (idx > 0) {
        uart_putchar(buf[--idx]);
  100e1c:	00848533          	add	a0,s1,s0
  100e20:	00054503          	lbu	a0,0(a0)
  100e24:	fffff097          	auipc	ra,0xfffff
  100e28:	210080e7          	jalr	528(ra) # 100034 <uart_putchar>
    while (idx > 0) {
  100e2c:	00140513          	addi	a0,s0,1
  100e30:	fff40413          	addi	s0,s0,-1
  100e34:	fea944e3          	blt	s2,a0,100e1c <s_print_int+0xc8>
  100e38:	01c12083          	lw	ra,28(sp)
  100e3c:	01812403          	lw	s0,24(sp)
  100e40:	01412483          	lw	s1,20(sp)
  100e44:	01012903          	lw	s2,16(sp)
    }
}
  100e48:	02010113          	addi	sp,sp,32
  100e4c:	00008067          	ret

00100e50 <s_printf>:

void s_printf(const char *fmt, ...) {
  100e50:	f9010113          	addi	sp,sp,-112
  100e54:	04112623          	sw	ra,76(sp)
  100e58:	04812423          	sw	s0,72(sp)
  100e5c:	04912223          	sw	s1,68(sp)
  100e60:	05212023          	sw	s2,64(sp)
  100e64:	03312e23          	sw	s3,60(sp)
  100e68:	03412c23          	sw	s4,56(sp)
  100e6c:	03512a23          	sw	s5,52(sp)
  100e70:	03612823          	sw	s6,48(sp)
  100e74:	03712623          	sw	s7,44(sp)
  100e78:	03812423          	sw	s8,40(sp)
  100e7c:	03912223          	sw	s9,36(sp)
  100e80:	03a12023          	sw	s10,32(sp)
  100e84:	01b12e23          	sw	s11,28(sp)
  100e88:	00050413          	mv	s0,a0
  100e8c:	07112623          	sw	a7,108(sp)
  100e90:	07012423          	sw	a6,104(sp)
  100e94:	06f12223          	sw	a5,100(sp)
  100e98:	06e12023          	sw	a4,96(sp)
  100e9c:	04d12e23          	sw	a3,92(sp)
  100ea0:	04c12c23          	sw	a2,88(sp)
  100ea4:	04b12a23          	sw	a1,84(sp)
  100ea8:	05410513          	addi	a0,sp,84
    va_list vargs;
    va_start(vargs, fmt);
  100eac:	00a12c23          	sw	a0,24(sp)
  100eb0:	02500493          	li	s1,37
  100eb4:	07200913          	li	s2,114
  100eb8:	ccccd537          	lui	a0,0xccccd
  100ebc:	ccd50a13          	addi	s4,a0,-819 # cccccccd <_stack_top+0xccbc0d2d>
  100ec0:	00a00a93          	li	s5,10
  100ec4:	00d10b13          	addi	s6,sp,13
  100ec8:	00900b93          	li	s7,9
  100ecc:	00100c13          	li	s8,1
  100ed0:	07300c93          	li	s9,115
  100ed4:	00104537          	lui	a0,0x104
  100ed8:	84450d93          	addi	s11,a0,-1980 # 103844 <print_hex8.HEX>
  100edc:	00c0006f          	j	100ee8 <s_printf+0x98>

    while (*fmt) {
        if (*fmt == '%') {
            fmt++;
            switch (*fmt) {
  100ee0:	1e050863          	beqz	a0,1010d0 <s_printf+0x280>
            }
        } else {
            uart_putchar(*fmt);
        }

        fmt++;
  100ee4:	00140413          	addi	s0,s0,1
    while (*fmt) {
  100ee8:	00044503          	lbu	a0,0(s0)
  100eec:	00950c63          	beq	a0,s1,100f04 <s_printf+0xb4>
  100ef0:	1e050663          	beqz	a0,1010dc <s_printf+0x28c>
  100ef4:	fffff097          	auipc	ra,0xfffff
  100ef8:	140080e7          	jalr	320(ra) # 100034 <uart_putchar>
        fmt++;
  100efc:	00140413          	addi	s0,s0,1
  100f00:	fe9ff06f          	j	100ee8 <s_printf+0x98>
            switch (*fmt) {
  100f04:	00144503          	lbu	a0,1(s0)
            fmt++;
  100f08:	00140413          	addi	s0,s0,1
            switch (*fmt) {
  100f0c:	02a94e63          	blt	s2,a0,100f48 <s_printf+0xf8>
  100f10:	10950a63          	beq	a0,s1,101024 <s_printf+0x1d4>
  100f14:	06400593          	li	a1,100
  100f18:	fcb514e3          	bne	a0,a1,100ee0 <s_printf+0x90>
                    int value = va_arg(vargs, int);
  100f1c:	01812503          	lw	a0,24(sp)
  100f20:	00450593          	addi	a1,a0,4
  100f24:	00b12c23          	sw	a1,24(sp)
  100f28:	00052983          	lw	s3,0(a0)
                    if (value < 0) {
  100f2c:	1409c263          	bltz	s3,101070 <s_printf+0x220>
                    if (u == 0) {
  100f30:	14099863          	bnez	s3,101080 <s_printf+0x230>
                        uart_putchar('0');
  100f34:	03000513          	li	a0,48
  100f38:	fffff097          	auipc	ra,0xfffff
  100f3c:	0fc080e7          	jalr	252(ra) # 100034 <uart_putchar>
        fmt++;
  100f40:	00140413          	addi	s0,s0,1
  100f44:	fa5ff06f          	j	100ee8 <s_printf+0x98>
            switch (*fmt) {
  100f48:	0f950863          	beq	a0,s9,101038 <s_printf+0x1e8>
  100f4c:	07800593          	li	a1,120
  100f50:	f8b51ae3          	bne	a0,a1,100ee4 <s_printf+0x94>
                    unsigned value = va_arg(vargs, unsigned);
  100f54:	01812503          	lw	a0,24(sp)
  100f58:	00450593          	addi	a1,a0,4
  100f5c:	00b12c23          	sw	a1,24(sp)
  100f60:	00052983          	lw	s3,0(a0)
                        unsigned nibble = (value >> (i * 4)) & 0xf;
  100f64:	01c9d513          	srli	a0,s3,0x1c
                        uart_putchar("0123456789abcdef"[nibble]);
  100f68:	00ad8533          	add	a0,s11,a0
  100f6c:	00054503          	lbu	a0,0(a0)
  100f70:	fffff097          	auipc	ra,0xfffff
  100f74:	0c4080e7          	jalr	196(ra) # 100034 <uart_putchar>
                        unsigned nibble = (value >> (i * 4)) & 0xf;
  100f78:	00499513          	slli	a0,s3,0x4
  100f7c:	01c55513          	srli	a0,a0,0x1c
                        uart_putchar("0123456789abcdef"[nibble]);
  100f80:	00ad8533          	add	a0,s11,a0
  100f84:	00054503          	lbu	a0,0(a0)
  100f88:	fffff097          	auipc	ra,0xfffff
  100f8c:	0ac080e7          	jalr	172(ra) # 100034 <uart_putchar>
                        unsigned nibble = (value >> (i * 4)) & 0xf;
  100f90:	00899513          	slli	a0,s3,0x8
  100f94:	01c55513          	srli	a0,a0,0x1c
                        uart_putchar("0123456789abcdef"[nibble]);
  100f98:	00ad8533          	add	a0,s11,a0
  100f9c:	00054503          	lbu	a0,0(a0)
  100fa0:	fffff097          	auipc	ra,0xfffff
  100fa4:	094080e7          	jalr	148(ra) # 100034 <uart_putchar>
                        unsigned nibble = (value >> (i * 4)) & 0xf;
  100fa8:	00c99513          	slli	a0,s3,0xc
  100fac:	01c55513          	srli	a0,a0,0x1c
                        uart_putchar("0123456789abcdef"[nibble]);
  100fb0:	00ad8533          	add	a0,s11,a0
  100fb4:	00054503          	lbu	a0,0(a0)
  100fb8:	fffff097          	auipc	ra,0xfffff
  100fbc:	07c080e7          	jalr	124(ra) # 100034 <uart_putchar>
                        unsigned nibble = (value >> (i * 4)) & 0xf;
  100fc0:	01099513          	slli	a0,s3,0x10
  100fc4:	01c55513          	srli	a0,a0,0x1c
                        uart_putchar("0123456789abcdef"[nibble]);
  100fc8:	00ad8533          	add	a0,s11,a0
  100fcc:	00054503          	lbu	a0,0(a0)
  100fd0:	fffff097          	auipc	ra,0xfffff
  100fd4:	064080e7          	jalr	100(ra) # 100034 <uart_putchar>
                        unsigned nibble = (value >> (i * 4)) & 0xf;
  100fd8:	01499513          	slli	a0,s3,0x14
  100fdc:	01c55513          	srli	a0,a0,0x1c
                        uart_putchar("0123456789abcdef"[nibble]);
  100fe0:	00ad8533          	add	a0,s11,a0
  100fe4:	00054503          	lbu	a0,0(a0)
  100fe8:	fffff097          	auipc	ra,0xfffff
  100fec:	04c080e7          	jalr	76(ra) # 100034 <uart_putchar>
                        unsigned nibble = (value >> (i * 4)) & 0xf;
  100ff0:	01899513          	slli	a0,s3,0x18
  100ff4:	01c55513          	srli	a0,a0,0x1c
                        uart_putchar("0123456789abcdef"[nibble]);
  100ff8:	00ad8533          	add	a0,s11,a0
  100ffc:	00054503          	lbu	a0,0(a0)
  101000:	fffff097          	auipc	ra,0xfffff
  101004:	034080e7          	jalr	52(ra) # 100034 <uart_putchar>
                        unsigned nibble = (value >> (i * 4)) & 0xf;
  101008:	00f9f513          	andi	a0,s3,15
                        uart_putchar("0123456789abcdef"[nibble]);
  10100c:	00ad8533          	add	a0,s11,a0
  101010:	00054503          	lbu	a0,0(a0)
  101014:	fffff097          	auipc	ra,0xfffff
  101018:	020080e7          	jalr	32(ra) # 100034 <uart_putchar>
        fmt++;
  10101c:	00140413          	addi	s0,s0,1
  101020:	ec9ff06f          	j	100ee8 <s_printf+0x98>
                    uart_putchar('%');
  101024:	02500513          	li	a0,37
  101028:	fffff097          	auipc	ra,0xfffff
  10102c:	00c080e7          	jalr	12(ra) # 100034 <uart_putchar>
        fmt++;
  101030:	00140413          	addi	s0,s0,1
  101034:	eb5ff06f          	j	100ee8 <s_printf+0x98>
                    const char *s = va_arg(vargs, const char *);
  101038:	01812503          	lw	a0,24(sp)
  10103c:	00450593          	addi	a1,a0,4
  101040:	00b12c23          	sw	a1,24(sp)
  101044:	00052983          	lw	s3,0(a0)
                    while (*s) {
  101048:	0009c503          	lbu	a0,0(s3)
  10104c:	e8050ce3          	beqz	a0,100ee4 <s_printf+0x94>
  101050:	00198993          	addi	s3,s3,1
                        uart_putchar(*s);
  101054:	0ff57513          	zext.b	a0,a0
  101058:	fffff097          	auipc	ra,0xfffff
  10105c:	fdc080e7          	jalr	-36(ra) # 100034 <uart_putchar>
                    while (*s) {
  101060:	0009c503          	lbu	a0,0(s3)
  101064:	00198993          	addi	s3,s3,1
  101068:	fe0516e3          	bnez	a0,101054 <s_printf+0x204>
  10106c:	e79ff06f          	j	100ee4 <s_printf+0x94>
                        uart_putchar('-');
  101070:	02d00513          	li	a0,45
  101074:	fffff097          	auipc	ra,0xfffff
  101078:	fc0080e7          	jalr	-64(ra) # 100034 <uart_putchar>
                        u = (unsigned int)(-(value + 1)) + 1;
  10107c:	413009b3          	neg	s3,s3
  101080:	00000513          	li	a0,0
  101084:	00098593          	mv	a1,s3
  101088:	00050d13          	mv	s10,a0
                        u /= 10;
  10108c:	0349b533          	mulhu	a0,s3,s4
  101090:	00355993          	srli	s3,a0,0x3
  101094:	03598533          	mul	a0,s3,s5
  101098:	40a58533          	sub	a0,a1,a0
                        buf[i++] = '0' + (u % 10);
  10109c:	03056613          	ori	a2,a0,48
  1010a0:	001d0513          	addi	a0,s10,1
  1010a4:	01ab06b3          	add	a3,s6,s10
  1010a8:	00c68023          	sb	a2,0(a3)
                    while (u > 0) {
  1010ac:	fcbbece3          	bltu	s7,a1,101084 <s_printf+0x234>
                        uart_putchar(buf[--i]);
  1010b0:	01ab0533          	add	a0,s6,s10
  1010b4:	00054503          	lbu	a0,0(a0)
  1010b8:	fffff097          	auipc	ra,0xfffff
  1010bc:	f7c080e7          	jalr	-132(ra) # 100034 <uart_putchar>
                    while (i > 0) {
  1010c0:	001d0513          	addi	a0,s10,1
  1010c4:	fffd0d13          	addi	s10,s10,-1
  1010c8:	feac44e3          	blt	s8,a0,1010b0 <s_printf+0x260>
  1010cc:	e19ff06f          	j	100ee4 <s_printf+0x94>
                    uart_putchar('%');
  1010d0:	02500513          	li	a0,37
  1010d4:	fffff097          	auipc	ra,0xfffff
  1010d8:	f60080e7          	jalr	-160(ra) # 100034 <uart_putchar>
  1010dc:	04c12083          	lw	ra,76(sp)
  1010e0:	04812403          	lw	s0,72(sp)
  1010e4:	04412483          	lw	s1,68(sp)
  1010e8:	04012903          	lw	s2,64(sp)
  1010ec:	03c12983          	lw	s3,60(sp)
  1010f0:	03812a03          	lw	s4,56(sp)
  1010f4:	03412a83          	lw	s5,52(sp)
  1010f8:	03012b03          	lw	s6,48(sp)
  1010fc:	02c12b83          	lw	s7,44(sp)
  101100:	02812c03          	lw	s8,40(sp)
  101104:	02412c83          	lw	s9,36(sp)
  101108:	02012d03          	lw	s10,32(sp)
  10110c:	01c12d83          	lw	s11,28(sp)
    }

end:
    va_end(vargs);
}
  101110:	07010113          	addi	sp,sp,112
  101114:	00008067          	ret

00101118 <parse_hex>:
/* 簡易16進パーサ（"  0x1234" / "1234" 形式どちらも可） */
int parse_hex(const char *s, uintptr_t *out) {
    uintptr_t v = 0;

    /* skip leading spaces */
    while (*s == ' ' || *s == '\t') s++;
  101118:	00250613          	addi	a2,a0,2
  10111c:	00900693          	li	a3,9
  101120:	02000713          	li	a4,32
  101124:	0080006f          	j	10112c <parse_hex+0x14>
  101128:	00160613          	addi	a2,a2,1
  10112c:	ffe64503          	lbu	a0,-2(a2)
  101130:	fed50ce3          	beq	a0,a3,101128 <parse_hex+0x10>
  101134:	fee50ae3          	beq	a0,a4,101128 <parse_hex+0x10>
  101138:	03000693          	li	a3,48
  10113c:	02d51063          	bne	a0,a3,10115c <parse_hex+0x44>

    /* optional 0x / 0X */
    if (s[0] == '0' && (s[1] == 'x' || s[1] == 'X')) s += 2;
  101140:	fff64503          	lbu	a0,-1(a2)
  101144:	02056513          	ori	a0,a0,32
  101148:	07800693          	li	a3,120
  10114c:	02d51063          	bne	a0,a3,10116c <parse_hex+0x54>
    if (!*s) return -1;
  101150:	00064503          	lbu	a0,0(a2)
  101154:	02051063          	bnez	a0,101174 <parse_hex+0x5c>
  101158:	00c0006f          	j	101164 <parse_hex+0x4c>
  10115c:	ffe60613          	addi	a2,a2,-2
  101160:	00051a63          	bnez	a0,101174 <parse_hex+0x5c>
  101164:	fff00513          	li	a0,-1
        else break;
        v = (v << 4) | d;
    }
    *out = v;
    return 0;
}
  101168:	00008067          	ret
  10116c:	ffe60613          	addi	a2,a2,-2
  101170:	03000513          	li	a0,48
  101174:	00000693          	li	a3,0
        if (c >= '0' && c <= '9') d = (uint32_t)(c - '0');
  101178:	00160613          	addi	a2,a2,1
  10117c:	00a00713          	li	a4,10
  101180:	00600793          	li	a5,6
  101184:	00500813          	li	a6,5
  101188:	0200006f          	j	1011a8 <parse_hex+0x90>
  10118c:	0ff57293          	zext.b	t0,a0
    while (*s) {
  101190:	00064503          	lbu	a0,0(a2)
  101194:	005888b3          	add	a7,a7,t0
        v = (v << 4) | d;
  101198:	00469693          	slli	a3,a3,0x4
  10119c:	00d8e6b3          	or	a3,a7,a3
    while (*s) {
  1011a0:	00160613          	addi	a2,a2,1
  1011a4:	02050a63          	beqz	a0,1011d8 <parse_hex+0xc0>
        if (c >= '0' && c <= '9') d = (uint32_t)(c - '0');
  1011a8:	fd050893          	addi	a7,a0,-48
  1011ac:	0ff8f293          	zext.b	t0,a7
  1011b0:	fd000893          	li	a7,-48
  1011b4:	fce2ece3          	bltu	t0,a4,10118c <parse_hex+0x74>
        else if (c >= 'a' && c <= 'f') d = 10u + (uint32_t)(c - 'a');
  1011b8:	f9f50893          	addi	a7,a0,-97
  1011bc:	0ff8f293          	zext.b	t0,a7
  1011c0:	fa900893          	li	a7,-87
  1011c4:	fcf2e4e3          	bltu	t0,a5,10118c <parse_hex+0x74>
        else if (c >= 'A' && c <= 'F') d = 10u + (uint32_t)(c - 'A');
  1011c8:	fbf50893          	addi	a7,a0,-65
  1011cc:	0ff8f293          	zext.b	t0,a7
  1011d0:	fc900893          	li	a7,-55
  1011d4:	fa587ce3          	bgeu	a6,t0,10118c <parse_hex+0x74>
  1011d8:	00000513          	li	a0,0
    *out = v;
  1011dc:	00d5a023          	sw	a3,0(a1)
}
  1011e0:	00008067          	ret

001011e4 <hexdump>:
/* 汎用hexdump本体：
 *  - addr: 先頭アドレス（今のページテーブルで有効な仮想アドレス）
 *  - len : ダンプ長
 *  - base_addr_label: 行頭に表示するベースアドレス（通常は addr と同じ）
 */
void hexdump(const void *addr, size_t len, uintptr_t base_addr_label) {
  1011e4:	fc010113          	addi	sp,sp,-64
  1011e8:	02112e23          	sw	ra,60(sp)
  1011ec:	02812c23          	sw	s0,56(sp)
  1011f0:	02912a23          	sw	s1,52(sp)
  1011f4:	03212823          	sw	s2,48(sp)
  1011f8:	03312623          	sw	s3,44(sp)
  1011fc:	03412423          	sw	s4,40(sp)
  101200:	03512223          	sw	s5,36(sp)
  101204:	03612023          	sw	s6,32(sp)
  101208:	01712e23          	sw	s7,28(sp)
  10120c:	01812c23          	sw	s8,24(sp)
  101210:	01912a23          	sw	s9,20(sp)
  101214:	01a12823          	sw	s10,16(sp)
  101218:	01b12623          	sw	s11,12(sp)
  10121c:	00c12423          	sw	a2,8(sp)
    const uint8_t *p = (const uint8_t *)addr;
    size_t off = 0;

    while (off < len) {
  101220:	20058463          	beqz	a1,101428 <hexdump+0x244>
  101224:	00058493          	mv	s1,a1
  101228:	00050913          	mv	s2,a0
  10122c:	00000a93          	li	s5,0
  101230:	00104537          	lui	a0,0x104
  101234:	84450b13          	addi	s6,a0,-1980 # 103844 <print_hex8.HEX>
  101238:	00104537          	lui	a0,0x104
  10123c:	89150993          	addi	s3,a0,-1903 # 103891 <$d.1>
  101240:	00700b93          	li	s7,7
  101244:	01000c13          	li	s8,16
  101248:	05f00c93          	li	s9,95
  10124c:	0240006f          	j	101270 <hexdump+0x8c>
        uart_putchar('|');
        for (size_t i = 0; i < line; i++) {
            uint8_t c = p[off + i];
            uart_putchar((c >= 0x20 && c <= 0x7e) ? (char)c : '.');
        }
        uart_putchar('|');
  101250:	07c00513          	li	a0,124
  101254:	fffff097          	auipc	ra,0xfffff
  101258:	de0080e7          	jalr	-544(ra) # 100034 <uart_putchar>
        uart_putchar('\n');
  10125c:	00a00513          	li	a0,10
  101260:	fffff097          	auipc	ra,0xfffff
  101264:	dd4080e7          	jalr	-556(ra) # 100034 <uart_putchar>

        off += line;
  101268:	015d0ab3          	add	s5,s10,s5
  10126c:	1a9afe63          	bgeu	s5,s1,101428 <hexdump+0x244>
  101270:	00812a03          	lw	s4,8(sp)
        print_hex32((uint32_t)(base_addr_label + off));
  101274:	014a8a33          	add	s4,s5,s4
        uint8_t nib = (v >> (i * 4)) & 0x0F;
  101278:	01ca5513          	srli	a0,s4,0x1c
        uart_putchar(HEX[nib]);
  10127c:	00ab0533          	add	a0,s6,a0
  101280:	00054503          	lbu	a0,0(a0)
        size_t line = (len - off > 16) ? 16 : (len - off);
  101284:	41548d33          	sub	s10,s1,s5
        uart_putchar(HEX[nib]);
  101288:	fffff097          	auipc	ra,0xfffff
  10128c:	dac080e7          	jalr	-596(ra) # 100034 <uart_putchar>
        uint8_t nib = (v >> (i * 4)) & 0x0F;
  101290:	004a1513          	slli	a0,s4,0x4
  101294:	01c55513          	srli	a0,a0,0x1c
        uart_putchar(HEX[nib]);
  101298:	00ab0533          	add	a0,s6,a0
  10129c:	00054503          	lbu	a0,0(a0)
  1012a0:	fffff097          	auipc	ra,0xfffff
  1012a4:	d94080e7          	jalr	-620(ra) # 100034 <uart_putchar>
        uint8_t nib = (v >> (i * 4)) & 0x0F;
  1012a8:	008a1513          	slli	a0,s4,0x8
  1012ac:	01c55513          	srli	a0,a0,0x1c
        uart_putchar(HEX[nib]);
  1012b0:	00ab0533          	add	a0,s6,a0
  1012b4:	00054503          	lbu	a0,0(a0)
  1012b8:	fffff097          	auipc	ra,0xfffff
  1012bc:	d7c080e7          	jalr	-644(ra) # 100034 <uart_putchar>
        uint8_t nib = (v >> (i * 4)) & 0x0F;
  1012c0:	00ca1513          	slli	a0,s4,0xc
  1012c4:	01c55513          	srli	a0,a0,0x1c
        uart_putchar(HEX[nib]);
  1012c8:	00ab0533          	add	a0,s6,a0
  1012cc:	00054503          	lbu	a0,0(a0)
  1012d0:	fffff097          	auipc	ra,0xfffff
  1012d4:	d64080e7          	jalr	-668(ra) # 100034 <uart_putchar>
        uint8_t nib = (v >> (i * 4)) & 0x0F;
  1012d8:	010a1513          	slli	a0,s4,0x10
  1012dc:	01c55513          	srli	a0,a0,0x1c
        uart_putchar(HEX[nib]);
  1012e0:	00ab0533          	add	a0,s6,a0
  1012e4:	00054503          	lbu	a0,0(a0)
  1012e8:	fffff097          	auipc	ra,0xfffff
  1012ec:	d4c080e7          	jalr	-692(ra) # 100034 <uart_putchar>
        uint8_t nib = (v >> (i * 4)) & 0x0F;
  1012f0:	014a1513          	slli	a0,s4,0x14
  1012f4:	01c55513          	srli	a0,a0,0x1c
        uart_putchar(HEX[nib]);
  1012f8:	00ab0533          	add	a0,s6,a0
  1012fc:	00054503          	lbu	a0,0(a0)
  101300:	fffff097          	auipc	ra,0xfffff
  101304:	d34080e7          	jalr	-716(ra) # 100034 <uart_putchar>
        uint8_t nib = (v >> (i * 4)) & 0x0F;
  101308:	018a1513          	slli	a0,s4,0x18
  10130c:	01c55513          	srli	a0,a0,0x1c
        uart_putchar(HEX[nib]);
  101310:	00ab0533          	add	a0,s6,a0
  101314:	00054503          	lbu	a0,0(a0)
  101318:	fffff097          	auipc	ra,0xfffff
  10131c:	d1c080e7          	jalr	-740(ra) # 100034 <uart_putchar>
        uint8_t nib = (v >> (i * 4)) & 0x0F;
  101320:	00fa7513          	andi	a0,s4,15
        uart_putchar(HEX[nib]);
  101324:	00ab0533          	add	a0,s6,a0
  101328:	00054503          	lbu	a0,0(a0)
  10132c:	fffff097          	auipc	ra,0xfffff
  101330:	d08080e7          	jalr	-760(ra) # 100034 <uart_putchar>
        s_printf(": ");
  101334:	00098513          	mv	a0,s3
  101338:	00000097          	auipc	ra,0x0
  10133c:	b18080e7          	jalr	-1256(ra) # 100e50 <s_printf>
  101340:	00000413          	li	s0,0
  101344:	01590db3          	add	s11,s2,s5
  101348:	00c0006f          	j	101354 <hexdump+0x170>
        for (size_t i = 0; i < 16; i++) {
  10134c:	00140413          	addi	s0,s0,1
  101350:	07840863          	beq	s0,s8,1013c0 <hexdump+0x1dc>
  101354:	03a47863          	bgeu	s0,s10,101384 <hexdump+0x1a0>
                print_hex8(p[off + i]);
  101358:	008d8533          	add	a0,s11,s0
  10135c:	00054a03          	lbu	s4,0(a0)
  101360:	004a5513          	srli	a0,s4,0x4
    uart_putchar(HEX[v >> 4]);
  101364:	00ab0533          	add	a0,s6,a0
  101368:	00054503          	lbu	a0,0(a0)
  10136c:	fffff097          	auipc	ra,0xfffff
  101370:	cc8080e7          	jalr	-824(ra) # 100034 <uart_putchar>
    uart_putchar(HEX[v & 0x0F]);
  101374:	00fa7513          	andi	a0,s4,15
  101378:	00ab0533          	add	a0,s6,a0
  10137c:	00054a03          	lbu	s4,0(a0)
  101380:	0140006f          	j	101394 <hexdump+0x1b0>
                uart_putchar(' ');
  101384:	02000513          	li	a0,32
  101388:	02000a13          	li	s4,32
  10138c:	fffff097          	auipc	ra,0xfffff
  101390:	ca8080e7          	jalr	-856(ra) # 100034 <uart_putchar>
  101394:	000a0513          	mv	a0,s4
  101398:	fffff097          	auipc	ra,0xfffff
  10139c:	c9c080e7          	jalr	-868(ra) # 100034 <uart_putchar>
            uart_putchar(' ');
  1013a0:	02000513          	li	a0,32
  1013a4:	fffff097          	auipc	ra,0xfffff
  1013a8:	c90080e7          	jalr	-880(ra) # 100034 <uart_putchar>
            if (i == 7) uart_putchar(' '); /* 8バイト境界でスペース追加 */
  1013ac:	fb7410e3          	bne	s0,s7,10134c <hexdump+0x168>
  1013b0:	02000513          	li	a0,32
  1013b4:	fffff097          	auipc	ra,0xfffff
  1013b8:	c80080e7          	jalr	-896(ra) # 100034 <uart_putchar>
  1013bc:	f91ff06f          	j	10134c <hexdump+0x168>
  1013c0:	01000513          	li	a0,16
        size_t line = (len - off > 16) ? 16 : (len - off);
  1013c4:	00ad6463          	bltu	s10,a0,1013cc <hexdump+0x1e8>
  1013c8:	01000d13          	li	s10,16
        uart_putchar(' ');
  1013cc:	02000513          	li	a0,32
  1013d0:	fffff097          	auipc	ra,0xfffff
  1013d4:	c64080e7          	jalr	-924(ra) # 100034 <uart_putchar>
        uart_putchar('|');
  1013d8:	07c00513          	li	a0,124
  1013dc:	fffff097          	auipc	ra,0xfffff
  1013e0:	c58080e7          	jalr	-936(ra) # 100034 <uart_putchar>
        for (size_t i = 0; i < line; i++) {
  1013e4:	e75486e3          	beq	s1,s5,101250 <hexdump+0x6c>
  1013e8:	001d3513          	seqz	a0,s10
  1013ec:	01aa85b3          	add	a1,s5,s10
  1013f0:	00a58533          	add	a0,a1,a0
  1013f4:	00a90433          	add	s0,s2,a0
  1013f8:	0180006f          	j	101410 <hexdump+0x22c>
            uart_putchar((c >= 0x20 && c <= 0x7e) ? (char)c : '.');
  1013fc:	0ff57513          	zext.b	a0,a0
  101400:	fffff097          	auipc	ra,0xfffff
  101404:	c34080e7          	jalr	-972(ra) # 100034 <uart_putchar>
        for (size_t i = 0; i < line; i++) {
  101408:	001d8d93          	addi	s11,s11,1
  10140c:	e48d82e3          	beq	s11,s0,101250 <hexdump+0x6c>
            uint8_t c = p[off + i];
  101410:	000dc503          	lbu	a0,0(s11)
            uart_putchar((c >= 0x20 && c <= 0x7e) ? (char)c : '.');
  101414:	fe050593          	addi	a1,a0,-32
  101418:	0ff5f593          	zext.b	a1,a1
  10141c:	ff95e0e3          	bltu	a1,s9,1013fc <hexdump+0x218>
  101420:	02e00513          	li	a0,46
  101424:	fd9ff06f          	j	1013fc <hexdump+0x218>
  101428:	03c12083          	lw	ra,60(sp)
  10142c:	03812403          	lw	s0,56(sp)
  101430:	03412483          	lw	s1,52(sp)
  101434:	03012903          	lw	s2,48(sp)
  101438:	02c12983          	lw	s3,44(sp)
  10143c:	02812a03          	lw	s4,40(sp)
  101440:	02412a83          	lw	s5,36(sp)
  101444:	02012b03          	lw	s6,32(sp)
  101448:	01c12b83          	lw	s7,28(sp)
  10144c:	01812c03          	lw	s8,24(sp)
  101450:	01412c83          	lw	s9,20(sp)
  101454:	01012d03          	lw	s10,16(sp)
  101458:	00c12d83          	lw	s11,12(sp)
    }
}
  10145c:	04010113          	addi	sp,sp,64
  101460:	00008067          	ret

00101464 <cmd_dump>:

void cmd_dump(int argc, const char **argv) {
  101464:	ff010113          	addi	sp,sp,-16
  101468:	00112623          	sw	ra,12(sp)
  10146c:	00812423          	sw	s0,8(sp)
  101470:	00000413          	li	s0,0
    const size_t    MAX_LEN      = 0x1000u;      /* 誤爆防止の上限 */

    uintptr_t addr = DEFAULT_BASE;
    size_t    len  = DEFAULT_LEN;

    if (argc >= 1 && argv && argv[0] && argv[0][0]) {
  101474:	06a05463          	blez	a0,1014dc <cmd_dump+0x78>
  101478:	06058263          	beqz	a1,1014dc <cmd_dump+0x78>
  10147c:	0005a683          	lw	a3,0(a1)
  101480:	04068c63          	beqz	a3,1014d8 <cmd_dump+0x74>
  101484:	0006c603          	lbu	a2,0(a3)
  101488:	04060863          	beqz	a2,1014d8 <cmd_dump+0x74>
    while (*s == ' ' || *s == '\t') s++;
  10148c:	00268693          	addi	a3,a3,2
  101490:	00900713          	li	a4,9
  101494:	02000793          	li	a5,32
  101498:	00c0006f          	j	1014a4 <cmd_dump+0x40>
  10149c:	fff6c603          	lbu	a2,-1(a3)
  1014a0:	00168693          	addi	a3,a3,1
  1014a4:	0ff67813          	zext.b	a6,a2
  1014a8:	fee80ae3          	beq	a6,a4,10149c <cmd_dump+0x38>
  1014ac:	fef808e3          	beq	a6,a5,10149c <cmd_dump+0x38>
  1014b0:	03000713          	li	a4,48
  1014b4:	08e81a63          	bne	a6,a4,101548 <cmd_dump+0xe4>
    if (s[0] == '0' && (s[1] == 'x' || s[1] == 'X')) s += 2;
  1014b8:	fff6c603          	lbu	a2,-1(a3)
  1014bc:	02066613          	ori	a2,a2,32
  1014c0:	07800713          	li	a4,120
  1014c4:	0ce61263          	bne	a2,a4,101588 <cmd_dump+0x124>
    if (!*s) return -1;
  1014c8:	0006c603          	lbu	a2,0(a3)
  1014cc:	0ff67713          	zext.b	a4,a2
  1014d0:	0c071063          	bnez	a4,101590 <cmd_dump+0x12c>
  1014d4:	0800006f          	j	101554 <cmd_dump+0xf0>
  1014d8:	00000413          	li	s0,0
  1014dc:	00200693          	li	a3,2
  1014e0:	10000613          	li	a2,256
  1014e4:	1ad54863          	blt	a0,a3,101694 <cmd_dump+0x230>
  1014e8:	1a058663          	beqz	a1,101694 <cmd_dump+0x230>
            s_printf("usage: dmp [offset_hex] [len_hex]\n");
            return;
        }
        addr = DEFAULT_BASE + offset;
    }
    if (argc >= 2 && argv && argv[1] && argv[1][0]) {
  1014ec:	0045a583          	lw	a1,4(a1)
  1014f0:	1a058263          	beqz	a1,101694 <cmd_dump+0x230>
  1014f4:	0005c503          	lbu	a0,0(a1)
  1014f8:	18050e63          	beqz	a0,101694 <cmd_dump+0x230>
    while (*s == ' ' || *s == '\t') s++;
  1014fc:	00258593          	addi	a1,a1,2
  101500:	00900693          	li	a3,9
  101504:	02000713          	li	a4,32
  101508:	00c0006f          	j	101514 <cmd_dump+0xb0>
  10150c:	fff5c503          	lbu	a0,-1(a1)
  101510:	00158593          	addi	a1,a1,1
  101514:	0ff57793          	zext.b	a5,a0
  101518:	fed78ae3          	beq	a5,a3,10150c <cmd_dump+0xa8>
  10151c:	fee788e3          	beq	a5,a4,10150c <cmd_dump+0xa8>
  101520:	03000693          	li	a3,48
  101524:	02d79e63          	bne	a5,a3,101560 <cmd_dump+0xfc>
    if (s[0] == '0' && (s[1] == 'x' || s[1] == 'X')) s += 2;
  101528:	fff5c503          	lbu	a0,-1(a1)
  10152c:	02056513          	ori	a0,a0,32
  101530:	07800693          	li	a3,120
  101534:	0cd51263          	bne	a0,a3,1015f8 <cmd_dump+0x194>
    if (!*s) return -1;
  101538:	0005c503          	lbu	a0,0(a1)
  10153c:	0ff57693          	zext.b	a3,a0
  101540:	0c069063          	bnez	a3,101600 <cmd_dump+0x19c>
  101544:	0280006f          	j	10156c <cmd_dump+0x108>
  101548:	ffe68693          	addi	a3,a3,-2
  10154c:	0ff67713          	zext.b	a4,a2
  101550:	04071063          	bnez	a4,101590 <cmd_dump+0x12c>
            s_printf("usage: dmp [offset_hex] [len_hex]\n");
  101554:	00103537          	lui	a0,0x103
  101558:	7b250513          	addi	a0,a0,1970 # 1037b2 <$d.3+0x1c4>
  10155c:	0180006f          	j	101574 <cmd_dump+0x110>
    if (!*s) return -1;
  101560:	ffe58593          	addi	a1,a1,-2
  101564:	0ff57693          	zext.b	a3,a0
  101568:	08069c63          	bnez	a3,101600 <cmd_dump+0x19c>
        uintptr_t lhex = 0;
        if (parse_hex(argv[1], &lhex) != 0) {
            s_printf("usage: dump [offset_hex] [len_hex]\n");
  10156c:	00103537          	lui	a0,0x103
  101570:	2ab50513          	addi	a0,a0,683 # 1032ab <boot_fat32_load_mem_file+0x513>
  101574:	00c12083          	lw	ra,12(sp)
  101578:	00812403          	lw	s0,8(sp)
  10157c:	01010113          	addi	sp,sp,16
  101580:	00000317          	auipc	t1,0x0
  101584:	8d030067          	jr	-1840(t1) # 100e50 <s_printf>
  101588:	ffe68693          	addi	a3,a3,-2
  10158c:	03000613          	li	a2,48
  101590:	00000413          	li	s0,0
        if (c >= '0' && c <= '9') d = (uint32_t)(c - '0');
  101594:	00168693          	addi	a3,a3,1
  101598:	00a00713          	li	a4,10
  10159c:	00600793          	li	a5,6
  1015a0:	00500813          	li	a6,5
  1015a4:	0200006f          	j	1015c4 <cmd_dump+0x160>
  1015a8:	0ff67293          	zext.b	t0,a2
    while (*s) {
  1015ac:	0006c603          	lbu	a2,0(a3)
  1015b0:	005888b3          	add	a7,a7,t0
        v = (v << 4) | d;
  1015b4:	00441413          	slli	s0,s0,0x4
  1015b8:	0088e433          	or	s0,a7,s0
    while (*s) {
  1015bc:	00168693          	addi	a3,a3,1
  1015c0:	f0060ee3          	beqz	a2,1014dc <cmd_dump+0x78>
        if (c >= '0' && c <= '9') d = (uint32_t)(c - '0');
  1015c4:	fd060893          	addi	a7,a2,-48
  1015c8:	0ff8f293          	zext.b	t0,a7
  1015cc:	fd000893          	li	a7,-48
  1015d0:	fce2ece3          	bltu	t0,a4,1015a8 <cmd_dump+0x144>
        else if (c >= 'a' && c <= 'f') d = 10u + (uint32_t)(c - 'a');
  1015d4:	f9f60893          	addi	a7,a2,-97
  1015d8:	0ff8f293          	zext.b	t0,a7
  1015dc:	fa900893          	li	a7,-87
  1015e0:	fcf2e4e3          	bltu	t0,a5,1015a8 <cmd_dump+0x144>
        else if (c >= 'A' && c <= 'F') d = 10u + (uint32_t)(c - 'A');
  1015e4:	fbf60893          	addi	a7,a2,-65
  1015e8:	0ff8f293          	zext.b	t0,a7
  1015ec:	fc900893          	li	a7,-55
  1015f0:	fa587ce3          	bgeu	a6,t0,1015a8 <cmd_dump+0x144>
  1015f4:	ee9ff06f          	j	1014dc <cmd_dump+0x78>
  1015f8:	ffe58593          	addi	a1,a1,-2
  1015fc:	03000513          	li	a0,48
  101600:	00000693          	li	a3,0
        if (c >= '0' && c <= '9') d = (uint32_t)(c - '0');
  101604:	00158593          	addi	a1,a1,1
  101608:	00a00713          	li	a4,10
  10160c:	00600793          	li	a5,6
  101610:	00500813          	li	a6,5
  101614:	0200006f          	j	101634 <cmd_dump+0x1d0>
  101618:	0ff57293          	zext.b	t0,a0
    while (*s) {
  10161c:	0005c503          	lbu	a0,0(a1)
  101620:	005888b3          	add	a7,a7,t0
        v = (v << 4) | d;
  101624:	00469693          	slli	a3,a3,0x4
  101628:	00d8e6b3          	or	a3,a7,a3
    while (*s) {
  10162c:	00158593          	addi	a1,a1,1
  101630:	02050a63          	beqz	a0,101664 <cmd_dump+0x200>
        if (c >= '0' && c <= '9') d = (uint32_t)(c - '0');
  101634:	fd050893          	addi	a7,a0,-48
  101638:	0ff8f293          	zext.b	t0,a7
  10163c:	fd000893          	li	a7,-48
  101640:	fce2ece3          	bltu	t0,a4,101618 <cmd_dump+0x1b4>
        else if (c >= 'a' && c <= 'f') d = 10u + (uint32_t)(c - 'a');
  101644:	f9f50893          	addi	a7,a0,-97
  101648:	0ff8f293          	zext.b	t0,a7
  10164c:	fa900893          	li	a7,-87
  101650:	fcf2e4e3          	bltu	t0,a5,101618 <cmd_dump+0x1b4>
        else if (c >= 'A' && c <= 'F') d = 10u + (uint32_t)(c - 'A');
  101654:	fbf50893          	addi	a7,a0,-65
  101658:	0ff8f293          	zext.b	t0,a7
  10165c:	fc900893          	li	a7,-55
  101660:	fa587ce3          	bgeu	a6,t0,101618 <cmd_dump+0x1b4>
            return;
        }
        len = (size_t)lhex;
    }

    if (len == 0) {
  101664:	02068863          	beqz	a3,101694 <cmd_dump+0x230>
  101668:	00001537          	lui	a0,0x1
  10166c:	00150513          	addi	a0,a0,1 # 1001 <$d.10+0x89>
  101670:	00068613          	mv	a2,a3
        len = DEFAULT_LEN;
    } else if (len > MAX_LEN) {
  101674:	02a6e063          	bltu	a3,a0,101694 <cmd_dump+0x230>
        s_printf("[info] len too big (>0x%X), round down to 0x%X\n",
  101678:	00103537          	lui	a0,0x103
  10167c:	57250513          	addi	a0,a0,1394 # 103572 <$d.1+0x26c>
  101680:	000015b7          	lui	a1,0x1
  101684:	00001637          	lui	a2,0x1
  101688:	fffff097          	auipc	ra,0xfffff
  10168c:	7c8080e7          	jalr	1992(ra) # 100e50 <s_printf>
  101690:	00001637          	lui	a2,0x1
               (unsigned)MAX_LEN, (unsigned)MAX_LEN);
        len = MAX_LEN;
    }

    hexdump((const void *)addr, len, addr);
  101694:	00040513          	mv	a0,s0
  101698:	00060593          	mv	a1,a2
  10169c:	00040613          	mv	a2,s0
  1016a0:	00c12083          	lw	ra,12(sp)
  1016a4:	00812403          	lw	s0,8(sp)
  1016a8:	01010113          	addi	sp,sp,16
  1016ac:	00000317          	auipc	t1,0x0
  1016b0:	b3830067          	jr	-1224(t1) # 1011e4 <hexdump>

001016b4 <sd_read_sector>:
}

// -------------------------------------------------------
int sd_read_sector(uint32_t sector, uint8_t *buf)
{
    return sd_read_once(sector, buf);
  1016b4:	00000317          	auipc	t1,0x0
  1016b8:	00830067          	jr	8(t1) # 1016bc <sd_read_once>

001016bc <sd_read_once>:
{
  1016bc:	10006637          	lui	a2,0x10006
  1016c0:	00400693          	li	a3,4
    PSC_SD_IF_CTRL = 0x04;
  1016c4:	00d62423          	sw	a3,8(a2) # 10006008 <_stack_top+0xfefa068>
  1016c8:	f9c00613          	li	a2,-100
    while (n--) {
  1016cc:	00160613          	addi	a2,a2,1
        __asm__ __volatile__("nop");
  1016d0:	00000013          	nop
    while (n--) {
  1016d4:	fe061ce3          	bnez	a2,1016cc <sd_read_once+0x10>
  1016d8:	10006637          	lui	a2,0x10006
    if ((PSC_SD_IF_CTRL & 0x04) == 0x00) {
  1016dc:	00862683          	lw	a3,8(a2) # 10006008 <_stack_top+0xfefa068>
  1016e0:	0046f693          	andi	a3,a3,4
  1016e4:	00069663          	bnez	a3,1016f0 <sd_read_once+0x34>
  1016e8:	00100693          	li	a3,1
        PSC_SD_IF_CTRL = 0x01;
  1016ec:	00d62423          	sw	a3,8(a2)
  1016f0:	ffff46b7          	lui	a3,0xffff4
  1016f4:	cb068693          	addi	a3,a3,-848 # ffff3cb0 <_stack_top+0xffee7d10>
    while (PSC_SD_IF_CTRL & 0x02) {
  1016f8:	00862703          	lw	a4,8(a2)
  1016fc:	00277713          	andi	a4,a4,2
  101700:	00070a63          	beqz	a4,101714 <sd_read_once+0x58>
        if (--timeout == 0) return -1;
  101704:	00168693          	addi	a3,a3,1
  101708:	fe0698e3          	bnez	a3,1016f8 <sd_read_once+0x3c>
  10170c:	fff00513          	li	a0,-1
}
  101710:	00008067          	ret
  101714:	f9c00613          	li	a2,-100
    while (n--) {
  101718:	00160613          	addi	a2,a2,1
        __asm__ __volatile__("nop");
  10171c:	00000013          	nop
  101720:	fe061ce3          	bnez	a2,101718 <sd_read_once+0x5c>
  101724:	10006637          	lui	a2,0x10006
    PSC_SD_SECTOR = sd_sector_address;
  101728:	00a62223          	sw	a0,4(a2) # 10006004 <_stack_top+0xfefa064>
  10172c:	00200513          	li	a0,2
    PSC_SD_IF_CTRL = 0x02;
  101730:	00a62423          	sw	a0,8(a2)
  101734:	f9c00513          	li	a0,-100
    while (n--) {
  101738:	00150513          	addi	a0,a0,1
        __asm__ __volatile__("nop");
  10173c:	00000013          	nop
  101740:	fe051ce3          	bnez	a0,101738 <sd_read_once+0x7c>
  101744:	ffff4537          	lui	a0,0xffff4
  101748:	cb050513          	addi	a0,a0,-848 # ffff3cb0 <_stack_top+0xffee7d10>
  10174c:	10006637          	lui	a2,0x10006
    while ((PSC_SD_IF_CTRL & 0x04) == 0) {
  101750:	00862683          	lw	a3,8(a2) # 10006008 <_stack_top+0xfefa068>
  101754:	0046f693          	andi	a3,a3,4
  101758:	00069a63          	bnez	a3,10176c <sd_read_once+0xb0>
        if (--timeout == 0) return -2;
  10175c:	00150513          	addi	a0,a0,1
  101760:	fe0518e3          	bnez	a0,101750 <sd_read_once+0x94>
  101764:	ffe00513          	li	a0,-2
}
  101768:	00008067          	ret
  10176c:	00000613          	li	a2,0
        __asm__ __volatile__("nop");
  101770:	00000013          	nop
  101774:	00000013          	nop
  101778:	00000013          	nop
  10177c:	00000013          	nop
  101780:	00000013          	nop
  101784:	00000013          	nop
  101788:	00000013          	nop
  10178c:	00000013          	nop
  101790:	00000013          	nop
  101794:	00000013          	nop
  101798:	00000013          	nop
  10179c:	00000013          	nop
  1017a0:	00000013          	nop
  1017a4:	00000013          	nop
  1017a8:	00000013          	nop
  1017ac:	00000013          	nop
  1017b0:	00000013          	nop
  1017b4:	00000013          	nop
  1017b8:	00000013          	nop
  1017bc:	00000013          	nop
  1017c0:	00000013          	nop
  1017c4:	00000013          	nop
  1017c8:	00000013          	nop
  1017cc:	00000013          	nop
  1017d0:	00000013          	nop
  1017d4:	00000013          	nop
  1017d8:	00000013          	nop
  1017dc:	00000013          	nop
  1017e0:	00000013          	nop
  1017e4:	00000013          	nop
  1017e8:	00000013          	nop
  1017ec:	00000013          	nop
  1017f0:	00000013          	nop
  1017f4:	00000013          	nop
  1017f8:	00000013          	nop
  1017fc:	00000013          	nop
  101800:	00000013          	nop
  101804:	00000013          	nop
  101808:	00000013          	nop
  10180c:	00000013          	nop
  101810:	00000013          	nop
  101814:	00000013          	nop
  101818:	00000013          	nop
  10181c:	00000013          	nop
  101820:	00000013          	nop
  101824:	00000013          	nop
  101828:	00000013          	nop
  10182c:	00000013          	nop
  101830:	00000013          	nop
  101834:	00000013          	nop
  101838:	ffff4537          	lui	a0,0xffff4
  10183c:	cb050693          	addi	a3,a0,-848 # ffff3cb0 <_stack_top+0xffee7d10>
  101840:	10006737          	lui	a4,0x10006
  101844:	20000793          	li	a5,512
  101848:	00068513          	mv	a0,a3
        while (PSC_SD_IF_CTRL & (1 << 3)) {
  10184c:	00872803          	lw	a6,8(a4) # 10006008 <_stack_top+0xfefa068>
  101850:	00887813          	andi	a6,a6,8
  101854:	00080863          	beqz	a6,101864 <sd_read_once+0x1a8>
            if (--timeout == 0) return -3;
  101858:	00150513          	addi	a0,a0,1
  10185c:	fe0518e3          	bnez	a0,10184c <sd_read_once+0x190>
  101860:	0200006f          	j	101880 <sd_read_once+0x1c4>
        buf[i] = (unsigned char)(PSC_SD_ADDR & 0xFF);
  101864:	00072803          	lw	a6,0(a4)
  101868:	00000513          	li	a0,0
  10186c:	00c588b3          	add	a7,a1,a2
    for (int i = 0; i < 512; i++) {
  101870:	00160613          	addi	a2,a2,1
        buf[i] = (unsigned char)(PSC_SD_ADDR & 0xFF);
  101874:	01088023          	sb	a6,0(a7)
    for (int i = 0; i < 512; i++) {
  101878:	fcf618e3          	bne	a2,a5,101848 <sd_read_once+0x18c>
}
  10187c:	00008067          	ret
  101880:	ffd00513          	li	a0,-3
  101884:	00008067          	ret

00101888 <s_call_sdcard_read_api>:
}

// -------------------------------------------------------
// SDカードREAD実行関数
void s_call_sdcard_read_api(uint32_t sd_sector_address)
{
  101888:	dd010113          	addi	sp,sp,-560
  10188c:	22112623          	sw	ra,556(sp)
  101890:	22812423          	sw	s0,552(sp)
  101894:	22912223          	sw	s1,548(sp)
  101898:	23212023          	sw	s2,544(sp)
  10189c:	21312e23          	sw	s3,540(sp)
  1018a0:	21412c23          	sw	s4,536(sp)
  1018a4:	21512a23          	sw	s5,532(sp)
  1018a8:	21612823          	sw	s6,528(sp)
  1018ac:	21712623          	sw	s7,524(sp)
  1018b0:	00050413          	mv	s0,a0
  1018b4:	00000493          	li	s1,0
  1018b8:	00001537          	lui	a0,0x1
  1018bc:	02150a13          	addi	s4,a0,33 # 1021 <$d.10+0xa9>
    unsigned char buf[512];

    int retry_max = 3;
    int success = 0;

    for (int retry = 0; retry < retry_max; retry++) {
  1018c0:	20c10a93          	addi	s5,sp,524
  1018c4:	10006b37          	lui	s6,0x10006
  1018c8:	00103537          	lui	a0,0x103
  1018cc:	42750913          	addi	s2,a0,1063 # 103427 <$d.1+0x121>
  1018d0:	00300b93          	li	s7,3
  1018d4:	00103537          	lui	a0,0x103
  1018d8:	30650993          	addi	s3,a0,774 # 103306 <$d.1>
  1018dc:	01c0006f          	j	1018f8 <s_call_sdcard_read_api+0x70>

        if (sd_read_once(sd_sector_address, buf) != 0) {
            s_printf("READ FAIL retry=%d\n", retry);
  1018e0:	00098513          	mv	a0,s3
  1018e4:	00048593          	mv	a1,s1
  1018e8:	fffff097          	auipc	ra,0xfffff
  1018ec:	568080e7          	jalr	1384(ra) # 100e50 <s_printf>
    for (int retry = 0; retry < retry_max; retry++) {
  1018f0:	00148493          	addi	s1,s1,1
  1018f4:	13748063          	beq	s1,s7,101a14 <s_call_sdcard_read_api+0x18c>
        if (sd_read_once(sd_sector_address, buf) != 0) {
  1018f8:	00c10593          	addi	a1,sp,12
  1018fc:	00040513          	mv	a0,s0
  101900:	00000097          	auipc	ra,0x0
  101904:	dbc080e7          	jalr	-580(ra) # 1016bc <sd_read_once>
  101908:	fc051ce3          	bnez	a0,1018e0 <s_call_sdcard_read_api+0x58>
            continue;
        }

        // CRC HW
        uint32_t ctrl = PSC_SD_IF_CTRL;
  10190c:	008b2683          	lw	a3,8(s6) # 10006008 <_stack_top+0xfefa068>
  101910:	00000593          	li	a1,0
  101914:	00c10513          	addi	a0,sp,12
        crc ^= (uint16_t)buf[i] << 8;
  101918:	00054603          	lbu	a2,0(a0)
  10191c:	00861613          	slli	a2,a2,0x8
  101920:	00b645b3          	xor	a1,a2,a1
  101924:	01059613          	slli	a2,a1,0x10
  101928:	41065613          	srai	a2,a2,0x10
            crc = (crc & 0x8000) ? (crc << 1) ^ 0x1021 : (crc << 1);
  10192c:	01159713          	slli	a4,a1,0x11
  101930:	41075713          	srai	a4,a4,0x10
  101934:	00159793          	slli	a5,a1,0x1
  101938:	00f65613          	srli	a2,a2,0xf
  10193c:	01467633          	and	a2,a2,s4
  101940:	00c7c633          	xor	a2,a5,a2
  101944:	00161793          	slli	a5,a2,0x1
  101948:	01259813          	slli	a6,a1,0x12
  10194c:	41085813          	srai	a6,a6,0x10
  101950:	00f75713          	srli	a4,a4,0xf
  101954:	01477733          	and	a4,a4,s4
  101958:	00e7c733          	xor	a4,a5,a4
  10195c:	00171793          	slli	a5,a4,0x1
  101960:	01359593          	slli	a1,a1,0x13
  101964:	4105d593          	srai	a1,a1,0x10
  101968:	00f85813          	srli	a6,a6,0xf
  10196c:	01487833          	and	a6,a6,s4
  101970:	0107c7b3          	xor	a5,a5,a6
  101974:	01361613          	slli	a2,a2,0x13
  101978:	41065613          	srai	a2,a2,0x10
  10197c:	00179813          	slli	a6,a5,0x1
  101980:	00f5d593          	srli	a1,a1,0xf
  101984:	0145f5b3          	and	a1,a1,s4
  101988:	00b845b3          	xor	a1,a6,a1
  10198c:	01371713          	slli	a4,a4,0x13
  101990:	41075713          	srai	a4,a4,0x10
  101994:	00f65613          	srli	a2,a2,0xf
  101998:	01467633          	and	a2,a2,s4
  10199c:	00161613          	slli	a2,a2,0x1
  1019a0:	00259813          	slli	a6,a1,0x2
  1019a4:	01379793          	slli	a5,a5,0x13
  1019a8:	4107d793          	srai	a5,a5,0x10
  1019ac:	00f75713          	srli	a4,a4,0xf
  1019b0:	01477733          	and	a4,a4,s4
  1019b4:	00e64633          	xor	a2,a2,a4
  1019b8:	00c84633          	xor	a2,a6,a2
  1019bc:	01359593          	slli	a1,a1,0x13
  1019c0:	4105d593          	srai	a1,a1,0x10
  1019c4:	00f7d793          	srli	a5,a5,0xf
  1019c8:	0147f733          	and	a4,a5,s4
  1019cc:	00261613          	slli	a2,a2,0x2
  1019d0:	00171713          	slli	a4,a4,0x1
  1019d4:	00e64633          	xor	a2,a2,a4
  1019d8:	00f5d593          	srli	a1,a1,0xf
  1019dc:	0145f5b3          	and	a1,a1,s4
    for (int i = 0; i < 512; i++) {
  1019e0:	00150513          	addi	a0,a0,1
            crc = (crc & 0x8000) ? (crc << 1) ^ 0x1021 : (crc << 1);
  1019e4:	00b645b3          	xor	a1,a2,a1
    for (int i = 0; i < 512; i++) {
  1019e8:	f35518e3          	bne	a0,s5,101918 <s_call_sdcard_read_api+0x90>
        uint16_t crc_hw = ((ctrl >> 24) & 0xFF) << 8 |
  1019ec:	0106d693          	srli	a3,a3,0x10
                          ((ctrl >> 16) & 0xFF);

        // CRC SW
        uint16_t crc = sd_crc16(buf);

        if (crc == crc_hw) {
  1019f0:	01059593          	slli	a1,a1,0x10
  1019f4:	0105d613          	srli	a2,a1,0x10
  1019f8:	02c68863          	beq	a3,a2,101a28 <s_call_sdcard_read_api+0x1a0>
            s_printf("CRC OK (retry=%d)\n", retry);
            success = 1;
            break;
        } else {
            s_printf("CRC NG retry=%d (calc=%x hw=%x)\n",
  1019fc:	00090513          	mv	a0,s2
  101a00:	00048593          	mv	a1,s1
  101a04:	fffff097          	auipc	ra,0xfffff
  101a08:	44c080e7          	jalr	1100(ra) # 100e50 <s_printf>
    for (int retry = 0; retry < retry_max; retry++) {
  101a0c:	00148493          	addi	s1,s1,1
  101a10:	ef7494e3          	bne	s1,s7,1018f8 <s_call_sdcard_read_api+0x70>
                     retry, crc, crc_hw);
        }
    }

    if (!success) {
        s_printf("CRC FAILED (final)\n");
  101a14:	00103537          	lui	a0,0x103
  101a18:	23750513          	addi	a0,a0,567 # 103237 <boot_fat32_load_mem_file+0x49f>
  101a1c:	fffff097          	auipc	ra,0xfffff
  101a20:	434080e7          	jalr	1076(ra) # 100e50 <s_printf>
  101a24:	0180006f          	j	101a3c <s_call_sdcard_read_api+0x1b4>
            s_printf("CRC OK (retry=%d)\n", retry);
  101a28:	00103537          	lui	a0,0x103
  101a2c:	39f50513          	addi	a0,a0,927 # 10339f <$d.1+0x99>
  101a30:	00048593          	mv	a1,s1
  101a34:	fffff097          	auipc	ra,0xfffff
  101a38:	41c080e7          	jalr	1052(ra) # 100e50 <s_printf>
  101a3c:	00000413          	li	s0,0
  101a40:	00c10493          	addi	s1,sp,12
  101a44:	00103537          	lui	a0,0x103
  101a48:	2cf50913          	addi	s2,a0,719 # 1032cf <boot_fat32_load_mem_file+0x537>
  101a4c:	00f00993          	li	s3,15
  101a50:	20000a13          	li	s4,512
  101a54:	00c0006f          	j	101a60 <s_call_sdcard_read_api+0x1d8>
    }

    // ---- dump（常に実行）----
    const char hex[] = "0123456789ABCDEF";

    for (int i = 0; i < 512; i++) {
  101a58:	00140413          	addi	s0,s0,1
  101a5c:	05440c63          	beq	s0,s4,101ab4 <s_call_sdcard_read_api+0x22c>
        unsigned char d = buf[i];
  101a60:	00848533          	add	a0,s1,s0
  101a64:	00054a83          	lbu	s5,0(a0)
  101a68:	004ad513          	srli	a0,s5,0x4
        putchar(hex[(d >> 4) & 0xF]);
  101a6c:	00a90533          	add	a0,s2,a0
  101a70:	00054503          	lbu	a0,0(a0)
  101a74:	ffffe097          	auipc	ra,0xffffe
  101a78:	5a0080e7          	jalr	1440(ra) # 100014 <putchar>
        putchar(hex[d & 0xF]);
  101a7c:	00faf513          	andi	a0,s5,15
  101a80:	00a90533          	add	a0,s2,a0
  101a84:	00054503          	lbu	a0,0(a0)
  101a88:	ffffe097          	auipc	ra,0xffffe
  101a8c:	58c080e7          	jalr	1420(ra) # 100014 <putchar>
        putchar(' ');
  101a90:	02000513          	li	a0,32
  101a94:	ffffe097          	auipc	ra,0xffffe
  101a98:	580080e7          	jalr	1408(ra) # 100014 <putchar>
        if ((i & 15) == 15) putchar('\n');
  101a9c:	00f47513          	andi	a0,s0,15
  101aa0:	fb351ce3          	bne	a0,s3,101a58 <s_call_sdcard_read_api+0x1d0>
  101aa4:	00a00513          	li	a0,10
  101aa8:	ffffe097          	auipc	ra,0xffffe
  101aac:	56c080e7          	jalr	1388(ra) # 100014 <putchar>
  101ab0:	fa9ff06f          	j	101a58 <s_call_sdcard_read_api+0x1d0>
  101ab4:	22c12083          	lw	ra,556(sp)
  101ab8:	22812403          	lw	s0,552(sp)
  101abc:	22412483          	lw	s1,548(sp)
  101ac0:	22012903          	lw	s2,544(sp)
  101ac4:	21c12983          	lw	s3,540(sp)
  101ac8:	21812a03          	lw	s4,536(sp)
  101acc:	21412a83          	lw	s5,532(sp)
  101ad0:	21012b03          	lw	s6,528(sp)
  101ad4:	20c12b83          	lw	s7,524(sp)
    }
}
  101ad8:	23010113          	addi	sp,sp,560
  101adc:	00008067          	ret

00101ae0 <s_call_sdcard_write_api>:
// -------------------------------------------------------
// SDカードWRITE実行関数
// TBD
void s_call_sdcard_write_api(uint32_t sd_sector_address)
{
  101ae0:	dd010113          	addi	sp,sp,-560
  101ae4:	22112623          	sw	ra,556(sp)
  101ae8:	22812423          	sw	s0,552(sp)
  101aec:	22912223          	sw	s1,548(sp)
  101af0:	23212023          	sw	s2,544(sp)
  101af4:	21312e23          	sw	s3,540(sp)
  101af8:	21412c23          	sw	s4,536(sp)
  101afc:	21512a23          	sw	s5,532(sp)
  101b00:	21612823          	sw	s6,528(sp)
  101b04:	21712623          	sw	s7,524(sp)
  101b08:	00050413          	mv	s0,a0
  101b0c:	00000493          	li	s1,0
  101b10:	00001537          	lui	a0,0x1
  101b14:	02150a13          	addi	s4,a0,33 # 1021 <$d.10+0xa9>
    unsigned char buf[512];

    int retry_max = 3;
    int success = 0;

    for (int retry = 0; retry < retry_max; retry++) {
  101b18:	20c10a93          	addi	s5,sp,524
  101b1c:	10006b37          	lui	s6,0x10006
  101b20:	00103537          	lui	a0,0x103
  101b24:	42750913          	addi	s2,a0,1063 # 103427 <$d.1+0x121>
  101b28:	00300b93          	li	s7,3
  101b2c:	00103537          	lui	a0,0x103
  101b30:	30650993          	addi	s3,a0,774 # 103306 <$d.1>
  101b34:	01c0006f          	j	101b50 <s_call_sdcard_write_api+0x70>

        if (sd_read_once(sd_sector_address, buf) != 0) {
            s_printf("READ FAIL retry=%d\n", retry);
  101b38:	00098513          	mv	a0,s3
  101b3c:	00048593          	mv	a1,s1
  101b40:	fffff097          	auipc	ra,0xfffff
  101b44:	310080e7          	jalr	784(ra) # 100e50 <s_printf>
    for (int retry = 0; retry < retry_max; retry++) {
  101b48:	00148493          	addi	s1,s1,1
  101b4c:	13748063          	beq	s1,s7,101c6c <s_call_sdcard_write_api+0x18c>
        if (sd_read_once(sd_sector_address, buf) != 0) {
  101b50:	00c10593          	addi	a1,sp,12
  101b54:	00040513          	mv	a0,s0
  101b58:	00000097          	auipc	ra,0x0
  101b5c:	b64080e7          	jalr	-1180(ra) # 1016bc <sd_read_once>
  101b60:	fc051ce3          	bnez	a0,101b38 <s_call_sdcard_write_api+0x58>
            continue;
        }

        // CRC HW
        uint32_t ctrl = PSC_SD_IF_CTRL;
  101b64:	008b2683          	lw	a3,8(s6) # 10006008 <_stack_top+0xfefa068>
  101b68:	00000593          	li	a1,0
  101b6c:	00c10513          	addi	a0,sp,12
        crc ^= (uint16_t)buf[i] << 8;
  101b70:	00054603          	lbu	a2,0(a0)
  101b74:	00861613          	slli	a2,a2,0x8
  101b78:	00b645b3          	xor	a1,a2,a1
  101b7c:	01059613          	slli	a2,a1,0x10
  101b80:	41065613          	srai	a2,a2,0x10
            crc = (crc & 0x8000) ? (crc << 1) ^ 0x1021 : (crc << 1);
  101b84:	01159713          	slli	a4,a1,0x11
  101b88:	41075713          	srai	a4,a4,0x10
  101b8c:	00159793          	slli	a5,a1,0x1
  101b90:	00f65613          	srli	a2,a2,0xf
  101b94:	01467633          	and	a2,a2,s4
  101b98:	00c7c633          	xor	a2,a5,a2
  101b9c:	00161793          	slli	a5,a2,0x1
  101ba0:	01259813          	slli	a6,a1,0x12
  101ba4:	41085813          	srai	a6,a6,0x10
  101ba8:	00f75713          	srli	a4,a4,0xf
  101bac:	01477733          	and	a4,a4,s4
  101bb0:	00e7c733          	xor	a4,a5,a4
  101bb4:	00171793          	slli	a5,a4,0x1
  101bb8:	01359593          	slli	a1,a1,0x13
  101bbc:	4105d593          	srai	a1,a1,0x10
  101bc0:	00f85813          	srli	a6,a6,0xf
  101bc4:	01487833          	and	a6,a6,s4
  101bc8:	0107c7b3          	xor	a5,a5,a6
  101bcc:	01361613          	slli	a2,a2,0x13
  101bd0:	41065613          	srai	a2,a2,0x10
  101bd4:	00179813          	slli	a6,a5,0x1
  101bd8:	00f5d593          	srli	a1,a1,0xf
  101bdc:	0145f5b3          	and	a1,a1,s4
  101be0:	00b845b3          	xor	a1,a6,a1
  101be4:	01371713          	slli	a4,a4,0x13
  101be8:	41075713          	srai	a4,a4,0x10
  101bec:	00f65613          	srli	a2,a2,0xf
  101bf0:	01467633          	and	a2,a2,s4
  101bf4:	00161613          	slli	a2,a2,0x1
  101bf8:	00259813          	slli	a6,a1,0x2
  101bfc:	01379793          	slli	a5,a5,0x13
  101c00:	4107d793          	srai	a5,a5,0x10
  101c04:	00f75713          	srli	a4,a4,0xf
  101c08:	01477733          	and	a4,a4,s4
  101c0c:	00e64633          	xor	a2,a2,a4
  101c10:	00c84633          	xor	a2,a6,a2
  101c14:	01359593          	slli	a1,a1,0x13
  101c18:	4105d593          	srai	a1,a1,0x10
  101c1c:	00f7d793          	srli	a5,a5,0xf
  101c20:	0147f733          	and	a4,a5,s4
  101c24:	00261613          	slli	a2,a2,0x2
  101c28:	00171713          	slli	a4,a4,0x1
  101c2c:	00e64633          	xor	a2,a2,a4
  101c30:	00f5d593          	srli	a1,a1,0xf
  101c34:	0145f5b3          	and	a1,a1,s4
    for (int i = 0; i < 512; i++) {
  101c38:	00150513          	addi	a0,a0,1
            crc = (crc & 0x8000) ? (crc << 1) ^ 0x1021 : (crc << 1);
  101c3c:	00b645b3          	xor	a1,a2,a1
    for (int i = 0; i < 512; i++) {
  101c40:	f35518e3          	bne	a0,s5,101b70 <s_call_sdcard_write_api+0x90>
        uint16_t crc_hw = ((ctrl >> 24) & 0xFF) << 8 |
  101c44:	0106d693          	srli	a3,a3,0x10
                          ((ctrl >> 16) & 0xFF);

        // CRC SW
        uint16_t crc = sd_crc16(buf);

        if (crc == crc_hw) {
  101c48:	01059593          	slli	a1,a1,0x10
  101c4c:	0105d613          	srli	a2,a1,0x10
  101c50:	02c68863          	beq	a3,a2,101c80 <s_call_sdcard_write_api+0x1a0>
            s_printf("CRC OK (retry=%d)\n", retry);
            success = 1;
            break;
        } else {
            s_printf("CRC NG retry=%d (calc=%x hw=%x)\n",
  101c54:	00090513          	mv	a0,s2
  101c58:	00048593          	mv	a1,s1
  101c5c:	fffff097          	auipc	ra,0xfffff
  101c60:	1f4080e7          	jalr	500(ra) # 100e50 <s_printf>
    for (int retry = 0; retry < retry_max; retry++) {
  101c64:	00148493          	addi	s1,s1,1
  101c68:	ef7494e3          	bne	s1,s7,101b50 <s_call_sdcard_write_api+0x70>
                     retry, crc, crc_hw);
        }
    }

    if (!success) {
        s_printf("CRC FAILED (final)\n");
  101c6c:	00103537          	lui	a0,0x103
  101c70:	23750513          	addi	a0,a0,567 # 103237 <boot_fat32_load_mem_file+0x49f>
  101c74:	fffff097          	auipc	ra,0xfffff
  101c78:	1dc080e7          	jalr	476(ra) # 100e50 <s_printf>
  101c7c:	0180006f          	j	101c94 <s_call_sdcard_write_api+0x1b4>
            s_printf("CRC OK (retry=%d)\n", retry);
  101c80:	00103537          	lui	a0,0x103
  101c84:	39f50513          	addi	a0,a0,927 # 10339f <$d.1+0x99>
  101c88:	00048593          	mv	a1,s1
  101c8c:	fffff097          	auipc	ra,0xfffff
  101c90:	1c4080e7          	jalr	452(ra) # 100e50 <s_printf>
  101c94:	00000413          	li	s0,0
  101c98:	00c10493          	addi	s1,sp,12
  101c9c:	00103537          	lui	a0,0x103
  101ca0:	2cf50913          	addi	s2,a0,719 # 1032cf <boot_fat32_load_mem_file+0x537>
  101ca4:	00f00993          	li	s3,15
  101ca8:	20000a13          	li	s4,512
  101cac:	00c0006f          	j	101cb8 <s_call_sdcard_write_api+0x1d8>
    }

    // ---- dump（常に実行）----
    const char hex[] = "0123456789ABCDEF";

    for (int i = 0; i < 512; i++) {
  101cb0:	00140413          	addi	s0,s0,1
  101cb4:	05440c63          	beq	s0,s4,101d0c <s_call_sdcard_write_api+0x22c>
        unsigned char d = buf[i];
  101cb8:	00848533          	add	a0,s1,s0
  101cbc:	00054a83          	lbu	s5,0(a0)
  101cc0:	004ad513          	srli	a0,s5,0x4
        putchar(hex[(d >> 4) & 0xF]);
  101cc4:	00a90533          	add	a0,s2,a0
  101cc8:	00054503          	lbu	a0,0(a0)
  101ccc:	ffffe097          	auipc	ra,0xffffe
  101cd0:	348080e7          	jalr	840(ra) # 100014 <putchar>
        putchar(hex[d & 0xF]);
  101cd4:	00faf513          	andi	a0,s5,15
  101cd8:	00a90533          	add	a0,s2,a0
  101cdc:	00054503          	lbu	a0,0(a0)
  101ce0:	ffffe097          	auipc	ra,0xffffe
  101ce4:	334080e7          	jalr	820(ra) # 100014 <putchar>
        putchar(' ');
  101ce8:	02000513          	li	a0,32
  101cec:	ffffe097          	auipc	ra,0xffffe
  101cf0:	328080e7          	jalr	808(ra) # 100014 <putchar>
        if ((i & 15) == 15) putchar('\n');
  101cf4:	00f47513          	andi	a0,s0,15
  101cf8:	fb351ce3          	bne	a0,s3,101cb0 <s_call_sdcard_write_api+0x1d0>
  101cfc:	00a00513          	li	a0,10
  101d00:	ffffe097          	auipc	ra,0xffffe
  101d04:	314080e7          	jalr	788(ra) # 100014 <putchar>
  101d08:	fa9ff06f          	j	101cb0 <s_call_sdcard_write_api+0x1d0>
  101d0c:	22c12083          	lw	ra,556(sp)
  101d10:	22812403          	lw	s0,552(sp)
  101d14:	22412483          	lw	s1,548(sp)
  101d18:	22012903          	lw	s2,544(sp)
  101d1c:	21c12983          	lw	s3,540(sp)
  101d20:	21812a03          	lw	s4,536(sp)
  101d24:	21412a83          	lw	s5,532(sp)
  101d28:	21012b03          	lw	s6,528(sp)
  101d2c:	20c12b83          	lw	s7,524(sp)
    }
  101d30:	23010113          	addi	sp,sp,560
  101d34:	00008067          	ret

00101d38 <boot_fat32_cluster_to_lba>:

    return 1;
}

uint32_t boot_fat32_cluster_to_lba(uint32_t cluster)
{
  101d38:	ff010113          	addi	sp,sp,-16
  101d3c:	00112623          	sw	ra,12(sp)
  101d40:	00812423          	sw	s0,8(sp)
    uint32_t lba;
    uint32_t n;

    //s_printf("FAT32: c2l enter\n");

    lba = g_data_begin_lba;
  101d44:	001045b7          	lui	a1,0x104
  101d48:	b845a403          	lw	s0,-1148(a1) # 103b84 <g_data_begin_lba>
  101d4c:	00100593          	li	a1,1

    if (cluster < 2u) {
  101d50:	00a5ec63          	bltu	a1,a0,101d68 <boot_fat32_cluster_to_lba+0x30>
        s_printf("FAT32: c2l bad\n");
  101d54:	00103537          	lui	a0,0x103
  101d58:	5ee50513          	addi	a0,a0,1518 # 1035ee <$d.3>
  101d5c:	fffff097          	auipc	ra,0xfffff
  101d60:	0f4080e7          	jalr	244(ra) # 100e50 <s_printf>
  101d64:	01c0006f          	j	101d80 <boot_fat32_cluster_to_lba+0x48>
        return lba;
    }

    //s_printf("FAT32: c2l sub\n");

    n = cluster - 2u;
  101d68:	ffe50513          	addi	a0,a0,-2

    //s_printf("FAT32: c2l loop\n");

    while (n > 0u) {
  101d6c:	00050a63          	beqz	a0,101d80 <boot_fat32_cluster_to_lba+0x48>
  101d70:	001045b7          	lui	a1,0x104
  101d74:	b885a583          	lw	a1,-1144(a1) # 103b88 <g_sectors_per_cluster>
  101d78:	02a58533          	mul	a0,a1,a0
  101d7c:	00a40433          	add	s0,s0,a0
    }

    //s_printf("FAT32: c2l done\n");

    return lba;
}
  101d80:	00040513          	mv	a0,s0
  101d84:	00c12083          	lw	ra,12(sp)
  101d88:	00812403          	lw	s0,8(sp)
  101d8c:	01010113          	addi	sp,sp,16
  101d90:	00008067          	ret

00101d94 <boot_fat32_mount>:

int boot_fat32_mount(boot_sd_read_sector_fn read_sector)
{
  101d94:	fc010113          	addi	sp,sp,-64
  101d98:	02112e23          	sw	ra,60(sp)
  101d9c:	02812c23          	sw	s0,56(sp)
  101da0:	02912a23          	sw	s1,52(sp)
  101da4:	03212823          	sw	s2,48(sp)
  101da8:	03312623          	sw	s3,44(sp)
  101dac:	03412423          	sw	s4,40(sp)
  101db0:	03512223          	sw	s5,36(sp)
  101db4:	03612023          	sw	s6,32(sp)
  101db8:	01712e23          	sw	s7,28(sp)
  101dbc:	01812c23          	sw	s8,24(sp)
  101dc0:	01912a23          	sw	s9,20(sp)
  101dc4:	01a12823          	sw	s10,16(sp)
  101dc8:	01b12623          	sw	s11,12(sp)
  101dcc:	00050493          	mv	s1,a0
    uint32_t bytes_per_sector;
    uint32_t reserved_sector_count;
    uint32_t fat_count;
    uint32_t fat_size;

    s_printf("FAT32: mount enter\n");
  101dd0:	00104537          	lui	a0,0x104
  101dd4:	85550513          	addi	a0,a0,-1963 # 103855 <print_hex8.HEX+0x11>
  101dd8:	fffff097          	auipc	ra,0xfffff
  101ddc:	078080e7          	jalr	120(ra) # 100e50 <s_printf>

    g_read_sector = read_sector;
  101de0:	00104937          	lui	s2,0x104
  101de4:	b8992623          	sw	s1,-1140(s2) # 103b8c <g_read_sector>
  101de8:	fff00413          	li	s0,-1

    if (g_read_sector == 0) {
  101dec:	02048e63          	beqz	s1,101e28 <boot_fat32_mount+0x94>
        s_printf("FAT32: read_sector null\n");
        return -1;
    }

    s_printf("FAT32: read LBA0\n");
  101df0:	00103537          	lui	a0,0x103
  101df4:	7d550513          	addi	a0,a0,2005 # 1037d5 <$d.3+0x1e7>
  101df8:	fffff097          	auipc	ra,0xfffff
  101dfc:	058080e7          	jalr	88(ra) # 100e50 <s_printf>

    if (g_read_sector(0, buf)) {
  101e00:	b8c92603          	lw	a2,-1140(s2)
  101e04:	00108537          	lui	a0,0x108
  101e08:	ba050493          	addi	s1,a0,-1120 # 107ba0 <fat32_buf>
  101e0c:	00000513          	li	a0,0
  101e10:	00048593          	mv	a1,s1
  101e14:	000600e7          	jalr	a2
  101e18:	06050063          	beqz	a0,101e78 <boot_fat32_mount+0xe4>
  101e1c:	00103537          	lui	a0,0x103
  101e20:	5fe50513          	addi	a0,a0,1534 # 1035fe <$d.3+0x10>
  101e24:	00c0006f          	j	101e30 <boot_fat32_mount+0x9c>
  101e28:	00103537          	lui	a0,0x103
  101e2c:	5a250513          	addi	a0,a0,1442 # 1035a2 <$d.1+0x29c>
  101e30:	fffff097          	auipc	ra,0xfffff
  101e34:	020080e7          	jalr	32(ra) # 100e50 <s_printf>
    }

    s_printf("FAT32: mount ok\n");

    return 0;
}
  101e38:	00040513          	mv	a0,s0
  101e3c:	03c12083          	lw	ra,60(sp)
  101e40:	03812403          	lw	s0,56(sp)
  101e44:	03412483          	lw	s1,52(sp)
  101e48:	03012903          	lw	s2,48(sp)
  101e4c:	02c12983          	lw	s3,44(sp)
  101e50:	02812a03          	lw	s4,40(sp)
  101e54:	02412a83          	lw	s5,36(sp)
  101e58:	02012b03          	lw	s6,32(sp)
  101e5c:	01c12b83          	lw	s7,28(sp)
  101e60:	01812c03          	lw	s8,24(sp)
  101e64:	01412c83          	lw	s9,20(sp)
  101e68:	01012d03          	lw	s10,16(sp)
  101e6c:	00c12d83          	lw	s11,12(sp)
  101e70:	04010113          	addi	sp,sp,64
  101e74:	00008067          	ret
    s_printf("FAT32: read LBA0 ok\n");
  101e78:	00103537          	lui	a0,0x103
  101e7c:	3fc50513          	addi	a0,a0,1020 # 1033fc <$d.1+0xf6>
  101e80:	fffff097          	auipc	ra,0xfffff
  101e84:	fd0080e7          	jalr	-48(ra) # 100e50 <s_printf>
    if (b[510] != 0x55 || b[511] != 0xAA)
  101e88:	1fe4c583          	lbu	a1,510(s1)
  101e8c:	00103537          	lui	a0,0x103
  101e90:	05500613          	li	a2,85
  101e94:	4b450513          	addi	a0,a0,1204 # 1034b4 <$d.1+0x1ae>
  101e98:	f8c59ce3          	bne	a1,a2,101e30 <boot_fat32_mount+0x9c>
  101e9c:	1ff4c583          	lbu	a1,511(s1)
  101ea0:	0aa00613          	li	a2,170
  101ea4:	f8c596e3          	bne	a1,a2,101e30 <boot_fat32_mount+0x9c>
    return (uint16_t)p[0] |
  101ea8:	00108537          	lui	a0,0x108
  101eac:	ba050513          	addi	a0,a0,-1120 # 107ba0 <fat32_buf>
           ((uint16_t)p[1] << 8);
  101eb0:	00c54583          	lbu	a1,12(a0)
    return (uint16_t)p[0] |
  101eb4:	00b54603          	lbu	a2,11(a0)
           ((uint16_t)p[1] << 8);
  101eb8:	00859593          	slli	a1,a1,0x8
    return (uint16_t)p[0] |
  101ebc:	00c5e5b3          	or	a1,a1,a2
  101ec0:	01059593          	slli	a1,a1,0x10
  101ec4:	0105d593          	srli	a1,a1,0x10
  101ec8:	20000613          	li	a2,512
    if (rd16(&b[11]) != 512u)
  101ecc:	08c59863          	bne	a1,a2,101f5c <boot_fat32_mount+0x1c8>
  101ed0:	00d54583          	lbu	a1,13(a0)
  101ed4:	08058463          	beqz	a1,101f5c <boot_fat32_mount+0x1c8>
    return (uint16_t)p[0] |
  101ed8:	001085b7          	lui	a1,0x108
  101edc:	ba058593          	addi	a1,a1,-1120 # 107ba0 <fat32_buf>
  101ee0:	00e5c603          	lbu	a2,14(a1)
           ((uint16_t)p[1] << 8);
  101ee4:	00f5c683          	lbu	a3,15(a1)
    if (rd16(&b[14]) == 0)
  101ee8:	00d66633          	or	a2,a2,a3
  101eec:	06060863          	beqz	a2,101f5c <boot_fat32_mount+0x1c8>
  101ef0:	0105c583          	lbu	a1,16(a1)
  101ef4:	06058463          	beqz	a1,101f5c <boot_fat32_mount+0x1c8>
    return ((uint32_t)p[0]) |
  101ef8:	001085b7          	lui	a1,0x108
  101efc:	ba058593          	addi	a1,a1,-1120 # 107ba0 <fat32_buf>
           ((uint32_t)p[1] << 8) |
  101f00:	0255c603          	lbu	a2,37(a1)
    return ((uint32_t)p[0]) |
  101f04:	0245c683          	lbu	a3,36(a1)
           ((uint32_t)p[2] << 16) |
  101f08:	0265c703          	lbu	a4,38(a1)
           ((uint32_t)p[3] << 24);
  101f0c:	0275c783          	lbu	a5,39(a1)
           ((uint32_t)p[1] << 8) |
  101f10:	00861613          	slli	a2,a2,0x8
    return ((uint32_t)p[0]) |
  101f14:	00d66633          	or	a2,a2,a3
           ((uint32_t)p[2] << 16) |
  101f18:	01071713          	slli	a4,a4,0x10
           ((uint32_t)p[3] << 24);
  101f1c:	01879793          	slli	a5,a5,0x18
           ((uint32_t)p[1] << 8) |
  101f20:	00f76733          	or	a4,a4,a5
           ((uint32_t)p[2] << 16) |
  101f24:	00e66633          	or	a2,a2,a4
    if (rd32(&b[36]) == 0)
  101f28:	02060a63          	beqz	a2,101f5c <boot_fat32_mount+0x1c8>
           ((uint32_t)p[1] << 8) |
  101f2c:	02d5c603          	lbu	a2,45(a1)
    return ((uint32_t)p[0]) |
  101f30:	02c5c683          	lbu	a3,44(a1)
           ((uint32_t)p[2] << 16) |
  101f34:	02e5c703          	lbu	a4,46(a1)
           ((uint32_t)p[3] << 24);
  101f38:	02f5c583          	lbu	a1,47(a1)
           ((uint32_t)p[1] << 8) |
  101f3c:	00861613          	slli	a2,a2,0x8
    return ((uint32_t)p[0]) |
  101f40:	00d66633          	or	a2,a2,a3
           ((uint32_t)p[2] << 16) |
  101f44:	01071713          	slli	a4,a4,0x10
           ((uint32_t)p[3] << 24);
  101f48:	01859593          	slli	a1,a1,0x18
           ((uint32_t)p[1] << 8) |
  101f4c:	00b765b3          	or	a1,a4,a1
           ((uint32_t)p[2] << 16) |
  101f50:	00b665b3          	or	a1,a2,a1
  101f54:	00200613          	li	a2,2
    if (is_fat32_boot_sector(buf)) {
  101f58:	0cc5f263          	bgeu	a1,a2,10201c <boot_fat32_mount+0x288>
           ((uint32_t)p[1] << 8) |
  101f5c:	1c754583          	lbu	a1,455(a0)
    return ((uint32_t)p[0]) |
  101f60:	1c654603          	lbu	a2,454(a0)
           ((uint32_t)p[2] << 16) |
  101f64:	1c854683          	lbu	a3,456(a0)
           ((uint32_t)p[3] << 24);
  101f68:	1c954503          	lbu	a0,457(a0)
           ((uint32_t)p[1] << 8) |
  101f6c:	00859593          	slli	a1,a1,0x8
    return ((uint32_t)p[0]) |
  101f70:	00c5e5b3          	or	a1,a1,a2
           ((uint32_t)p[2] << 16) |
  101f74:	01069693          	slli	a3,a3,0x10
           ((uint32_t)p[3] << 24);
  101f78:	01851513          	slli	a0,a0,0x18
           ((uint32_t)p[1] << 8) |
  101f7c:	00a6e533          	or	a0,a3,a0
           ((uint32_t)p[2] << 16) |
  101f80:	00a5e533          	or	a0,a1,a0
        g_part_lba = rd32(&buf[0x1C6]);
  101f84:	001044b7          	lui	s1,0x104
  101f88:	b8a4a823          	sw	a0,-1136(s1) # 103b90 <g_part_lba>
        s_printf("FAT32: part ok\n");
  101f8c:	00104537          	lui	a0,0x104
  101f90:	82450513          	addi	a0,a0,-2012 # 103824 <$d.3+0x236>
  101f94:	fffff097          	auipc	ra,0xfffff
  101f98:	ebc080e7          	jalr	-324(ra) # 100e50 <s_printf>
        if (g_part_lba == 0u) {
  101f9c:	b904a503          	lw	a0,-1136(s1)
  101fa0:	02050e63          	beqz	a0,101fdc <boot_fat32_mount+0x248>
        s_printf("FAT32: read BPB\n");
  101fa4:	00103537          	lui	a0,0x103
  101fa8:	68e50513          	addi	a0,a0,1678 # 10368e <$d.3+0xa0>
  101fac:	fffff097          	auipc	ra,0xfffff
  101fb0:	ea4080e7          	jalr	-348(ra) # 100e50 <s_printf>
        if (g_read_sector(g_part_lba, buf)) {
  101fb4:	00104537          	lui	a0,0x104
  101fb8:	b8c52603          	lw	a2,-1140(a0) # 103b8c <g_read_sector>
  101fbc:	b904a503          	lw	a0,-1136(s1)
  101fc0:	001085b7          	lui	a1,0x108
  101fc4:	ba058593          	addi	a1,a1,-1120 # 107ba0 <fat32_buf>
  101fc8:	000600e7          	jalr	a2
  101fcc:	00050e63          	beqz	a0,101fe8 <boot_fat32_mount+0x254>
  101fd0:	00103537          	lui	a0,0x103
  101fd4:	37450513          	addi	a0,a0,884 # 103374 <$d.1+0x6e>
  101fd8:	e59ff06f          	j	101e30 <boot_fat32_mount+0x9c>
  101fdc:	00103537          	lui	a0,0x103
  101fe0:	50450513          	addi	a0,a0,1284 # 103504 <$d.1+0x1fe>
  101fe4:	e4dff06f          	j	101e30 <boot_fat32_mount+0x9c>
        s_printf("FAT32: read BPB ok\n");
  101fe8:	00103537          	lui	a0,0x103
  101fec:	24b50513          	addi	a0,a0,587 # 10324b <boot_fat32_load_mem_file+0x4b3>
  101ff0:	fffff097          	auipc	ra,0xfffff
  101ff4:	e60080e7          	jalr	-416(ra) # 100e50 <s_printf>
        if (!is_fat32_boot_sector(buf)) {
  101ff8:	00000097          	auipc	ra,0x0
  101ffc:	308080e7          	jalr	776(ra) # 102300 <is_fat32_boot_sector>
  102000:	00050863          	beqz	a0,102010 <boot_fat32_mount+0x27c>
  102004:	00103537          	lui	a0,0x103
  102008:	25f50513          	addi	a0,a0,607 # 10325f <boot_fat32_load_mem_file+0x4c7>
  10200c:	0200006f          	j	10202c <boot_fat32_mount+0x298>
  102010:	00103537          	lui	a0,0x103
  102014:	21250513          	addi	a0,a0,530 # 103212 <boot_fat32_load_mem_file+0x47a>
  102018:	e19ff06f          	j	101e30 <boot_fat32_mount+0x9c>
        g_part_lba = 0;
  10201c:	00104537          	lui	a0,0x104
  102020:	b8052823          	sw	zero,-1136(a0) # 103b90 <g_part_lba>
  102024:	00103537          	lui	a0,0x103
  102028:	77150513          	addi	a0,a0,1905 # 103771 <$d.3+0x183>
  10202c:	fffff097          	auipc	ra,0xfffff
  102030:	e24080e7          	jalr	-476(ra) # 100e50 <s_printf>
    s_printf("FAT32: parse 1\n");
  102034:	00103537          	lui	a0,0x103
  102038:	3b250513          	addi	a0,a0,946 # 1033b2 <$d.1+0xac>
  10203c:	fffff097          	auipc	ra,0xfffff
  102040:	e14080e7          	jalr	-492(ra) # 100e50 <s_printf>
    return (uint16_t)p[0] |
  102044:	00108537          	lui	a0,0x108
  102048:	ba050d93          	addi	s11,a0,-1120 # 107ba0 <fat32_buf>
           ((uint16_t)p[1] << 8);
  10204c:	00cdc503          	lbu	a0,12(s11)
    return (uint16_t)p[0] |
  102050:	00bdc583          	lbu	a1,11(s11)
           ((uint16_t)p[1] << 8);
  102054:	00851513          	slli	a0,a0,0x8
    return (uint16_t)p[0] |
  102058:	00b56533          	or	a0,a0,a1
  10205c:	000109b7          	lui	s3,0x10
  102060:	fff98993          	addi	s3,s3,-1 # ffff <$d.7+0xdf2b>
  102064:	01357933          	and	s2,a0,s3
    s_printf("FAT32: parse 2\n");
  102068:	00103537          	lui	a0,0x103
  10206c:	27150513          	addi	a0,a0,625 # 103271 <boot_fat32_load_mem_file+0x4d9>
  102070:	fffff097          	auipc	ra,0xfffff
  102074:	de0080e7          	jalr	-544(ra) # 100e50 <s_printf>
    g_sectors_per_cluster = buf[13];
  102078:	00ddc503          	lbu	a0,13(s11)
  10207c:	00104a37          	lui	s4,0x104
  102080:	b8aa2423          	sw	a0,-1144(s4) # 103b88 <g_sectors_per_cluster>
    s_printf("FAT32: parse 3\n");
  102084:	00103537          	lui	a0,0x103
  102088:	71650513          	addi	a0,a0,1814 # 103716 <$d.3+0x128>
  10208c:	fffff097          	auipc	ra,0xfffff
  102090:	dc4080e7          	jalr	-572(ra) # 100e50 <s_printf>
    return (uint16_t)p[0] |
  102094:	00edca83          	lbu	s5,14(s11)
           ((uint16_t)p[1] << 8);
  102098:	00fdcb03          	lbu	s6,15(s11)
    s_printf("FAT32: parse 4\n");
  10209c:	00104537          	lui	a0,0x104
  1020a0:	92c50513          	addi	a0,a0,-1748 # 10392c <$d.1+0x9b>
  1020a4:	fffff097          	auipc	ra,0xfffff
  1020a8:	dac080e7          	jalr	-596(ra) # 100e50 <s_printf>
    fat_count = buf[16];
  1020ac:	010dc483          	lbu	s1,16(s11)
    s_printf("FAT32: parse 5\n");
  1020b0:	00104537          	lui	a0,0x104
  1020b4:	83450513          	addi	a0,a0,-1996 # 103834 <$d.3+0x246>
  1020b8:	fffff097          	auipc	ra,0xfffff
  1020bc:	d98080e7          	jalr	-616(ra) # 100e50 <s_printf>
    return ((uint32_t)p[0]) |
  1020c0:	024dcb83          	lbu	s7,36(s11)
           ((uint32_t)p[1] << 8) |
  1020c4:	025dcd03          	lbu	s10,37(s11)
           ((uint32_t)p[2] << 16) |
  1020c8:	026dcc03          	lbu	s8,38(s11)
           ((uint32_t)p[3] << 24);
  1020cc:	027dcc83          	lbu	s9,39(s11)
    s_printf("FAT32: parse 6\n");
  1020d0:	00103537          	lui	a0,0x103
  1020d4:	78650513          	addi	a0,a0,1926 # 103786 <$d.3+0x198>
  1020d8:	fffff097          	auipc	ra,0xfffff
  1020dc:	d78080e7          	jalr	-648(ra) # 100e50 <s_printf>
           ((uint32_t)p[1] << 8) |
  1020e0:	02ddc503          	lbu	a0,45(s11)
    return ((uint32_t)p[0]) |
  1020e4:	02cdc583          	lbu	a1,44(s11)
           ((uint32_t)p[2] << 16) |
  1020e8:	02edc603          	lbu	a2,46(s11)
           ((uint32_t)p[3] << 24);
  1020ec:	02fdc683          	lbu	a3,47(s11)
           ((uint32_t)p[1] << 8) |
  1020f0:	00851513          	slli	a0,a0,0x8
    return ((uint32_t)p[0]) |
  1020f4:	00b56533          	or	a0,a0,a1
           ((uint32_t)p[2] << 16) |
  1020f8:	01061613          	slli	a2,a2,0x10
           ((uint32_t)p[3] << 24);
  1020fc:	01869693          	slli	a3,a3,0x18
           ((uint32_t)p[1] << 8) |
  102100:	00d66633          	or	a2,a2,a3
           ((uint32_t)p[2] << 16) |
  102104:	00c56533          	or	a0,a0,a2
    g_root_cluster = rd32(&buf[44]);
  102108:	001045b7          	lui	a1,0x104
  10210c:	b8a5aa23          	sw	a0,-1132(a1) # 103b94 <g_root_cluster>
    s_printf("FAT32: validate\n");
  102110:	00103537          	lui	a0,0x103
  102114:	31a50513          	addi	a0,a0,794 # 10331a <$d.1+0x14>
  102118:	fffff097          	auipc	ra,0xfffff
  10211c:	d38080e7          	jalr	-712(ra) # 100e50 <s_printf>
  102120:	20000513          	li	a0,512
    if (bytes_per_sector != 512u) {
  102124:	02a91c63          	bne	s2,a0,10215c <boot_fat32_mount+0x3c8>
    if (g_sectors_per_cluster == 0u) {
  102128:	b88a2503          	lw	a0,-1144(s4)
  10212c:	02050e63          	beqz	a0,102168 <boot_fat32_mount+0x3d4>
  102130:	008b1b13          	slli	s6,s6,0x8
  102134:	015b6533          	or	a0,s6,s5
    if (reserved_sector_count == 0u) {
  102138:	01051593          	slli	a1,a0,0x10
  10213c:	02058c63          	beqz	a1,102174 <boot_fat32_mount+0x3e0>
    if (fat_count == 0u || fat_count > 4u) {
  102140:	ffb48593          	addi	a1,s1,-5
  102144:	0ff5f593          	zext.b	a1,a1
  102148:	0fc00613          	li	a2,252
  10214c:	02c5fa63          	bgeu	a1,a2,102180 <boot_fat32_mount+0x3ec>
  102150:	00103537          	lui	a0,0x103
  102154:	46a50513          	addi	a0,a0,1130 # 10346a <$d.1+0x164>
  102158:	cd9ff06f          	j	101e30 <boot_fat32_mount+0x9c>
  10215c:	00104537          	lui	a0,0x104
  102160:	93c50513          	addi	a0,a0,-1732 # 10393c <$d.1+0xab>
  102164:	ccdff06f          	j	101e30 <boot_fat32_mount+0x9c>
  102168:	00104537          	lui	a0,0x104
  10216c:	89450513          	addi	a0,a0,-1900 # 103894 <$d.1+0x3>
  102170:	cc1ff06f          	j	101e30 <boot_fat32_mount+0x9c>
  102174:	00103537          	lui	a0,0x103
  102178:	4c850513          	addi	a0,a0,1224 # 1034c8 <$d.1+0x1c2>
  10217c:	cb5ff06f          	j	101e30 <boot_fat32_mount+0x9c>
  102180:	008d1d13          	slli	s10,s10,0x8
  102184:	017d65b3          	or	a1,s10,s7
  102188:	010c1c13          	slli	s8,s8,0x10
  10218c:	018c9c93          	slli	s9,s9,0x18
  102190:	019c6633          	or	a2,s8,s9
  102194:	00c5e933          	or	s2,a1,a2
    if (fat_size == 0u) {
  102198:	02090063          	beqz	s2,1021b8 <boot_fat32_mount+0x424>
    if (g_root_cluster < 2u) {
  10219c:	00104ab7          	lui	s5,0x104
  1021a0:	b94aa583          	lw	a1,-1132(s5) # 103b94 <g_root_cluster>
  1021a4:	00200a13          	li	s4,2
  1021a8:	0145fe63          	bgeu	a1,s4,1021c4 <boot_fat32_mount+0x430>
  1021ac:	00103537          	lui	a0,0x103
  1021b0:	1b850513          	addi	a0,a0,440 # 1031b8 <boot_fat32_load_mem_file+0x420>
  1021b4:	c7dff06f          	j	101e30 <boot_fat32_mount+0x9c>
  1021b8:	00103537          	lui	a0,0x103
  1021bc:	3c250513          	addi	a0,a0,962 # 1033c2 <$d.1+0xbc>
  1021c0:	c71ff06f          	j	101e30 <boot_fat32_mount+0x9c>
  1021c4:	01357433          	and	s0,a0,s3
    s_printf("FAT32: root check\n");
  1021c8:	00103537          	lui	a0,0x103
  1021cc:	4dd50513          	addi	a0,a0,1245 # 1034dd <$d.1+0x1d7>
  1021d0:	fffff097          	auipc	ra,0xfffff
  1021d4:	c80080e7          	jalr	-896(ra) # 100e50 <s_printf>
    if (g_root_cluster == 2u)
  1021d8:	b94aa503          	lw	a0,-1132(s5)
  1021dc:	01450863          	beq	a0,s4,1021ec <boot_fat32_mount+0x458>
  1021e0:	00103537          	lui	a0,0x103
  1021e4:	1d150513          	addi	a0,a0,465 # 1031d1 <boot_fat32_load_mem_file+0x439>
  1021e8:	00c0006f          	j	1021f4 <boot_fat32_mount+0x460>
  1021ec:	00103537          	lui	a0,0x103
  1021f0:	28150513          	addi	a0,a0,641 # 103281 <boot_fat32_load_mem_file+0x4e9>
  1021f4:	fffff097          	auipc	ra,0xfffff
  1021f8:	c5c080e7          	jalr	-932(ra) # 100e50 <s_printf>
    s_printf("FAT32: calc fat\n");
  1021fc:	00103537          	lui	a0,0x103
  102200:	22650513          	addi	a0,a0,550 # 103226 <boot_fat32_load_mem_file+0x48e>
  102204:	fffff097          	auipc	ra,0xfffff
  102208:	c4c080e7          	jalr	-948(ra) # 100e50 <s_printf>
    g_fat_begin_lba = g_part_lba + reserved_sector_count;
  10220c:	00104537          	lui	a0,0x104
  102210:	b9052503          	lw	a0,-1136(a0) # 103b90 <g_part_lba>
  102214:	00850533          	add	a0,a0,s0
  102218:	00104437          	lui	s0,0x104
  10221c:	b8a42c23          	sw	a0,-1128(s0) # 103b98 <g_fat_begin_lba>
    s_printf("FAT32: calc data\n");
  102220:	00103537          	lui	a0,0x103
  102224:	51a50513          	addi	a0,a0,1306 # 10351a <$d.1+0x214>
  102228:	fffff097          	auipc	ra,0xfffff
  10222c:	c28080e7          	jalr	-984(ra) # 100e50 <s_printf>
    g_data_begin_lba = g_fat_begin_lba;
  102230:	b9842503          	lw	a0,-1128(s0)
  102234:	00104437          	lui	s0,0x104
  102238:	b8a42223          	sw	a0,-1148(s0) # 103b84 <g_data_begin_lba>
        s_printf("FAT32: add fat1\n");
  10223c:	00104537          	lui	a0,0x104
  102240:	94c50513          	addi	a0,a0,-1716 # 10394c <$d.1+0xbb>
  102244:	fffff097          	auipc	ra,0xfffff
  102248:	c0c080e7          	jalr	-1012(ra) # 100e50 <s_printf>
        g_data_begin_lba += fat_size;
  10224c:	b8442503          	lw	a0,-1148(s0)
  102250:	01250533          	add	a0,a0,s2
  102254:	b8a42223          	sw	a0,-1148(s0)
  102258:	00103537          	lui	a0,0x103
  10225c:	33b50513          	addi	a0,a0,827 # 10333b <$d.1+0x35>
    if (fat_count >= 2u) {
  102260:	0944ec63          	bltu	s1,s4,1022f8 <boot_fat32_mount+0x564>
  102264:	00050993          	mv	s3,a0
        s_printf("FAT32: add fat2\n");
  102268:	00103537          	lui	a0,0x103
  10226c:	44850513          	addi	a0,a0,1096 # 103448 <$d.1+0x142>
  102270:	fffff097          	auipc	ra,0xfffff
  102274:	be0080e7          	jalr	-1056(ra) # 100e50 <s_printf>
        g_data_begin_lba += fat_size;
  102278:	b8442503          	lw	a0,-1148(s0)
  10227c:	01250533          	add	a0,a0,s2
  102280:	00200593          	li	a1,2
  102284:	b8a42223          	sw	a0,-1148(s0)
    if (fat_count >= 3u) {
  102288:	00b49863          	bne	s1,a1,102298 <boot_fat32_mount+0x504>
  10228c:	00000413          	li	s0,0
  102290:	00098513          	mv	a0,s3
  102294:	b9dff06f          	j	101e30 <boot_fat32_mount+0x9c>
        s_printf("FAT32: add fat3\n");
  102298:	00103537          	lui	a0,0x103
  10229c:	45950513          	addi	a0,a0,1113 # 103459 <$d.1+0x153>
  1022a0:	fffff097          	auipc	ra,0xfffff
  1022a4:	bb0080e7          	jalr	-1104(ra) # 100e50 <s_printf>
        g_data_begin_lba += fat_size;
  1022a8:	001049b7          	lui	s3,0x104
  1022ac:	b849a503          	lw	a0,-1148(s3) # 103b84 <g_data_begin_lba>
  1022b0:	01250533          	add	a0,a0,s2
  1022b4:	b8a9a223          	sw	a0,-1148(s3)
  1022b8:	00103537          	lui	a0,0x103
  1022bc:	00400593          	li	a1,4
  1022c0:	33b50513          	addi	a0,a0,827 # 10333b <$d.1+0x35>
    if (fat_count >= 4u) {
  1022c4:	02b4ea63          	bltu	s1,a1,1022f8 <boot_fat32_mount+0x564>
        s_printf("FAT32: add fat4\n");
  1022c8:	001035b7          	lui	a1,0x103
  1022cc:	69f58593          	addi	a1,a1,1695 # 10369f <$d.3+0xb1>
  1022d0:	00050413          	mv	s0,a0
  1022d4:	00058513          	mv	a0,a1
  1022d8:	fffff097          	auipc	ra,0xfffff
  1022dc:	b78080e7          	jalr	-1160(ra) # 100e50 <s_printf>
  1022e0:	00040513          	mv	a0,s0
        g_data_begin_lba += fat_size;
  1022e4:	b849a583          	lw	a1,-1148(s3)
  1022e8:	00000413          	li	s0,0
  1022ec:	012585b3          	add	a1,a1,s2
  1022f0:	b8b9a223          	sw	a1,-1148(s3)
  1022f4:	b3dff06f          	j	101e30 <boot_fat32_mount+0x9c>
  1022f8:	00000413          	li	s0,0
  1022fc:	b35ff06f          	j	101e30 <boot_fat32_mount+0x9c>

00102300 <is_fat32_boot_sector>:
    if (b[510] != 0x55 || b[511] != 0xAA)
  102300:	00108537          	lui	a0,0x108
  102304:	ba050593          	addi	a1,a0,-1120 # 107ba0 <fat32_buf>
  102308:	1fe5c603          	lbu	a2,510(a1)
  10230c:	05500693          	li	a3,85
  102310:	00000513          	li	a0,0
  102314:	0cd61663          	bne	a2,a3,1023e0 <is_fat32_boot_sector+0xe0>
  102318:	1ff5c583          	lbu	a1,511(a1)
  10231c:	0aa00613          	li	a2,170
  102320:	0cc59063          	bne	a1,a2,1023e0 <is_fat32_boot_sector+0xe0>
    return (uint16_t)p[0] |
  102324:	00108537          	lui	a0,0x108
  102328:	ba050593          	addi	a1,a0,-1120 # 107ba0 <fat32_buf>
           ((uint16_t)p[1] << 8);
  10232c:	00c5c503          	lbu	a0,12(a1)
    return (uint16_t)p[0] |
  102330:	00b5c603          	lbu	a2,11(a1)
           ((uint16_t)p[1] << 8);
  102334:	00851513          	slli	a0,a0,0x8
    return (uint16_t)p[0] |
  102338:	00c56533          	or	a0,a0,a2
  10233c:	01051513          	slli	a0,a0,0x10
  102340:	01055613          	srli	a2,a0,0x10
  102344:	20000693          	li	a3,512
  102348:	00000513          	li	a0,0
    if (rd16(&b[11]) != 512u)
  10234c:	08d61a63          	bne	a2,a3,1023e0 <is_fat32_boot_sector+0xe0>
  102350:	00d5c583          	lbu	a1,13(a1)
  102354:	08058663          	beqz	a1,1023e0 <is_fat32_boot_sector+0xe0>
    return (uint16_t)p[0] |
  102358:	00108537          	lui	a0,0x108
  10235c:	ba050593          	addi	a1,a0,-1120 # 107ba0 <fat32_buf>
  102360:	00e5c503          	lbu	a0,14(a1)
           ((uint16_t)p[1] << 8);
  102364:	00f5c603          	lbu	a2,15(a1)
    if (rd16(&b[14]) == 0)
  102368:	00c56633          	or	a2,a0,a2
  10236c:	00000513          	li	a0,0
  102370:	06060863          	beqz	a2,1023e0 <is_fat32_boot_sector+0xe0>
  102374:	0105c583          	lbu	a1,16(a1)
  102378:	06058463          	beqz	a1,1023e0 <is_fat32_boot_sector+0xe0>
    return ((uint32_t)p[0]) |
  10237c:	00108537          	lui	a0,0x108
  102380:	ba050513          	addi	a0,a0,-1120 # 107ba0 <fat32_buf>
           ((uint32_t)p[1] << 8) |
  102384:	02554583          	lbu	a1,37(a0)
    return ((uint32_t)p[0]) |
  102388:	02454603          	lbu	a2,36(a0)
           ((uint32_t)p[2] << 16) |
  10238c:	02654683          	lbu	a3,38(a0)
           ((uint32_t)p[3] << 24);
  102390:	02754703          	lbu	a4,39(a0)
           ((uint32_t)p[1] << 8) |
  102394:	00859593          	slli	a1,a1,0x8
    return ((uint32_t)p[0]) |
  102398:	00c5e5b3          	or	a1,a1,a2
           ((uint32_t)p[2] << 16) |
  10239c:	01069693          	slli	a3,a3,0x10
           ((uint32_t)p[3] << 24);
  1023a0:	01871713          	slli	a4,a4,0x18
           ((uint32_t)p[1] << 8) |
  1023a4:	00e6e6b3          	or	a3,a3,a4
           ((uint32_t)p[2] << 16) |
  1023a8:	00d5e5b3          	or	a1,a1,a3
    if (rd32(&b[36]) == 0)
  1023ac:	02058c63          	beqz	a1,1023e4 <is_fat32_boot_sector+0xe4>
           ((uint32_t)p[1] << 8) |
  1023b0:	02d54583          	lbu	a1,45(a0)
    return ((uint32_t)p[0]) |
  1023b4:	02c54603          	lbu	a2,44(a0)
           ((uint32_t)p[2] << 16) |
  1023b8:	02e54683          	lbu	a3,46(a0)
           ((uint32_t)p[3] << 24);
  1023bc:	02f54503          	lbu	a0,47(a0)
           ((uint32_t)p[1] << 8) |
  1023c0:	00859593          	slli	a1,a1,0x8
    return ((uint32_t)p[0]) |
  1023c4:	00c5e5b3          	or	a1,a1,a2
           ((uint32_t)p[2] << 16) |
  1023c8:	01069693          	slli	a3,a3,0x10
           ((uint32_t)p[3] << 24);
  1023cc:	01851513          	slli	a0,a0,0x18
           ((uint32_t)p[1] << 8) |
  1023d0:	00a6e533          	or	a0,a3,a0
           ((uint32_t)p[2] << 16) |
  1023d4:	00a5e533          	or	a0,a1,a0
    if (rd32(&b[44]) < 2)
  1023d8:	00253513          	sltiu	a0,a0,2
  1023dc:	00154513          	xori	a0,a0,1
}
  1023e0:	00008067          	ret
  1023e4:	00000513          	li	a0,0
  1023e8:	00008067          	ret

001023ec <boot_fat32_next_cluster>:

uint32_t boot_fat32_next_cluster(uint32_t cluster)
{
  1023ec:	ff010113          	addi	sp,sp,-16
  1023f0:	00112623          	sw	ra,12(sp)
  1023f4:	00812423          	sw	s0,8(sp)
  1023f8:	00912223          	sw	s1,4(sp)
  1023fc:	01212023          	sw	s2,0(sp)
  102400:	10000437          	lui	s0,0x10000
  102404:	00200593          	li	a1,2
  102408:	ff840413          	addi	s0,s0,-8 # ffffff8 <_stack_top+0xfef4058>
    uint32_t fat_offset = cluster * 4u;
    uint32_t fat_lba    = g_fat_begin_lba + (fat_offset / 512u);
    uint32_t ent_off    = fat_offset & 0x1FFu;
    uint32_t next;

    if (cluster < 2u)
  10240c:	06b56463          	bltu	a0,a1,102474 <boot_fat32_next_cluster+0x88>
    uint32_t fat_lba    = g_fat_begin_lba + (fat_offset / 512u);
  102410:	001045b7          	lui	a1,0x104
  102414:	b985a583          	lw	a1,-1128(a1) # 103b98 <g_fat_begin_lba>
        return FAT32_EOC_MIN;

    if (g_read_sector(fat_lba, fat32_buf))
  102418:	00104637          	lui	a2,0x104
  10241c:	b8c62603          	lw	a2,-1140(a2) # 103b8c <g_read_sector>
  102420:	00251913          	slli	s2,a0,0x2
    uint32_t fat_lba    = g_fat_begin_lba + (fat_offset / 512u);
  102424:	00995513          	srli	a0,s2,0x9
  102428:	00a58533          	add	a0,a1,a0
    if (g_read_sector(fat_lba, fat32_buf))
  10242c:	001085b7          	lui	a1,0x108
  102430:	ba058493          	addi	s1,a1,-1120 # 107ba0 <fat32_buf>
  102434:	00048593          	mv	a1,s1
  102438:	000600e7          	jalr	a2
  10243c:	02051c63          	bnez	a0,102474 <boot_fat32_next_cluster+0x88>
  102440:	1fc97513          	andi	a0,s2,508
        return FAT32_EOC_MIN;

    next = rd32(&fat32_buf[ent_off]);
  102444:	00a48533          	add	a0,s1,a0
           ((uint32_t)p[1] << 8) |
  102448:	00154583          	lbu	a1,1(a0)
    return ((uint32_t)p[0]) |
  10244c:	00054603          	lbu	a2,0(a0)
           ((uint32_t)p[2] << 16) |
  102450:	00254683          	lbu	a3,2(a0)
           ((uint32_t)p[1] << 8) |
  102454:	00859593          	slli	a1,a1,0x8
           ((uint32_t)p[3] << 24);
  102458:	00354503          	lbu	a0,3(a0)
    return ((uint32_t)p[0]) |
  10245c:	00c5e5b3          	or	a1,a1,a2
           ((uint32_t)p[2] << 16) |
  102460:	01069693          	slli	a3,a3,0x10
           ((uint32_t)p[1] << 8) |
  102464:	00d5e5b3          	or	a1,a1,a3
    next &= 0x0FFFFFFFu;
  102468:	01c51513          	slli	a0,a0,0x1c
  10246c:	00455513          	srli	a0,a0,0x4
  102470:	00a5e433          	or	s0,a1,a0

    return next;
}
  102474:	00040513          	mv	a0,s0
  102478:	00c12083          	lw	ra,12(sp)
  10247c:	00812403          	lw	s0,8(sp)
  102480:	00412483          	lw	s1,4(sp)
  102484:	00012903          	lw	s2,0(sp)
  102488:	01010113          	addi	sp,sp,16
  10248c:	00008067          	ret

00102490 <boot_fat32_find>:
int boot_fat32_find(
    const char *name,
    uint32_t *cluster,
    uint32_t *size
)
{
  102490:	f8010113          	addi	sp,sp,-128
  102494:	06112e23          	sw	ra,124(sp)
  102498:	06812c23          	sw	s0,120(sp)
  10249c:	06912a23          	sw	s1,116(sp)
  1024a0:	07212823          	sw	s2,112(sp)
  1024a4:	07312623          	sw	s3,108(sp)
  1024a8:	07412423          	sw	s4,104(sp)
  1024ac:	07512223          	sw	s5,100(sp)
  1024b0:	07612023          	sw	s6,96(sp)
  1024b4:	05712e23          	sw	s7,92(sp)
  1024b8:	05812c23          	sw	s8,88(sp)
  1024bc:	05912a23          	sw	s9,84(sp)
  1024c0:	05a12823          	sw	s10,80(sp)
  1024c4:	05b12623          	sw	s11,76(sp)
  1024c8:	02c12a23          	sw	a2,52(sp)
  1024cc:	02b12823          	sw	a1,48(sp)
  1024d0:	00050913          	mv	s2,a0
    uint32_t dir_cluster;
    char target[11];

    s_printf("FAT32: find enter\n");
  1024d4:	00104537          	lui	a0,0x104
  1024d8:	8c450513          	addi	a0,a0,-1852 # 1038c4 <$d.1+0x33>
  1024dc:	fffff097          	auipc	ra,0xfffff
  1024e0:	974080e7          	jalr	-1676(ra) # 100e50 <s_printf>
  1024e4:	02000593          	li	a1,32

    for (int i = 0; i < 11; i++)
        target[i] = ' ';
  1024e8:	04b100a3          	sb	a1,65(sp)
  1024ec:	04b10123          	sb	a1,66(sp)
  1024f0:	04b101a3          	sb	a1,67(sp)
  1024f4:	04b10223          	sb	a1,68(sp)
  1024f8:	04b102a3          	sb	a1,69(sp)
  1024fc:	04b10323          	sb	a1,70(sp)
  102500:	04b103a3          	sb	a1,71(sp)

    {
        int i = 0;
        int j = 0;

        while (name[i] != '\0' && name[i] != '.' && j < 8) {
  102504:	00094503          	lbu	a0,0(s2)
        target[i] = ' ';
  102508:	04b10423          	sb	a1,72(sp)
  10250c:	04b104a3          	sb	a1,73(sp)
  102510:	04b10523          	sb	a1,74(sp)
  102514:	04b105a3          	sb	a1,75(sp)
        while (name[i] != '\0' && name[i] != '.' && j < 8) {
  102518:	04050e63          	beqz	a0,102574 <boot_fat32_find+0xe4>
  10251c:	00000593          	li	a1,0
  102520:	00190613          	addi	a2,s2,1
  102524:	02e00693          	li	a3,46
  102528:	00700713          	li	a4,7
  10252c:	04110793          	addi	a5,sp,65
  102530:	0ff57813          	zext.b	a6,a0
  102534:	04d80463          	beq	a6,a3,10257c <boot_fat32_find+0xec>
  102538:	04b76263          	bltu	a4,a1,10257c <boot_fat32_find+0xec>
    if (c >= 'a' && c <= 'z')
  10253c:	f9f50813          	addi	a6,a0,-97
  102540:	0ff87813          	zext.b	a6,a6
  102544:	01a83813          	sltiu	a6,a6,26
  102548:	41000833          	neg	a6,a6
  10254c:	0e087813          	andi	a6,a6,224
  102550:	010508b3          	add	a7,a0,a6
        while (name[i] != '\0' && name[i] != '.' && j < 8) {
  102554:	00b60533          	add	a0,a2,a1
  102558:	00054503          	lbu	a0,0(a0)
            target[j++] = upper_char(name[i]);
            i++;
  10255c:	00158813          	addi	a6,a1,1
            target[j++] = upper_char(name[i]);
  102560:	00b785b3          	add	a1,a5,a1
  102564:	01158023          	sb	a7,0(a1)
  102568:	00080593          	mv	a1,a6
        while (name[i] != '\0' && name[i] != '.' && j < 8) {
  10256c:	fc0512e3          	bnez	a0,102530 <boot_fat32_find+0xa0>
  102570:	0100006f          	j	102580 <boot_fat32_find+0xf0>
  102574:	00000813          	li	a6,0
  102578:	0180006f          	j	102590 <boot_fat32_find+0x100>
  10257c:	00058813          	mv	a6,a1
        }

        if (name[i] == '.')
  102580:	0ff57513          	zext.b	a0,a0
  102584:	fd250513          	addi	a0,a0,-46
  102588:	00153513          	seqz	a0,a0
  10258c:	00a80833          	add	a6,a6,a0
            i++;

        j = 8;

        while (name[i] != '\0' && j < 11) {
  102590:	010905b3          	add	a1,s2,a6
  102594:	0005c503          	lbu	a0,0(a1)
  102598:	04050663          	beqz	a0,1025e4 <boot_fat32_find+0x154>
  10259c:	00158593          	addi	a1,a1,1
  1025a0:	00800713          	li	a4,8
  1025a4:	04110613          	addi	a2,sp,65
  1025a8:	00a00693          	li	a3,10
    if (c >= 'a' && c <= 'z')
  1025ac:	f9f50793          	addi	a5,a0,-97
  1025b0:	0ff7f793          	zext.b	a5,a5
  1025b4:	01a7b793          	sltiu	a5,a5,26
  1025b8:	40f007b3          	neg	a5,a5
  1025bc:	0e07f793          	andi	a5,a5,224
  1025c0:	00f50833          	add	a6,a0,a5
        while (name[i] != '\0' && j < 11) {
  1025c4:	0005c503          	lbu	a0,0(a1)
  1025c8:	00070793          	mv	a5,a4
            target[j++] = upper_char(name[i]);
  1025cc:	00e60733          	add	a4,a2,a4
  1025d0:	01070023          	sb	a6,0(a4)
        while (name[i] != '\0' && j < 11) {
  1025d4:	00050863          	beqz	a0,1025e4 <boot_fat32_find+0x154>
  1025d8:	00178713          	addi	a4,a5,1
  1025dc:	00158593          	addi	a1,a1,1
  1025e0:	fcd7e6e3          	bltu	a5,a3,1025ac <boot_fat32_find+0x11c>
            i++;
        }
    }

    dir_cluster = g_root_cluster;
  1025e4:	00104537          	lui	a0,0x104
  1025e8:	b9452483          	lw	s1,-1132(a0) # 103b94 <g_root_cluster>

    s_printf("FAT32: root loop\n");
  1025ec:	00103537          	lui	a0,0x103
  1025f0:	62650513          	addi	a0,a0,1574 # 103626 <$d.3+0x38>
  1025f4:	fffff097          	auipc	ra,0xfffff
  1025f8:	85c080e7          	jalr	-1956(ra) # 100e50 <s_printf>

    while (dir_cluster >= 2u &&
  1025fc:	ffe48593          	addi	a1,s1,-2
  102600:	10000537          	lui	a0,0x10000
  102604:	ff450613          	addi	a2,a0,-12 # ffffff4 <_stack_top+0xfef4054>
  102608:	22b66c63          	bltu	a2,a1,102840 <boot_fat32_find+0x3b0>
  10260c:	04114c03          	lbu	s8,65(sp)
  102610:	04214c83          	lbu	s9,66(sp)
  102614:	04314d03          	lbu	s10,67(sp)
  102618:	04414583          	lbu	a1,68(sp)
  10261c:	02b12c23          	sw	a1,56(sp)
  102620:	04514583          	lbu	a1,69(sp)
  102624:	02b12223          	sw	a1,36(sp)
  102628:	04614583          	lbu	a1,70(sp)
  10262c:	00b12e23          	sw	a1,28(sp)
  102630:	04714583          	lbu	a1,71(sp)
  102634:	00b12c23          	sw	a1,24(sp)
  102638:	04814583          	lbu	a1,72(sp)
  10263c:	00b12a23          	sw	a1,20(sp)
  102640:	04914583          	lbu	a1,73(sp)
  102644:	00b12823          	sw	a1,16(sp)
  102648:	04a14583          	lbu	a1,74(sp)
  10264c:	00b12623          	sw	a1,12(sp)
  102650:	04b14583          	lbu	a1,75(sp)
  102654:	00b12423          	sw	a1,8(sp)
  102658:	001045b7          	lui	a1,0x104
  10265c:	8d758913          	addi	s2,a1,-1833 # 1038d7 <$d.1+0x46>
  102660:	001035b7          	lui	a1,0x103
  102664:	5bb58593          	addi	a1,a1,1467 # 1035bb <$d.1+0x2b5>
  102668:	02b12e23          	sw	a1,60(sp)
  10266c:	001049b7          	lui	s3,0x104
  102670:	001035b7          	lui	a1,0x103
  102674:	48e58593          	addi	a1,a1,1166 # 10348e <$d.1+0x188>
  102678:	02b12423          	sw	a1,40(sp)
  10267c:	00104ab7          	lui	s5,0x104
  102680:	001085b7          	lui	a1,0x108
  102684:	ba058413          	addi	s0,a1,-1120 # 107ba0 <fat32_buf>
  102688:	ff550513          	addi	a0,a0,-11
  10268c:	02a12023          	sw	a0,32(sp)
  102690:	00104537          	lui	a0,0x104
  102694:	95d50b13          	addi	s6,a0,-1699 # 10395d <$d.1+0xcc>
  102698:	0e500d93          	li	s11,229
  10269c:	00103537          	lui	a0,0x103
  1026a0:	48050b93          	addi	s7,a0,1152 # 103480 <$d.1+0x17a>
  1026a4:	03212623          	sw	s2,44(sp)
           dir_cluster < FAT32_EOC_MIN &&
           dir_cluster != FAT32_BAD_CLUSTER) {

        uint32_t dir_lba;

        s_printf("FAT32: calc lba\n");
  1026a8:	00090513          	mv	a0,s2
  1026ac:	ffffe097          	auipc	ra,0xffffe
  1026b0:	7a4080e7          	jalr	1956(ra) # 100e50 <s_printf>
  1026b4:	00104537          	lui	a0,0x104

        /* root cluster = 2 固定で検証 */
        dir_lba = g_data_begin_lba;
  1026b8:	b8452a03          	lw	s4,-1148(a0) # 103b84 <g_data_begin_lba>
  1026bc:	03c12503          	lw	a0,60(sp)

        s_printf("FAT32: read dir\n");
  1026c0:	ffffe097          	auipc	ra,0xffffe
  1026c4:	790080e7          	jalr	1936(ra) # 100e50 <s_printf>

        for (uint32_t s = 0; s < g_sectors_per_cluster; s++) {
  1026c8:	b889a503          	lw	a0,-1144(s3) # 103b88 <g_sectors_per_cluster>
  1026cc:	0e050c63          	beqz	a0,1027c4 <boot_fat32_find+0x334>
  1026d0:	00000913          	li	s2,0
  1026d4:	0180006f          	j	1026ec <boot_fat32_find+0x25c>
  1026d8:	001049b7          	lui	s3,0x104
  1026dc:	b889a503          	lw	a0,-1144(s3) # 103b88 <g_sectors_per_cluster>
  1026e0:	00190913          	addi	s2,s2,1
  1026e4:	00104ab7          	lui	s5,0x104
  1026e8:	0ca97e63          	bgeu	s2,a0,1027c4 <boot_fat32_find+0x334>

            uint8_t *e;

            if (g_read_sector(dir_lba + s, fat32_buf)) {
  1026ec:	b8caa603          	lw	a2,-1140(s5) # 103b8c <g_read_sector>
  1026f0:	01490533          	add	a0,s2,s4
  1026f4:	00040593          	mv	a1,s0
  1026f8:	000600e7          	jalr	a2
  1026fc:	1a051063          	bnez	a0,10289c <boot_fat32_find+0x40c>
                s_printf("FAT32: read dir failed\n");
                return -1;
            }

            s_printf("FAT32: dir ok\n");
  102700:	000b0513          	mv	a0,s6
  102704:	ffffe097          	auipc	ra,0xffffe
  102708:	74c080e7          	jalr	1868(ra) # 100e50 <s_printf>
  10270c:	01000993          	li	s3,16
  102710:	00040a93          	mv	s5,s0
  102714:	0100006f          	j	102724 <boot_fat32_find+0x294>

            e = fat32_buf;

            for (int i = 0; i < 16; i++) {
  102718:	fff98993          	addi	s3,s3,-1
  10271c:	020a8a93          	addi	s5,s5,32
  102720:	fa098ce3          	beqz	s3,1026d8 <boot_fat32_find+0x248>
                uint8_t attr;
                int match;

                if (e[0] == 0x00) {
  102724:	000ac503          	lbu	a0,0(s5)
  102728:	ffb508e3          	beq	a0,s11,102718 <boot_fat32_find+0x288>
  10272c:	12050063          	beqz	a0,10284c <boot_fat32_find+0x3bc>
                if (e[0] == 0xE5) {
                    e += 32;
                    continue;
                }

                attr = e[11];
  102730:	00bac503          	lbu	a0,11(s5)

                if (attr == 0x0F) {
  102734:	01857513          	andi	a0,a0,24
  102738:	fe0510e3          	bnez	a0,102718 <boot_fat32_find+0x288>
                if (attr & 0x10) {
                    e += 32;
                    continue;
                }

                s_printf("FAT32: entry\n");
  10273c:	000b8513          	mv	a0,s7
  102740:	ffffe097          	auipc	ra,0xffffe
  102744:	710080e7          	jalr	1808(ra) # 100e50 <s_printf>

                match = 1;

                for (int k = 0; k < 11; k++) {
                    if ((char)e[k] != target[k]) {
  102748:	000ac503          	lbu	a0,0(s5)
  10274c:	fd8516e3          	bne	a0,s8,102718 <boot_fat32_find+0x288>
  102750:	001ac503          	lbu	a0,1(s5)
  102754:	fd9512e3          	bne	a0,s9,102718 <boot_fat32_find+0x288>
  102758:	002ac503          	lbu	a0,2(s5)
  10275c:	fba51ee3          	bne	a0,s10,102718 <boot_fat32_find+0x288>
  102760:	003ac503          	lbu	a0,3(s5)
  102764:	03812583          	lw	a1,56(sp)
  102768:	fab518e3          	bne	a0,a1,102718 <boot_fat32_find+0x288>
  10276c:	004ac503          	lbu	a0,4(s5)
  102770:	02412583          	lw	a1,36(sp)
  102774:	fab512e3          	bne	a0,a1,102718 <boot_fat32_find+0x288>
  102778:	005ac503          	lbu	a0,5(s5)
  10277c:	01c12583          	lw	a1,28(sp)
  102780:	f8b51ce3          	bne	a0,a1,102718 <boot_fat32_find+0x288>
  102784:	006ac503          	lbu	a0,6(s5)
  102788:	01812583          	lw	a1,24(sp)
  10278c:	f8b516e3          	bne	a0,a1,102718 <boot_fat32_find+0x288>
  102790:	007ac503          	lbu	a0,7(s5)
  102794:	01412583          	lw	a1,20(sp)
  102798:	f8b510e3          	bne	a0,a1,102718 <boot_fat32_find+0x288>
  10279c:	008ac503          	lbu	a0,8(s5)
  1027a0:	01012583          	lw	a1,16(sp)
  1027a4:	f6b51ae3          	bne	a0,a1,102718 <boot_fat32_find+0x288>
  1027a8:	009ac503          	lbu	a0,9(s5)
  1027ac:	00c12583          	lw	a1,12(sp)
  1027b0:	f6b514e3          	bne	a0,a1,102718 <boot_fat32_find+0x288>
  1027b4:	00aac503          	lbu	a0,10(s5)
  1027b8:	00812583          	lw	a1,8(sp)
  1027bc:	f4b51ee3          	bne	a0,a1,102718 <boot_fat32_find+0x288>
  1027c0:	0e80006f          	j	1028a8 <boot_fat32_find+0x418>
  1027c4:	02812503          	lw	a0,40(sp)

                e += 32;
            }
        }

        s_printf("FAT32: next\n");
  1027c8:	ffffe097          	auipc	ra,0xffffe
  1027cc:	688080e7          	jalr	1672(ra) # 100e50 <s_printf>
  1027d0:	02c12903          	lw	s2,44(sp)
    if (cluster < 2u)
  1027d4:	00200513          	li	a0,2
  1027d8:	06a4e463          	bltu	s1,a0,102840 <boot_fat32_find+0x3b0>
    uint32_t fat_lba    = g_fat_begin_lba + (fat_offset / 512u);
  1027dc:	00104537          	lui	a0,0x104
  1027e0:	b9852503          	lw	a0,-1128(a0) # 103b98 <g_fat_begin_lba>
    if (g_read_sector(fat_lba, fat32_buf))
  1027e4:	b8caa603          	lw	a2,-1140(s5)
    uint32_t fat_lba    = g_fat_begin_lba + (fat_offset / 512u);
  1027e8:	0074d593          	srli	a1,s1,0x7
  1027ec:	00b50533          	add	a0,a0,a1
    if (g_read_sector(fat_lba, fat32_buf))
  1027f0:	00040593          	mv	a1,s0
  1027f4:	000600e7          	jalr	a2
  1027f8:	04051463          	bnez	a0,102840 <boot_fat32_find+0x3b0>
  1027fc:	01949493          	slli	s1,s1,0x19
  102800:	0174d493          	srli	s1,s1,0x17
    next = rd32(&fat32_buf[ent_off]);
  102804:	009404b3          	add	s1,s0,s1
           ((uint32_t)p[1] << 8) |
  102808:	0014c503          	lbu	a0,1(s1)
    return ((uint32_t)p[0]) |
  10280c:	0004c583          	lbu	a1,0(s1)
           ((uint32_t)p[2] << 16) |
  102810:	0024c603          	lbu	a2,2(s1)
           ((uint32_t)p[1] << 8) |
  102814:	00851513          	slli	a0,a0,0x8
           ((uint32_t)p[3] << 24);
  102818:	0034c683          	lbu	a3,3(s1)
    return ((uint32_t)p[0]) |
  10281c:	00b56533          	or	a0,a0,a1
           ((uint32_t)p[2] << 16) |
  102820:	01061613          	slli	a2,a2,0x10
           ((uint32_t)p[1] << 8) |
  102824:	00c56533          	or	a0,a0,a2
    next &= 0x0FFFFFFFu;
  102828:	01c69693          	slli	a3,a3,0x1c
  10282c:	0046d693          	srli	a3,a3,0x4
  102830:	00d564b3          	or	s1,a0,a3
    while (dir_cluster >= 2u &&
  102834:	ffe48513          	addi	a0,s1,-2
  102838:	02012583          	lw	a1,32(sp)
  10283c:	e6b566e3          	bltu	a0,a1,1026a8 <boot_fat32_find+0x218>

        dir_cluster = boot_fat32_next_cluster(dir_cluster);
    }

    s_printf("FAT32: not found\n");
  102840:	00103537          	lui	a0,0x103
  102844:	34c50513          	addi	a0,a0,844 # 10334c <$d.1+0x46>
  102848:	00c0006f          	j	102854 <boot_fat32_find+0x3c4>
                    s_printf("FAT32: dir end\n");
  10284c:	00104537          	lui	a0,0x104
  102850:	86950513          	addi	a0,a0,-1943 # 103869 <print_hex8.HEX+0x25>
  102854:	ffffe097          	auipc	ra,0xffffe
  102858:	5fc080e7          	jalr	1532(ra) # 100e50 <s_printf>
  10285c:	fff00513          	li	a0,-1
  102860:	07c12083          	lw	ra,124(sp)
  102864:	07812403          	lw	s0,120(sp)
  102868:	07412483          	lw	s1,116(sp)
  10286c:	07012903          	lw	s2,112(sp)
  102870:	06c12983          	lw	s3,108(sp)
  102874:	06812a03          	lw	s4,104(sp)
  102878:	06412a83          	lw	s5,100(sp)
  10287c:	06012b03          	lw	s6,96(sp)
  102880:	05c12b83          	lw	s7,92(sp)
  102884:	05812c03          	lw	s8,88(sp)
  102888:	05412c83          	lw	s9,84(sp)
  10288c:	05012d03          	lw	s10,80(sp)
  102890:	04c12d83          	lw	s11,76(sp)

    return -1;
}
  102894:	08010113          	addi	sp,sp,128
  102898:	00008067          	ret
                s_printf("FAT32: read dir failed\n");
  10289c:	00103537          	lui	a0,0x103
  1028a0:	53a50513          	addi	a0,a0,1338 # 10353a <$d.1+0x234>
  1028a4:	fb1ff06f          	j	102854 <boot_fat32_find+0x3c4>
                    s_printf("FAT32: found\n");
  1028a8:	00103537          	lui	a0,0x103
  1028ac:	52c50513          	addi	a0,a0,1324 # 10352c <$d.1+0x226>
  1028b0:	ffffe097          	auipc	ra,0xffffe
  1028b4:	5a0080e7          	jalr	1440(ra) # 100e50 <s_printf>
  1028b8:	00000513          	li	a0,0
           ((uint16_t)p[1] << 8);
  1028bc:	015ac583          	lbu	a1,21(s5)
    return (uint16_t)p[0] |
  1028c0:	014ac603          	lbu	a2,20(s5)
  1028c4:	01aac683          	lbu	a3,26(s5)
           ((uint16_t)p[1] << 8);
  1028c8:	01bac703          	lbu	a4,27(s5)
                    *cluster = (cl_hi << 16) | cl_lo;
  1028cc:	01859593          	slli	a1,a1,0x18
  1028d0:	01061613          	slli	a2,a2,0x10
    return (uint16_t)p[0] |
  1028d4:	00c5e5b3          	or	a1,a1,a2
           ((uint16_t)p[1] << 8);
  1028d8:	00871713          	slli	a4,a4,0x8
                    *cluster = (cl_hi << 16) | cl_lo;
  1028dc:	00e6e6b3          	or	a3,a3,a4
  1028e0:	00d5e5b3          	or	a1,a1,a3
  1028e4:	03012603          	lw	a2,48(sp)
  1028e8:	00b62023          	sw	a1,0(a2)
           ((uint32_t)p[1] << 8) |
  1028ec:	01dac583          	lbu	a1,29(s5)
    return ((uint32_t)p[0]) |
  1028f0:	01cac603          	lbu	a2,28(s5)
           ((uint32_t)p[2] << 16) |
  1028f4:	01eac683          	lbu	a3,30(s5)
           ((uint32_t)p[3] << 24);
  1028f8:	01fac703          	lbu	a4,31(s5)
           ((uint32_t)p[1] << 8) |
  1028fc:	00859593          	slli	a1,a1,0x8
    return ((uint32_t)p[0]) |
  102900:	00c5e5b3          	or	a1,a1,a2
           ((uint32_t)p[2] << 16) |
  102904:	01069693          	slli	a3,a3,0x10
           ((uint32_t)p[3] << 24);
  102908:	01871713          	slli	a4,a4,0x18
           ((uint32_t)p[1] << 8) |
  10290c:	00e6e6b3          	or	a3,a3,a4
           ((uint32_t)p[2] << 16) |
  102910:	00d5e5b3          	or	a1,a1,a3
  102914:	03412603          	lw	a2,52(sp)
                    *size    = rd32(&e[28]);
  102918:	00b62023          	sw	a1,0(a2)
  10291c:	f45ff06f          	j	102860 <boot_fat32_find+0x3d0>

00102920 <boot_fat32_load_file>:
int boot_fat32_load_file(
    const char *name,
    uint32_t dst_addr,
    uint32_t *loaded_size
)
{
  102920:	f8010113          	addi	sp,sp,-128
  102924:	06112e23          	sw	ra,124(sp)
  102928:	06812c23          	sw	s0,120(sp)
  10292c:	06912a23          	sw	s1,116(sp)
  102930:	07212823          	sw	s2,112(sp)
  102934:	07312623          	sw	s3,108(sp)
  102938:	07412423          	sw	s4,104(sp)
  10293c:	07512223          	sw	s5,100(sp)
  102940:	07612023          	sw	s6,96(sp)
  102944:	05712e23          	sw	s7,92(sp)
  102948:	05812c23          	sw	s8,88(sp)
  10294c:	05912a23          	sw	s9,84(sp)
  102950:	05a12823          	sw	s10,80(sp)
  102954:	05b12623          	sw	s11,76(sp)
  102958:	00060913          	mv	s2,a2
  10295c:	00058493          	mv	s1,a1
  102960:	00050413          	mv	s0,a0
    uint32_t cluster;
    uint32_t size;
    uint32_t remain;
    volatile uint8_t *dst;

    s_printf("FAT32: load enter\n");
  102964:	00103537          	lui	a0,0x103
  102968:	67b50513          	addi	a0,a0,1659 # 10367b <$d.3+0x8d>
  10296c:	ffffe097          	auipc	ra,0xffffe
  102970:	4e4080e7          	jalr	1252(ra) # 100e50 <s_printf>

    if (boot_fat32_find(name, &cluster, &size)) {
  102974:	04810593          	addi	a1,sp,72
  102978:	04410613          	addi	a2,sp,68
  10297c:	00040513          	mv	a0,s0
  102980:	00000097          	auipc	ra,0x0
  102984:	b10080e7          	jalr	-1264(ra) # 102490 <boot_fat32_find>
  102988:	fff00413          	li	s0,-1
  10298c:	04050a63          	beqz	a0,1029e0 <boot_fat32_load_file+0xc0>
  102990:	00103537          	lui	a0,0x103
  102994:	72650513          	addi	a0,a0,1830 # 103726 <$d.3+0x138>
  102998:	ffffe097          	auipc	ra,0xffffe
  10299c:	4b8080e7          	jalr	1208(ra) # 100e50 <s_printf>
        *loaded_size = size;

    s_printf("FAT32: load done\n");

    return 0;
}
  1029a0:	00040513          	mv	a0,s0
  1029a4:	07c12083          	lw	ra,124(sp)
  1029a8:	07812403          	lw	s0,120(sp)
  1029ac:	07412483          	lw	s1,116(sp)
  1029b0:	07012903          	lw	s2,112(sp)
  1029b4:	06c12983          	lw	s3,108(sp)
  1029b8:	06812a03          	lw	s4,104(sp)
  1029bc:	06412a83          	lw	s5,100(sp)
  1029c0:	06012b03          	lw	s6,96(sp)
  1029c4:	05c12b83          	lw	s7,92(sp)
  1029c8:	05812c03          	lw	s8,88(sp)
  1029cc:	05412c83          	lw	s9,84(sp)
  1029d0:	05012d03          	lw	s10,80(sp)
  1029d4:	04c12d83          	lw	s11,76(sp)
  1029d8:	08010113          	addi	sp,sp,128
  1029dc:	00008067          	ret
    s_printf("FAT32: find ok\n");
  1029e0:	00103537          	lui	a0,0x103
  1029e4:	1e450513          	addi	a0,a0,484 # 1031e4 <boot_fat32_load_mem_file+0x44c>
  1029e8:	ffffe097          	auipc	ra,0xffffe
  1029ec:	468080e7          	jalr	1128(ra) # 100e50 <s_printf>
    s_printf("FAT32: cluster=");
  1029f0:	00103537          	lui	a0,0x103
  1029f4:	32b50513          	addi	a0,a0,811 # 10332b <$d.1+0x25>
  1029f8:	ffffe097          	auipc	ra,0xffffe
  1029fc:	458080e7          	jalr	1112(ra) # 100e50 <s_printf>
    s_print_int((int)cluster);
  102a00:	04812c03          	lw	s8,72(sp)
  102a04:	000c0513          	mv	a0,s8
  102a08:	ffffe097          	auipc	ra,0xffffe
  102a0c:	34c080e7          	jalr	844(ra) # 100d54 <s_print_int>
    s_printf("\n");
  102a10:	00103537          	lui	a0,0x103
  102a14:	6c550a13          	addi	s4,a0,1733 # 1036c5 <$d.3+0xd7>
  102a18:	000a0513          	mv	a0,s4
  102a1c:	ffffe097          	auipc	ra,0xffffe
  102a20:	434080e7          	jalr	1076(ra) # 100e50 <s_printf>
    s_printf("FAT32: size=");
  102a24:	00103537          	lui	a0,0x103
  102a28:	5cc50513          	addi	a0,a0,1484 # 1035cc <$d.1+0x2c6>
  102a2c:	ffffe097          	auipc	ra,0xffffe
  102a30:	424080e7          	jalr	1060(ra) # 100e50 <s_printf>
    s_print_int((int)size);
  102a34:	04412983          	lw	s3,68(sp)
  102a38:	00098513          	mv	a0,s3
  102a3c:	ffffe097          	auipc	ra,0xffffe
  102a40:	318080e7          	jalr	792(ra) # 100d54 <s_print_int>
    s_printf("\n");
  102a44:	000a0513          	mv	a0,s4
  102a48:	ffffe097          	auipc	ra,0xffffe
  102a4c:	408080e7          	jalr	1032(ra) # 100e50 <s_printf>
    if (size == 0u) {
  102a50:	00098c63          	beqz	s3,102a68 <boot_fat32_load_file+0x148>
  102a54:	00200513          	li	a0,2
    if (cluster < 2u) {
  102a58:	00ac7e63          	bgeu	s8,a0,102a74 <boot_fat32_load_file+0x154>
  102a5c:	00103537          	lui	a0,0x103
  102a60:	73a50513          	addi	a0,a0,1850 # 10373a <$d.3+0x14c>
  102a64:	f35ff06f          	j	102998 <boot_fat32_load_file+0x78>
  102a68:	00103537          	lui	a0,0x103
  102a6c:	63850513          	addi	a0,a0,1592 # 103638 <$d.3+0x4a>
  102a70:	f29ff06f          	j	102998 <boot_fat32_load_file+0x78>
  102a74:	01212c23          	sw	s2,24(sp)
    s_printf("FAT32: remain set\n");
  102a78:	00104537          	lui	a0,0x104
  102a7c:	8e850513          	addi	a0,a0,-1816 # 1038e8 <$d.1+0x57>
  102a80:	ffffe097          	auipc	ra,0xffffe
  102a84:	3d0080e7          	jalr	976(ra) # 100e50 <s_printf>
        s_printf("FAT32: loop enter\n");
  102a88:	00103537          	lui	a0,0x103
  102a8c:	1f450513          	addi	a0,a0,500 # 1031f4 <boot_fat32_load_mem_file+0x45c>
  102a90:	02a12623          	sw	a0,44(sp)
  102a94:	ffffe097          	auipc	ra,0xffffe
  102a98:	3bc080e7          	jalr	956(ra) # 100e50 <s_printf>
  102a9c:	00103537          	lui	a0,0x103
  102aa0:	4f050513          	addi	a0,a0,1264 # 1034f0 <$d.1+0x1ea>
  102aa4:	100005b7          	lui	a1,0x10000
  102aa8:	ff758693          	addi	a3,a1,-9 # ffffff7 <_stack_top+0xfef4057>
  102aac:	00103637          	lui	a2,0x103
  102ab0:	3d760613          	addi	a2,a2,983 # 1033d7 <$d.1+0xd1>
  102ab4:	00c12623          	sw	a2,12(sp)
  102ab8:	00104637          	lui	a2,0x104
  102abc:	8d760613          	addi	a2,a2,-1833 # 1038d7 <$d.1+0x46>
  102ac0:	04c12023          	sw	a2,64(sp)
  102ac4:	00104a37          	lui	s4,0x104
  102ac8:	00103637          	lui	a2,0x103
  102acc:	7e760613          	addi	a2,a2,2023 # 1037e7 <$d.3+0x1f9>
  102ad0:	02c12e23          	sw	a2,60(sp)
  102ad4:	00103637          	lui	a2,0x103
  102ad8:	6d760613          	addi	a2,a2,1751 # 1036d7 <$d.3+0xe9>
  102adc:	02c12223          	sw	a2,36(sp)
  102ae0:	ff858593          	addi	a1,a1,-8
  102ae4:	02b12c23          	sw	a1,56(sp)
  102ae8:	001035b7          	lui	a1,0x103
  102aec:	7f658593          	addi	a1,a1,2038 # 1037f6 <$d.3+0x208>
  102af0:	02b12023          	sw	a1,32(sp)
  102af4:	001035b7          	lui	a1,0x103
  102af8:	38c58593          	addi	a1,a1,908 # 10338c <$d.1+0x86>
  102afc:	00b12423          	sw	a1,8(sp)
  102b00:	00104b37          	lui	s6,0x104
  102b04:	001085b7          	lui	a1,0x108
  102b08:	ba058593          	addi	a1,a1,-1120 # 107ba0 <fat32_buf>
  102b0c:	00b12e23          	sw	a1,28(sp)
  102b10:	001035b7          	lui	a1,0x103
  102b14:	64a58d13          	addi	s10,a1,1610 # 10364a <$d.3+0x5c>
  102b18:	001085b7          	lui	a1,0x108
  102b1c:	da058d93          	addi	s11,a1,-608 # 107da0 <file_buf>
  102b20:	001035b7          	lui	a1,0x103
  102b24:	49b58593          	addi	a1,a1,1179 # 10349b <$d.1+0x195>
  102b28:	00b12a23          	sw	a1,20(sp)
  102b2c:	001045b7          	lui	a1,0x104
  102b30:	8fb58c93          	addi	s9,a1,-1797 # 1038fb <$d.1+0x6a>
  102b34:	001035b7          	lui	a1,0x103
  102b38:	6c758b93          	addi	s7,a1,1735 # 1036c7 <$d.3+0xd9>
  102b3c:	001035b7          	lui	a1,0x103
  102b40:	6ec58593          	addi	a1,a1,1772 # 1036ec <$d.3+0xfe>
  102b44:	00b12823          	sw	a1,16(sp)
  102b48:	001045b7          	lui	a1,0x104
  102b4c:	98458593          	addi	a1,a1,-1660 # 103984 <$d.1>
  102b50:	02b12a23          	sw	a1,52(sp)
  102b54:	02a12823          	sw	a0,48(sp)
  102b58:	02d12423          	sw	a3,40(sp)
  102b5c:	02c0006f          	j	102b88 <boot_fat32_load_file+0x268>
        cluster = boot_fat32_next_cluster(cluster);
  102b60:	05812423          	sw	s8,72(sp)
  102b64:	02012503          	lw	a0,32(sp)
        s_printf("FAT32: next cluster ok\n");
  102b68:	ffffe097          	auipc	ra,0xffffe
  102b6c:	2e8080e7          	jalr	744(ra) # 100e50 <s_printf>
  102b70:	02c12503          	lw	a0,44(sp)
        s_printf("FAT32: loop enter\n");
  102b74:	ffffe097          	auipc	ra,0xffffe
  102b78:	2dc080e7          	jalr	732(ra) # 100e50 <s_printf>
  102b7c:	03012503          	lw	a0,48(sp)
  102b80:	02812683          	lw	a3,40(sp)
        if (cluster < 2u) {
  102b84:	215c6663          	bltu	s8,s5,102d90 <boot_fat32_load_file+0x470>
        if (cluster == FAT32_BAD_CLUSTER) {
  102b88:	e0dc08e3          	beq	s8,a3,102998 <boot_fat32_load_file+0x78>
        if (cluster >= FAT32_EOC_MIN) {
  102b8c:	1f86ee63          	bltu	a3,s8,102d88 <boot_fat32_load_file+0x468>
  102b90:	04012503          	lw	a0,64(sp)
        s_printf("FAT32: calc lba\n");
  102b94:	ffffe097          	auipc	ra,0xffffe
  102b98:	2bc080e7          	jalr	700(ra) # 100e50 <s_printf>
    if (g_sectors_per_cluster == 1u)   return 0u;
  102b9c:	b88a2583          	lw	a1,-1144(s4) # 103b88 <g_sectors_per_cluster>
  102ba0:	fff58513          	addi	a0,a1,-1
  102ba4:	03f00613          	li	a2,63
  102ba8:	02a66263          	bltu	a2,a0,102bcc <boot_fat32_load_file+0x2ac>
  102bac:	00251513          	slli	a0,a0,0x2
  102bb0:	03412583          	lw	a1,52(sp)
  102bb4:	00b50533          	add	a0,a0,a1
  102bb8:	00052583          	lw	a1,0(a0)
  102bbc:	00000513          	li	a0,0
  102bc0:	00058067          	jr	a1
  102bc4:	00100513          	li	a0,1
  102bc8:	0500006f          	j	102c18 <boot_fat32_load_file+0x2f8>
  102bcc:	08000513          	li	a0,128
  102bd0:	00a59663          	bne	a1,a0,102bdc <boot_fat32_load_file+0x2bc>
  102bd4:	00700513          	li	a0,7
  102bd8:	0400006f          	j	102c18 <boot_fat32_load_file+0x2f8>
  102bdc:	01012503          	lw	a0,16(sp)
        s_printf("FAT32: bad spc shift\n");
  102be0:	ffffe097          	auipc	ra,0xffffe
  102be4:	270080e7          	jalr	624(ra) # 100e50 <s_printf>
        return g_data_begin_lba;
  102be8:	00104537          	lui	a0,0x104
  102bec:	b8452c03          	lw	s8,-1148(a0) # 103b84 <g_data_begin_lba>
  102bf0:	03c0006f          	j	102c2c <boot_fat32_load_file+0x30c>
  102bf4:	00600513          	li	a0,6
  102bf8:	0200006f          	j	102c18 <boot_fat32_load_file+0x2f8>
  102bfc:	00200513          	li	a0,2
  102c00:	0180006f          	j	102c18 <boot_fat32_load_file+0x2f8>
  102c04:	00300513          	li	a0,3
  102c08:	0100006f          	j	102c18 <boot_fat32_load_file+0x2f8>
  102c0c:	00400513          	li	a0,4
  102c10:	0080006f          	j	102c18 <boot_fat32_load_file+0x2f8>
  102c14:	00500513          	li	a0,5
    return g_data_begin_lba + ((cluster - 2u) << shift);
  102c18:	001045b7          	lui	a1,0x104
  102c1c:	b845a583          	lw	a1,-1148(a1) # 103b84 <g_data_begin_lba>
  102c20:	ffec0c13          	addi	s8,s8,-2
  102c24:	00ac1c33          	sll	s8,s8,a0
  102c28:	01858c33          	add	s8,a1,s8
  102c2c:	03c12503          	lw	a0,60(sp)
        s_printf("FAT32: lba ok\n");
  102c30:	ffffe097          	auipc	ra,0xffffe
  102c34:	220080e7          	jalr	544(ra) # 100e50 <s_printf>
        for (uint32_t s = 0; s < g_sectors_per_cluster; s++) {
  102c38:	b88a2503          	lw	a0,-1144(s4)
  102c3c:	08050663          	beqz	a0,102cc8 <boot_fat32_load_file+0x3a8>
  102c40:	00000a93          	li	s5,0
  102c44:	00048913          	mv	s2,s1
            if (remain == 0u)
  102c48:	10098063          	beqz	s3,102d48 <boot_fat32_load_file+0x428>
            s_printf("FAT32: read file sector\n");
  102c4c:	000d0513          	mv	a0,s10
  102c50:	ffffe097          	auipc	ra,0xffffe
  102c54:	200080e7          	jalr	512(ra) # 100e50 <s_printf>
            if (g_read_sector(lba + s, file_buf)) {
  102c58:	b8cb2603          	lw	a2,-1140(s6) # 103b8c <g_read_sector>
  102c5c:	018a8533          	add	a0,s5,s8
  102c60:	000d8593          	mv	a1,s11
  102c64:	000600e7          	jalr	a2
  102c68:	10051863          	bnez	a0,102d78 <boot_fat32_load_file+0x458>
            s_printf("FAT32: file sector ok\n");
  102c6c:	000c8513          	mv	a0,s9
  102c70:	ffffe097          	auipc	ra,0xffffe
  102c74:	1e0080e7          	jalr	480(ra) # 100e50 <s_printf>
  102c78:	20000593          	li	a1,512
  102c7c:	00098513          	mv	a0,s3
            copy_size = (remain > 512u) ? 512u : remain;
  102c80:	00b9e463          	bltu	s3,a1,102c88 <boot_fat32_load_file+0x368>
  102c84:	20000513          	li	a0,512
            for (uint32_t i = 0; i < copy_size; i++)
  102c88:	00a904b3          	add	s1,s2,a0
  102c8c:	000d8593          	mv	a1,s11
                dst[i] = file_buf[i];
  102c90:	0005c603          	lbu	a2,0(a1)
  102c94:	00c90023          	sb	a2,0(s2)
            for (uint32_t i = 0; i < copy_size; i++)
  102c98:	00190913          	addi	s2,s2,1
  102c9c:	00158593          	addi	a1,a1,1
  102ca0:	fe9918e3          	bne	s2,s1,102c90 <boot_fat32_load_file+0x370>
            remain -= copy_size;
  102ca4:	40a989b3          	sub	s3,s3,a0
            s_printf("FAT32: copy ok\n");
  102ca8:	000b8513          	mv	a0,s7
  102cac:	ffffe097          	auipc	ra,0xffffe
  102cb0:	1a4080e7          	jalr	420(ra) # 100e50 <s_printf>
        for (uint32_t s = 0; s < g_sectors_per_cluster; s++) {
  102cb4:	b88a2503          	lw	a0,-1144(s4)
  102cb8:	001a8a93          	addi	s5,s5,1
  102cbc:	00048913          	mv	s2,s1
  102cc0:	f8aae4e3          	bltu	s5,a0,102c48 <boot_fat32_load_file+0x328>
        if (remain == 0u) {
  102cc4:	08098263          	beqz	s3,102d48 <boot_fat32_load_file+0x428>
  102cc8:	02412503          	lw	a0,36(sp)
        s_printf("FAT32: next cluster\n");
  102ccc:	ffffe097          	auipc	ra,0xffffe
  102cd0:	184080e7          	jalr	388(ra) # 100e50 <s_printf>
        cluster = boot_fat32_next_cluster(cluster);
  102cd4:	04812903          	lw	s2,72(sp)
  102cd8:	03812c03          	lw	s8,56(sp)
  102cdc:	00200a93          	li	s5,2
    if (cluster < 2u)
  102ce0:	e95960e3          	bltu	s2,s5,102b60 <boot_fat32_load_file+0x240>
    uint32_t fat_lba    = g_fat_begin_lba + (fat_offset / 512u);
  102ce4:	00104537          	lui	a0,0x104
  102ce8:	b9852503          	lw	a0,-1128(a0) # 103b98 <g_fat_begin_lba>
    if (g_read_sector(fat_lba, fat32_buf))
  102cec:	b8cb2603          	lw	a2,-1140(s6)
  102cf0:	00291913          	slli	s2,s2,0x2
    uint32_t fat_lba    = g_fat_begin_lba + (fat_offset / 512u);
  102cf4:	00995593          	srli	a1,s2,0x9
  102cf8:	00b50533          	add	a0,a0,a1
  102cfc:	01c12583          	lw	a1,28(sp)
    if (g_read_sector(fat_lba, fat32_buf))
  102d00:	000600e7          	jalr	a2
  102d04:	03812c03          	lw	s8,56(sp)
  102d08:	e4051ce3          	bnez	a0,102b60 <boot_fat32_load_file+0x240>
  102d0c:	1fc97513          	andi	a0,s2,508
  102d10:	01c12583          	lw	a1,28(sp)
    next = rd32(&fat32_buf[ent_off]);
  102d14:	00a58533          	add	a0,a1,a0
           ((uint32_t)p[1] << 8) |
  102d18:	00154583          	lbu	a1,1(a0)
    return ((uint32_t)p[0]) |
  102d1c:	00054603          	lbu	a2,0(a0)
           ((uint32_t)p[2] << 16) |
  102d20:	00254683          	lbu	a3,2(a0)
           ((uint32_t)p[1] << 8) |
  102d24:	00859593          	slli	a1,a1,0x8
           ((uint32_t)p[3] << 24);
  102d28:	00354503          	lbu	a0,3(a0)
    return ((uint32_t)p[0]) |
  102d2c:	00c5e5b3          	or	a1,a1,a2
           ((uint32_t)p[2] << 16) |
  102d30:	01069693          	slli	a3,a3,0x10
           ((uint32_t)p[1] << 8) |
  102d34:	00d5e5b3          	or	a1,a1,a3
    next &= 0x0FFFFFFFu;
  102d38:	01c51513          	slli	a0,a0,0x1c
  102d3c:	00455513          	srli	a0,a0,0x4
  102d40:	00a5ec33          	or	s8,a1,a0
  102d44:	e1dff06f          	j	102b60 <boot_fat32_load_file+0x240>
            s_printf("FAT32: file complete\n");
  102d48:	00103537          	lui	a0,0x103
  102d4c:	35e50513          	addi	a0,a0,862 # 10335e <$d.1+0x58>
  102d50:	ffffe097          	auipc	ra,0xffffe
  102d54:	100080e7          	jalr	256(ra) # 100e50 <s_printf>
  102d58:	00104537          	lui	a0,0x104
  102d5c:	8a450513          	addi	a0,a0,-1884 # 1038a4 <$d.1+0x13>
  102d60:	01812603          	lw	a2,24(sp)
    if (loaded_size)
  102d64:	00060e63          	beqz	a2,102d80 <boot_fat32_load_file+0x460>
        *loaded_size = size;
  102d68:	04412583          	lw	a1,68(sp)
  102d6c:	00000413          	li	s0,0
  102d70:	00b62023          	sw	a1,0(a2)
  102d74:	c25ff06f          	j	102998 <boot_fat32_load_file+0x78>
  102d78:	01412503          	lw	a0,20(sp)
  102d7c:	c1dff06f          	j	102998 <boot_fat32_load_file+0x78>
  102d80:	00000413          	li	s0,0
  102d84:	c15ff06f          	j	102998 <boot_fat32_load_file+0x78>
  102d88:	00c12503          	lw	a0,12(sp)
  102d8c:	c0dff06f          	j	102998 <boot_fat32_load_file+0x78>
  102d90:	00812503          	lw	a0,8(sp)
  102d94:	c05ff06f          	j	102998 <boot_fat32_load_file+0x78>

00102d98 <boot_fat32_load_mem_file>:
int boot_fat32_load_mem_file(
    const char *name,
    uint32_t dst_addr,
    uint32_t *loaded_words
)
{
  102d98:	f9010113          	addi	sp,sp,-112
  102d9c:	06112623          	sw	ra,108(sp)
  102da0:	06812423          	sw	s0,104(sp)
  102da4:	06912223          	sw	s1,100(sp)
  102da8:	07212023          	sw	s2,96(sp)
  102dac:	05312e23          	sw	s3,92(sp)
  102db0:	05412c23          	sw	s4,88(sp)
  102db4:	05512a23          	sw	s5,84(sp)
  102db8:	05612823          	sw	s6,80(sp)
  102dbc:	05712623          	sw	s7,76(sp)
  102dc0:	05812423          	sw	s8,72(sp)
  102dc4:	05912223          	sw	s9,68(sp)
  102dc8:	05a12023          	sw	s10,64(sp)
  102dcc:	03b12e23          	sw	s11,60(sp)
  102dd0:	00060493          	mv	s1,a2
  102dd4:	00058913          	mv	s2,a1
  102dd8:	00050413          	mv	s0,a0
    volatile uint32_t *dst;
    uint32_t words;
    uint32_t hex_count;
    uint32_t word;

    s_printf("FAT32: load mem enter\n");
  102ddc:	00104537          	lui	a0,0x104
  102de0:	96c50513          	addi	a0,a0,-1684 # 10396c <$d.1+0xdb>
  102de4:	ffffe097          	auipc	ra,0xffffe
  102de8:	06c080e7          	jalr	108(ra) # 100e50 <s_printf>

    if (boot_fat32_find(name, &cluster, &size)) {
  102dec:	03810593          	addi	a1,sp,56
  102df0:	03410613          	addi	a2,sp,52
  102df4:	00040513          	mv	a0,s0
  102df8:	fffff097          	auipc	ra,0xfffff
  102dfc:	698080e7          	jalr	1688(ra) # 102490 <boot_fat32_find>
  102e00:	fff00413          	li	s0,-1
  102e04:	04050a63          	beqz	a0,102e58 <boot_fat32_load_mem_file+0xc0>
  102e08:	00103537          	lui	a0,0x103
  102e0c:	72650513          	addi	a0,a0,1830 # 103726 <$d.3+0x138>
  102e10:	ffffe097          	auipc	ra,0xffffe
  102e14:	040080e7          	jalr	64(ra) # 100e50 <s_printf>
        *loaded_words = words;

    s_printf("FAT32: load mem done\n");

    return 0;
  102e18:	00040513          	mv	a0,s0
  102e1c:	06c12083          	lw	ra,108(sp)
  102e20:	06812403          	lw	s0,104(sp)
  102e24:	06412483          	lw	s1,100(sp)
  102e28:	06012903          	lw	s2,96(sp)
  102e2c:	05c12983          	lw	s3,92(sp)
  102e30:	05812a03          	lw	s4,88(sp)
  102e34:	05412a83          	lw	s5,84(sp)
  102e38:	05012b03          	lw	s6,80(sp)
  102e3c:	04c12b83          	lw	s7,76(sp)
  102e40:	04812c03          	lw	s8,72(sp)
  102e44:	04412c83          	lw	s9,68(sp)
  102e48:	04012d03          	lw	s10,64(sp)
  102e4c:	03c12d83          	lw	s11,60(sp)
  102e50:	07010113          	addi	sp,sp,112
  102e54:	00008067          	ret
    s_printf("FAT32: find ok\n");
  102e58:	00103537          	lui	a0,0x103
  102e5c:	1e450513          	addi	a0,a0,484 # 1031e4 <boot_fat32_load_mem_file+0x44c>
  102e60:	ffffe097          	auipc	ra,0xffffe
  102e64:	ff0080e7          	jalr	-16(ra) # 100e50 <s_printf>
    if (size == 0u) {
  102e68:	03412b83          	lw	s7,52(sp)
  102e6c:	000b8e63          	beqz	s7,102e88 <boot_fat32_load_mem_file+0xf0>
    if (cluster < 2u) {
  102e70:	03812603          	lw	a2,56(sp)
  102e74:	00200513          	li	a0,2
  102e78:	00a67e63          	bgeu	a2,a0,102e94 <boot_fat32_load_mem_file+0xfc>
  102e7c:	00103537          	lui	a0,0x103
  102e80:	73a50513          	addi	a0,a0,1850 # 10373a <$d.3+0x14c>
  102e84:	f8dff06f          	j	102e10 <boot_fat32_load_mem_file+0x78>
  102e88:	00103537          	lui	a0,0x103
  102e8c:	63850513          	addi	a0,a0,1592 # 103638 <$d.3+0x4a>
  102e90:	f81ff06f          	j	102e10 <boot_fat32_load_mem_file+0x78>
  102e94:	00912a23          	sw	s1,20(sp)
  102e98:	00000c93          	li	s9,0
  102e9c:	00000d93          	li	s11,0
  102ea0:	00000a93          	li	s5,0
  102ea4:	00103537          	lui	a0,0x103
  102ea8:	4f050513          	addi	a0,a0,1264 # 1034f0 <$d.1+0x1ea>
  102eac:	00a12823          	sw	a0,16(sp)
  102eb0:	10000537          	lui	a0,0x10000
  102eb4:	ff750413          	addi	s0,a0,-9 # ffffff7 <_stack_top+0xfef4057>
  102eb8:	00103537          	lui	a0,0x103
  102ebc:	3d750513          	addi	a0,a0,983 # 1033d7 <$d.1+0xd1>
  102ec0:	00a12623          	sw	a0,12(sp)
  102ec4:	00108537          	lui	a0,0x108
  102ec8:	da050813          	addi	a6,a0,-608 # 107da0 <file_buf>
  102ecc:	00103537          	lui	a0,0x103
  102ed0:	49b50513          	addi	a0,a0,1179 # 10349b <$d.1+0x195>
  102ed4:	00a12e23          	sw	a0,28(sp)
  102ed8:	00900b13          	li	s6,9
  102edc:	00800c13          	li	s8,8
  102ee0:	01700493          	li	s1,23
  102ee4:	00800d37          	lui	s10,0x800
  102ee8:	013d0d13          	addi	s10,s10,19 # 800013 <_stack_top+0x6f4073>
  102eec:	00500a13          	li	s4,5
  102ef0:	00108537          	lui	a0,0x108
  102ef4:	ba050593          	addi	a1,a0,-1120 # 107ba0 <fat32_buf>
  102ef8:	00103537          	lui	a0,0x103
  102efc:	38c50513          	addi	a0,a0,908 # 10338c <$d.1+0x86>
  102f00:	00a12423          	sw	a0,8(sp)
  102f04:	00103537          	lui	a0,0x103
  102f08:	6ec50513          	addi	a0,a0,1772 # 1036ec <$d.3+0xfe>
  102f0c:	00a12c23          	sw	a0,24(sp)
  102f10:	00104537          	lui	a0,0x104
  102f14:	a8450713          	addi	a4,a0,-1404 # 103a84 <$d.1+0x100>
  102f18:	02812423          	sw	s0,40(sp)
  102f1c:	02b12223          	sw	a1,36(sp)
  102f20:	02e12023          	sw	a4,32(sp)
        if (cluster == FAT32_BAD_CLUSTER) {
  102f24:	26860c63          	beq	a2,s0,10319c <boot_fat32_load_mem_file+0x404>
        if (cluster >= FAT32_EOC_MIN) {
  102f28:	28c46063          	bltu	s0,a2,1031a8 <boot_fat32_load_mem_file+0x410>
    if (g_sectors_per_cluster == 1u)   return 0u;
  102f2c:	00104537          	lui	a0,0x104
  102f30:	b8852583          	lw	a1,-1144(a0) # 103b88 <g_sectors_per_cluster>
  102f34:	fff58513          	addi	a0,a1,-1
  102f38:	03f00693          	li	a3,63
  102f3c:	02c12623          	sw	a2,44(sp)
  102f40:	02a6e063          	bltu	a3,a0,102f60 <boot_fat32_load_mem_file+0x1c8>
  102f44:	00251513          	slli	a0,a0,0x2
  102f48:	00e50533          	add	a0,a0,a4
  102f4c:	00052583          	lw	a1,0(a0)
  102f50:	00000513          	li	a0,0
  102f54:	00058067          	jr	a1
  102f58:	00100513          	li	a0,1
  102f5c:	0680006f          	j	102fc4 <boot_fat32_load_mem_file+0x22c>
  102f60:	08000513          	li	a0,128
  102f64:	00a59663          	bne	a1,a0,102f70 <boot_fat32_load_mem_file+0x1d8>
  102f68:	00700513          	li	a0,7
  102f6c:	0580006f          	j	102fc4 <boot_fat32_load_mem_file+0x22c>
  102f70:	00080993          	mv	s3,a6
  102f74:	01812503          	lw	a0,24(sp)
        s_printf("FAT32: bad spc shift\n");
  102f78:	ffffe097          	auipc	ra,0xffffe
  102f7c:	ed8080e7          	jalr	-296(ra) # 100e50 <s_printf>
        for (uint32_t s = 0; s < g_sectors_per_cluster; s++) {
  102f80:	00104537          	lui	a0,0x104
  102f84:	b8852503          	lw	a0,-1144(a0) # 103b88 <g_sectors_per_cluster>
  102f88:	14050063          	beqz	a0,1030c8 <boot_fat32_load_mem_file+0x330>
  102f8c:	00104537          	lui	a0,0x104
  102f90:	b8452503          	lw	a0,-1148(a0) # 103b84 <g_data_begin_lba>
  102f94:	02a12823          	sw	a0,48(sp)
  102f98:	00098813          	mv	a6,s3
  102f9c:	0400006f          	j	102fdc <boot_fat32_load_mem_file+0x244>
  102fa0:	00600513          	li	a0,6
  102fa4:	0200006f          	j	102fc4 <boot_fat32_load_mem_file+0x22c>
  102fa8:	00200513          	li	a0,2
  102fac:	0180006f          	j	102fc4 <boot_fat32_load_mem_file+0x22c>
  102fb0:	00300513          	li	a0,3
  102fb4:	0100006f          	j	102fc4 <boot_fat32_load_mem_file+0x22c>
  102fb8:	00400513          	li	a0,4
  102fbc:	0080006f          	j	102fc4 <boot_fat32_load_mem_file+0x22c>
  102fc0:	00500513          	li	a0,5
    return g_data_begin_lba + ((cluster - 2u) << shift);
  102fc4:	001045b7          	lui	a1,0x104
  102fc8:	b845a583          	lw	a1,-1148(a1) # 103b84 <g_data_begin_lba>
  102fcc:	ffe60613          	addi	a2,a2,-2
  102fd0:	00a61533          	sll	a0,a2,a0
  102fd4:	00a58533          	add	a0,a1,a0
  102fd8:	02a12823          	sw	a0,48(sp)
  102fdc:	00000413          	li	s0,0
  102fe0:	0180006f          	j	102ff8 <boot_fat32_load_mem_file+0x260>
        for (uint32_t s = 0; s < g_sectors_per_cluster; s++) {
  102fe4:	001045b7          	lui	a1,0x104
  102fe8:	b885a583          	lw	a1,-1144(a1) # 103b88 <g_sectors_per_cluster>
  102fec:	00140413          	addi	s0,s0,1
  102ff0:	40ab8bb3          	sub	s7,s7,a0
  102ff4:	0cb47863          	bgeu	s0,a1,1030c4 <boot_fat32_load_mem_file+0x32c>
            if (remain == 0u)
  102ff8:	160b8663          	beqz	s7,103164 <boot_fat32_load_mem_file+0x3cc>
            if (g_read_sector(lba + s, file_buf)) {
  102ffc:	00104537          	lui	a0,0x104
  103000:	b8c52603          	lw	a2,-1140(a0) # 103b8c <g_read_sector>
  103004:	03012503          	lw	a0,48(sp)
  103008:	00a40533          	add	a0,s0,a0
  10300c:	00080993          	mv	s3,a6
  103010:	00080593          	mv	a1,a6
  103014:	000600e7          	jalr	a2
  103018:	14051e63          	bnez	a0,103174 <boot_fat32_load_mem_file+0x3dc>
  10301c:	20000593          	li	a1,512
  103020:	000b8513          	mv	a0,s7
            sector_bytes = (remain > 512u) ? 512u : remain;
  103024:	00bbe463          	bltu	s7,a1,10302c <boot_fat32_load_mem_file+0x294>
  103028:	20000513          	li	a0,512
  10302c:	00098813          	mv	a6,s3
  103030:	00098593          	mv	a1,s3
  103034:	00050613          	mv	a2,a0
  103038:	0100006f          	j	103048 <boot_fat32_load_mem_file+0x2b0>
            for (uint32_t i = 0; i < sector_bytes; i++) {
  10303c:	fff60613          	addi	a2,a2,-1
  103040:	00158593          	addi	a1,a1,1
  103044:	fa0600e3          	beqz	a2,102fe4 <boot_fat32_load_mem_file+0x24c>
                char c = (char)file_buf[i];
  103048:	0005c683          	lbu	a3,0(a1)
    if (c >= '0' && c <= '9')
  10304c:	fd068713          	addi	a4,a3,-48
  103050:	0ff77793          	zext.b	a5,a4
  103054:	00fb7a63          	bgeu	s6,a5,103068 <boot_fat32_load_mem_file+0x2d0>
    if (c >= 'a' && c <= 'f')
  103058:	f9f68713          	addi	a4,a3,-97
  10305c:	0ff77713          	zext.b	a4,a4
  103060:	02ea6c63          	bltu	s4,a4,103098 <boot_fat32_load_mem_file+0x300>
        return c - 'a' + 10;
  103064:	fa968713          	addi	a4,a3,-87
                if (h >= 0) {
  103068:	04074263          	bltz	a4,1030ac <boot_fat32_load_mem_file+0x314>
                    word = (word << 4) | (uint32_t)h;
  10306c:	004a9a93          	slli	s5,s5,0x4
                    hex_count++;
  103070:	001d8d93          	addi	s11,s11,1
                    word = (word << 4) | (uint32_t)h;
  103074:	01576ab3          	or	s5,a4,s5
                    if (hex_count == 8u) {
  103078:	fd8d92e3          	bne	s11,s8,10303c <boot_fat32_load_mem_file+0x2a4>
  10307c:	00000d93          	li	s11,0
                        dst[words] = word;
  103080:	002c9693          	slli	a3,s9,0x2
  103084:	00d906b3          	add	a3,s2,a3
  103088:	0156a023          	sw	s5,0(a3)
                        words++;
  10308c:	001c8c93          	addi	s9,s9,1
  103090:	00000a93          	li	s5,0
  103094:	fa9ff06f          	j	10303c <boot_fat32_load_mem_file+0x2a4>
    if (c >= 'A' && c <= 'F')
  103098:	fbf68713          	addi	a4,a3,-65
  10309c:	0ff77713          	zext.b	a4,a4
  1030a0:	00ea6663          	bltu	s4,a4,1030ac <boot_fat32_load_mem_file+0x314>
  1030a4:	fc968713          	addi	a4,a3,-55
                if (h >= 0) {
  1030a8:	fc0752e3          	bgez	a4,10306c <boot_fat32_load_mem_file+0x2d4>
                    if (c == '\r' || c == '\n' || c == ' ' || c == '\t') {
  1030ac:	ff768693          	addi	a3,a3,-9
  1030b0:	0ad4e463          	bltu	s1,a3,103158 <boot_fat32_load_mem_file+0x3c0>
  1030b4:	00dd56b3          	srl	a3,s10,a3
  1030b8:	0016f693          	andi	a3,a3,1
  1030bc:	f80690e3          	bnez	a3,10303c <boot_fat32_load_mem_file+0x2a4>
  1030c0:	0980006f          	j	103158 <boot_fat32_load_mem_file+0x3c0>
        if (remain == 0u)
  1030c4:	0a0b8063          	beqz	s7,103164 <boot_fat32_load_mem_file+0x3cc>
    uint32_t fat_lba    = g_fat_begin_lba + (fat_offset / 512u);
  1030c8:	00104537          	lui	a0,0x104
  1030cc:	b9852503          	lw	a0,-1128(a0) # 103b98 <g_fat_begin_lba>
    if (g_read_sector(fat_lba, fat32_buf))
  1030d0:	001045b7          	lui	a1,0x104
  1030d4:	b8c5a603          	lw	a2,-1140(a1) # 103b8c <g_read_sector>
  1030d8:	02c12583          	lw	a1,44(sp)
    uint32_t fat_lba    = g_fat_begin_lba + (fat_offset / 512u);
  1030dc:	0075d593          	srli	a1,a1,0x7
  1030e0:	00b50533          	add	a0,a0,a1
  1030e4:	02412403          	lw	s0,36(sp)
    if (g_read_sector(fat_lba, fat32_buf))
  1030e8:	00040593          	mv	a1,s0
  1030ec:	000600e7          	jalr	a2
  1030f0:	00050863          	beqz	a0,103100 <boot_fat32_load_mem_file+0x368>
  1030f4:	10000637          	lui	a2,0x10000
  1030f8:	ff860613          	addi	a2,a2,-8 # ffffff8 <_stack_top+0xfef4058>
  1030fc:	0400006f          	j	10313c <boot_fat32_load_mem_file+0x3a4>
  103100:	02c12503          	lw	a0,44(sp)
    uint32_t ent_off    = fat_offset & 0x1FFu;
  103104:	01951513          	slli	a0,a0,0x19
  103108:	01755513          	srli	a0,a0,0x17
    next = rd32(&fat32_buf[ent_off]);
  10310c:	00a40533          	add	a0,s0,a0
           ((uint32_t)p[1] << 8) |
  103110:	00154583          	lbu	a1,1(a0)
    return ((uint32_t)p[0]) |
  103114:	00054603          	lbu	a2,0(a0)
           ((uint32_t)p[2] << 16) |
  103118:	00254683          	lbu	a3,2(a0)
           ((uint32_t)p[1] << 8) |
  10311c:	00859593          	slli	a1,a1,0x8
           ((uint32_t)p[3] << 24);
  103120:	00354503          	lbu	a0,3(a0)
    return ((uint32_t)p[0]) |
  103124:	00c5e5b3          	or	a1,a1,a2
           ((uint32_t)p[2] << 16) |
  103128:	01069693          	slli	a3,a3,0x10
           ((uint32_t)p[1] << 8) |
  10312c:	00d5e5b3          	or	a1,a1,a3
    next &= 0x0FFFFFFFu;
  103130:	01c51513          	slli	a0,a0,0x1c
  103134:	00455513          	srli	a0,a0,0x4
  103138:	00a5e633          	or	a2,a1,a0
  10313c:	02812403          	lw	s0,40(sp)
  103140:	00098813          	mv	a6,s3
  103144:	00200513          	li	a0,2
  103148:	02012703          	lw	a4,32(sp)
        if (cluster < 2u) {
  10314c:	dca67ce3          	bgeu	a2,a0,102f24 <boot_fat32_load_mem_file+0x18c>
  103150:	00812503          	lw	a0,8(sp)
  103154:	0240006f          	j	103178 <boot_fat32_load_mem_file+0x3e0>
  103158:	00103537          	lui	a0,0x103
  10315c:	6b050513          	addi	a0,a0,1712 # 1036b0 <$d.3+0xc2>
  103160:	0180006f          	j	103178 <boot_fat32_load_mem_file+0x3e0>
    if (hex_count != 0u) {
  103164:	000d8e63          	beqz	s11,103180 <boot_fat32_load_mem_file+0x3e8>
  103168:	00103537          	lui	a0,0x103
  10316c:	75850513          	addi	a0,a0,1880 # 103758 <$d.3+0x16a>
  103170:	0080006f          	j	103178 <boot_fat32_load_mem_file+0x3e0>
  103174:	01c12503          	lw	a0,28(sp)
  103178:	fff00413          	li	s0,-1
  10317c:	c95ff06f          	j	102e10 <boot_fat32_load_mem_file+0x78>
  103180:	00104537          	lui	a0,0x104
  103184:	80e50513          	addi	a0,a0,-2034 # 10380e <$d.3+0x220>
  103188:	01412583          	lw	a1,20(sp)
    if (loaded_words)
  10318c:	02058263          	beqz	a1,1031b0 <boot_fat32_load_mem_file+0x418>
  103190:	00000413          	li	s0,0
        *loaded_words = words;
  103194:	0195a023          	sw	s9,0(a1)
  103198:	c79ff06f          	j	102e10 <boot_fat32_load_mem_file+0x78>
  10319c:	fff00413          	li	s0,-1
  1031a0:	01012503          	lw	a0,16(sp)
  1031a4:	c6dff06f          	j	102e10 <boot_fat32_load_mem_file+0x78>
  1031a8:	00c12503          	lw	a0,12(sp)
  1031ac:	fcdff06f          	j	103178 <boot_fat32_load_mem_file+0x3e0>
  1031b0:	00000413          	li	s0,0
  1031b4:	c5dff06f          	j	102e10 <boot_fat32_load_mem_file+0x78>

セクション .rodata の逆アセンブル:

001031b8 <$d.1-0x14e>:
  1031b8:	4146                	.insn	2, 0x4146
  1031ba:	3354                	.insn	2, 0x3354
  1031bc:	3a32                	.insn	2, 0x3a32
  1031be:	6220                	.insn	2, 0x6220
  1031c0:	6461                	.insn	2, 0x6461
  1031c2:	7220                	.insn	2, 0x7220
  1031c4:	5f746f6f          	jal	t5,149fba <_stack_top+0x3e01a>
  1031c8:	73756c63          	bltu	a0,s7,103900 <$d.1+0x6f>
  1031cc:	6574                	.insn	2, 0x6574
  1031ce:	0a72                	.insn	2, 0x0a72
  1031d0:	4600                	.insn	2, 0x4600
  1031d2:	5441                	.insn	2, 0x5441
  1031d4:	203a3233          	.insn	4, 0x203a3233
  1031d8:	6f72                	.insn	2, 0x6f72
  1031da:	4e20746f          	jal	s0,10a6bc <_stack_start+0x271c>
  1031de:	3220544f          	.insn	4, 0x3220544f
  1031e2:	000a                	.insn	2, 0x000a
  1031e4:	4146                	.insn	2, 0x4146
  1031e6:	3354                	.insn	2, 0x3354
  1031e8:	3a32                	.insn	2, 0x3a32
  1031ea:	6620                	.insn	2, 0x6620
  1031ec:	6e69                	.insn	2, 0x6e69
  1031ee:	2064                	.insn	2, 0x2064
  1031f0:	000a6b6f          	jal	s6,1a91f0 <_stack_top+0x9d250>
  1031f4:	4146                	.insn	2, 0x4146
  1031f6:	3354                	.insn	2, 0x3354
  1031f8:	3a32                	.insn	2, 0x3a32
  1031fa:	6c20                	.insn	2, 0x6c20
  1031fc:	20706f6f          	jal	t5,109c02 <_stack_start+0x1c62>
  103200:	6e65                	.insn	2, 0x6e65
  103202:	6574                	.insn	2, 0x6574
  103204:	0a72                	.insn	2, 0x0a72
  103206:	6b00                	.insn	2, 0x6b00
  103208:	7265                	.insn	2, 0x7265
  10320a:	656e                	.insn	2, 0x656e
  10320c:	5b6c                	.insn	2, 0x5b6c
  10320e:	5d32                	.insn	2, 0x5d32
  103210:	003d                	.insn	2, 0x003d
  103212:	4146                	.insn	2, 0x4146
  103214:	3354                	.insn	2, 0x3354
  103216:	3a32                	.insn	2, 0x3a32
  103218:	4220                	.insn	2, 0x4220
  10321a:	4250                	.insn	2, 0x4250
  10321c:	6920                	.insn	2, 0x6920
  10321e:	766e                	.insn	2, 0x766e
  103220:	6c61                	.insn	2, 0x6c61
  103222:	6469                	.insn	2, 0x6469
  103224:	000a                	.insn	2, 0x000a
  103226:	4146                	.insn	2, 0x4146
  103228:	3354                	.insn	2, 0x3354
  10322a:	3a32                	.insn	2, 0x3a32
  10322c:	6320                	.insn	2, 0x6320
  10322e:	6c61                	.insn	2, 0x6c61
  103230:	61662063          	.insn	4, 0x61662063
  103234:	0a74                	.insn	2, 0x0a74
  103236:	4300                	.insn	2, 0x4300
  103238:	4352                	.insn	2, 0x4352
  10323a:	4620                	.insn	2, 0x4620
  10323c:	4941                	.insn	2, 0x4941
  10323e:	454c                	.insn	2, 0x454c
  103240:	2044                	.insn	2, 0x2044
  103242:	6628                	.insn	2, 0x6628
  103244:	6e69                	.insn	2, 0x6e69
  103246:	6c61                	.insn	2, 0x6c61
  103248:	0a29                	.insn	2, 0x0a29
  10324a:	4600                	.insn	2, 0x4600
  10324c:	5441                	.insn	2, 0x5441
  10324e:	203a3233          	.insn	4, 0x203a3233
  103252:	6572                	.insn	2, 0x6572
  103254:	6461                	.insn	2, 0x6461
  103256:	4220                	.insn	2, 0x4220
  103258:	4250                	.insn	2, 0x4250
  10325a:	6f20                	.insn	2, 0x6f20
  10325c:	46000a6b          	.insn	4, 0x46000a6b
  103260:	5441                	.insn	2, 0x5441
  103262:	203a3233          	.insn	4, 0x203a3233
  103266:	5042                	.insn	2, 0x5042
  103268:	2042                	.insn	2, 0x2042
  10326a:	6176                	.insn	2, 0x6176
  10326c:	696c                	.insn	2, 0x696c
  10326e:	0a64                	.insn	2, 0x0a64
  103270:	4600                	.insn	2, 0x4600
  103272:	5441                	.insn	2, 0x5441
  103274:	203a3233          	.insn	4, 0x203a3233
  103278:	6170                	.insn	2, 0x6170
  10327a:	7372                	.insn	2, 0x7372
  10327c:	2065                	.insn	2, 0x2065
  10327e:	0a32                	.insn	2, 0x0a32
  103280:	4600                	.insn	2, 0x4600
  103282:	5441                	.insn	2, 0x5441
  103284:	203a3233          	.insn	4, 0x203a3233
  103288:	6f72                	.insn	2, 0x6f72
  10328a:	6920746f          	jal	s0,10a91c <_stack_start+0x297c>
  10328e:	0a322073          	csrs	0xa3,tp
  103292:	4b00                	.insn	2, 0x4b00
  103294:	5245                	.insn	2, 0x5245
  103296:	454e                	.insn	2, 0x454e
  103298:	2e4c                	.insn	2, 0x2e4c
  10329a:	454d                	.insn	2, 0x454d
  10329c:	204d                	.insn	2, 0x204d
  10329e:	6f6c                	.insn	2, 0x6f6c
  1032a0:	6461                	.insn	2, 0x6461
  1032a2:	6620                	.insn	2, 0x6620
  1032a4:	6961                	.insn	2, 0x6961
  1032a6:	656c                	.insn	2, 0x656c
  1032a8:	0a64                	.insn	2, 0x0a64
  1032aa:	7500                	.insn	2, 0x7500
  1032ac:	65676173          	csrrsi	sp,hviprio1h,14
  1032b0:	203a                	.insn	2, 0x203a
  1032b2:	7564                	.insn	2, 0x7564
  1032b4:	706d                	.insn	2, 0x706d
  1032b6:	5b20                	.insn	2, 0x5b20
  1032b8:	7366666f          	jal	a2,1699ee <_stack_top+0x5da4e>
  1032bc:	7465                	.insn	2, 0x7465
  1032be:	685f 7865 205d      	.insn	6, 0x205d7865685f
  1032c4:	6e656c5b          	.insn	4, 0x6e656c5b
  1032c8:	685f 7865 0a5d      	.insn	6, 0x0a5d7865685f
  1032ce:	3000                	.insn	2, 0x3000
  1032d0:	3231                	.insn	2, 0x3231
  1032d2:	36353433          	.insn	4, 0x36353433
  1032d6:	41393837          	lui	a6,0x41393
  1032da:	4342                	.insn	2, 0x4342
  1032dc:	4544                	.insn	2, 0x4544
  1032de:	0046                	.insn	2, 0x0046
  1032e0:	5355                	.insn	2, 0x5355
  1032e2:	5245                	.insn	2, 0x5245
  1032e4:	4d2e                	.insn	2, 0x4d2e
  1032e6:	4d45                	.insn	2, 0x4d45
  1032e8:	6c20                	.insn	2, 0x6c20
  1032ea:	2064616f          	jal	sp,1494f0 <_stack_top+0x3d550>
  1032ee:	6166                	.insn	2, 0x6166
  1032f0:	6c69                	.insn	2, 0x6c69
  1032f2:	6465                	.insn	2, 0x6465
  1032f4:	000a                	.insn	2, 0x000a
  1032f6:	20435243          	.insn	4, 0x20435243
  1032fa:	4146                	.insn	2, 0x4146
  1032fc:	4c49                	.insn	2, 0x4c49
  1032fe:	4445                	.insn	2, 0x4445
  103300:	6c20                	.insn	2, 0x6c20
  103302:	6162                	.insn	2, 0x6162
  103304:	003d                	.insn	2, 0x003d

00103306 <$d.1>:
  103306:	4552                	.insn	2, 0x4552
  103308:	4441                	.insn	2, 0x4441
  10330a:	4620                	.insn	2, 0x4620
  10330c:	4941                	.insn	2, 0x4941
  10330e:	204c                	.insn	2, 0x204c
  103310:	6572                	.insn	2, 0x6572
  103312:	7274                	.insn	2, 0x7274
  103314:	3d79                	.insn	2, 0x3d79
  103316:	6425                	.insn	2, 0x6425
  103318:	000a                	.insn	2, 0x000a
  10331a:	4146                	.insn	2, 0x4146
  10331c:	3354                	.insn	2, 0x3354
  10331e:	3a32                	.insn	2, 0x3a32
  103320:	7620                	.insn	2, 0x7620
  103322:	6c61                	.insn	2, 0x6c61
  103324:	6469                	.insn	2, 0x6469
  103326:	7461                	.insn	2, 0x7461
  103328:	0a65                	.insn	2, 0x0a65
  10332a:	4600                	.insn	2, 0x4600
  10332c:	5441                	.insn	2, 0x5441
  10332e:	203a3233          	.insn	4, 0x203a3233
  103332:	73756c63          	bltu	a0,s7,103a6a <$d.1+0xe6>
  103336:	6574                	.insn	2, 0x6574
  103338:	3d72                	.insn	2, 0x3d72
  10333a:	4600                	.insn	2, 0x4600
  10333c:	5441                	.insn	2, 0x5441
  10333e:	203a3233          	.insn	4, 0x203a3233
  103342:	6f6d                	.insn	2, 0x6f6d
  103344:	6e75                	.insn	2, 0x6e75
  103346:	2074                	.insn	2, 0x2074
  103348:	000a6b6f          	jal	s6,1a9348 <_stack_top+0x9d3a8>
  10334c:	4146                	.insn	2, 0x4146
  10334e:	3354                	.insn	2, 0x3354
  103350:	3a32                	.insn	2, 0x3a32
  103352:	6e20                	.insn	2, 0x6e20
  103354:	6620746f          	jal	s0,10a9b6 <_stack_start+0x2a16>
  103358:	646e756f          	jal	a0,1ea99e <_stack_top+0xde9fe>
  10335c:	000a                	.insn	2, 0x000a
  10335e:	4146                	.insn	2, 0x4146
  103360:	3354                	.insn	2, 0x3354
  103362:	3a32                	.insn	2, 0x3a32
  103364:	6620                	.insn	2, 0x6620
  103366:	6c69                	.insn	2, 0x6c69
  103368:	2065                	.insn	2, 0x2065
  10336a:	706d6f63          	bltu	s10,t1,103a88 <$d.1+0x104>
  10336e:	656c                	.insn	2, 0x656c
  103370:	6574                	.insn	2, 0x6574
  103372:	000a                	.insn	2, 0x000a
  103374:	4146                	.insn	2, 0x4146
  103376:	3354                	.insn	2, 0x3354
  103378:	3a32                	.insn	2, 0x3a32
  10337a:	7220                	.insn	2, 0x7220
  10337c:	6165                	.insn	2, 0x6165
  10337e:	2064                	.insn	2, 0x2064
  103380:	5042                	.insn	2, 0x5042
  103382:	2042                	.insn	2, 0x2042
  103384:	6166                	.insn	2, 0x6166
  103386:	6c69                	.insn	2, 0x6c69
  103388:	6465                	.insn	2, 0x6465
  10338a:	000a                	.insn	2, 0x000a
  10338c:	4146                	.insn	2, 0x4146
  10338e:	3354                	.insn	2, 0x3354
  103390:	3a32                	.insn	2, 0x3a32
  103392:	6320                	.insn	2, 0x6320
  103394:	756c                	.insn	2, 0x756c
  103396:	72657473          	csrrci	s0,mhpmevent6h,10
  10339a:	3c20                	.insn	2, 0x3c20
  10339c:	0a32                	.insn	2, 0x0a32
  10339e:	4300                	.insn	2, 0x4300
  1033a0:	4352                	.insn	2, 0x4352
  1033a2:	4f20                	.insn	2, 0x4f20
  1033a4:	7228204b          	.insn	4, 0x7228204b
  1033a8:	7465                	.insn	2, 0x7465
  1033aa:	7972                	.insn	2, 0x7972
  1033ac:	253d                	.insn	2, 0x253d
  1033ae:	2964                	.insn	2, 0x2964
  1033b0:	000a                	.insn	2, 0x000a
  1033b2:	4146                	.insn	2, 0x4146
  1033b4:	3354                	.insn	2, 0x3354
  1033b6:	3a32                	.insn	2, 0x3a32
  1033b8:	7020                	.insn	2, 0x7020
  1033ba:	7261                	.insn	2, 0x7261
  1033bc:	31206573          	csrrsi	a0,medelegh,0
  1033c0:	000a                	.insn	2, 0x000a
  1033c2:	4146                	.insn	2, 0x4146
  1033c4:	3354                	.insn	2, 0x3354
  1033c6:	3a32                	.insn	2, 0x3a32
  1033c8:	6220                	.insn	2, 0x6220
  1033ca:	6461                	.insn	2, 0x6461
  1033cc:	6620                	.insn	2, 0x6620
  1033ce:	7461                	.insn	2, 0x7461
  1033d0:	735f 7a69 0a65      	.insn	6, 0x0a657a69735f
  1033d6:	4600                	.insn	2, 0x4600
  1033d8:	5441                	.insn	2, 0x5441
  1033da:	203a3233          	.insn	4, 0x203a3233
  1033de:	4f45                	.insn	2, 0x4f45
  1033e0:	65622043          	.insn	4, 0x65622043
  1033e4:	6f66                	.insn	2, 0x6f66
  1033e6:	6572                	.insn	2, 0x6572
  1033e8:	6320                	.insn	2, 0x6320
  1033ea:	6c706d6f          	jal	s10,10a2b0 <_stack_start+0x2310>
  1033ee:	7465                	.insn	2, 0x7465
  1033f0:	0a65                	.insn	2, 0x0a65
  1033f2:	4a00                	.insn	2, 0x4a00
  1033f4:	4d55                	.insn	2, 0x4d55
  1033f6:	2050                	.insn	2, 0x2050
  1033f8:	4f54                	.insn	2, 0x4f54
  1033fa:	0020                	.insn	2, 0x0020
  1033fc:	4146                	.insn	2, 0x4146
  1033fe:	3354                	.insn	2, 0x3354
  103400:	3a32                	.insn	2, 0x3a32
  103402:	7220                	.insn	2, 0x7220
  103404:	6165                	.insn	2, 0x6165
  103406:	2064                	.insn	2, 0x2064
  103408:	424c                	.insn	2, 0x424c
  10340a:	3041                	.insn	2, 0x3041
  10340c:	6f20                	.insn	2, 0x6f20
  10340e:	4b000a6b          	.insn	4, 0x4b000a6b
  103412:	5245                	.insn	2, 0x5245
  103414:	454e                	.insn	2, 0x454e
  103416:	2e4c                	.insn	2, 0x2e4c
  103418:	454d                	.insn	2, 0x454d
  10341a:	004d                	.insn	2, 0x004d
  10341c:	6e72656b          	.insn	4, 0x6e72656b
  103420:	6c65                	.insn	2, 0x6c65
  103422:	3d5d315b          	.insn	4, 0x3d5d315b
  103426:	4300                	.insn	2, 0x4300
  103428:	4352                	.insn	2, 0x4352
  10342a:	4e20                	.insn	2, 0x4e20
  10342c:	65722047          	.insn	4, 0x65722047
  103430:	7274                	.insn	2, 0x7274
  103432:	3d79                	.insn	2, 0x3d79
  103434:	6425                	.insn	2, 0x6425
  103436:	2820                	.insn	2, 0x2820
  103438:	636c6163          	bltu	s8,s6,103a5a <$d.1+0xd6>
  10343c:	253d                	.insn	2, 0x253d
  10343e:	2078                	.insn	2, 0x2078
  103440:	7768                	.insn	2, 0x7768
  103442:	253d                	.insn	2, 0x253d
  103444:	2978                	.insn	2, 0x2978
  103446:	000a                	.insn	2, 0x000a
  103448:	4146                	.insn	2, 0x4146
  10344a:	3354                	.insn	2, 0x3354
  10344c:	3a32                	.insn	2, 0x3a32
  10344e:	6120                	.insn	2, 0x6120
  103450:	6464                	.insn	2, 0x6464
  103452:	6620                	.insn	2, 0x6620
  103454:	7461                	.insn	2, 0x7461
  103456:	0a32                	.insn	2, 0x0a32
  103458:	4600                	.insn	2, 0x4600
  10345a:	5441                	.insn	2, 0x5441
  10345c:	203a3233          	.insn	4, 0x203a3233
  103460:	6461                	.insn	2, 0x6461
  103462:	2064                	.insn	2, 0x2064
  103464:	6166                	.insn	2, 0x6166
  103466:	3374                	.insn	2, 0x3374
  103468:	000a                	.insn	2, 0x000a
  10346a:	4146                	.insn	2, 0x4146
  10346c:	3354                	.insn	2, 0x3354
  10346e:	3a32                	.insn	2, 0x3a32
  103470:	6220                	.insn	2, 0x6220
  103472:	6461                	.insn	2, 0x6461
  103474:	6620                	.insn	2, 0x6620
  103476:	7461                	.insn	2, 0x7461
  103478:	635f 756f 746e      	.insn	6, 0x746e756f635f
  10347e:	000a                	.insn	2, 0x000a
  103480:	4146                	.insn	2, 0x4146
  103482:	3354                	.insn	2, 0x3354
  103484:	3a32                	.insn	2, 0x3a32
  103486:	6520                	.insn	2, 0x6520
  103488:	746e                	.insn	2, 0x746e
  10348a:	7972                	.insn	2, 0x7972
  10348c:	000a                	.insn	2, 0x000a
  10348e:	4146                	.insn	2, 0x4146
  103490:	3354                	.insn	2, 0x3354
  103492:	3a32                	.insn	2, 0x3a32
  103494:	6e20                	.insn	2, 0x6e20
  103496:	7865                	.insn	2, 0x7865
  103498:	0a74                	.insn	2, 0x0a74
  10349a:	4600                	.insn	2, 0x4600
  10349c:	5441                	.insn	2, 0x5441
  10349e:	203a3233          	.insn	4, 0x203a3233
  1034a2:	6572                	.insn	2, 0x6572
  1034a4:	6461                	.insn	2, 0x6461
  1034a6:	6620                	.insn	2, 0x6620
  1034a8:	6c69                	.insn	2, 0x6c69
  1034aa:	2065                	.insn	2, 0x2065
  1034ac:	6166                	.insn	2, 0x6166
  1034ae:	6c69                	.insn	2, 0x6c69
  1034b0:	6465                	.insn	2, 0x6465
  1034b2:	000a                	.insn	2, 0x000a
  1034b4:	4146                	.insn	2, 0x4146
  1034b6:	3354                	.insn	2, 0x3354
  1034b8:	3a32                	.insn	2, 0x3a32
  1034ba:	4d20                	.insn	2, 0x4d20
  1034bc:	5242                	.insn	2, 0x5242
  1034be:	7320                	.insn	2, 0x7320
  1034c0:	6769                	.insn	2, 0x6769
  1034c2:	6220                	.insn	2, 0x6220
  1034c4:	6461                	.insn	2, 0x6461
  1034c6:	000a                	.insn	2, 0x000a
  1034c8:	4146                	.insn	2, 0x4146
  1034ca:	3354                	.insn	2, 0x3354
  1034cc:	3a32                	.insn	2, 0x3a32
  1034ce:	6220                	.insn	2, 0x6220
  1034d0:	6461                	.insn	2, 0x6461
  1034d2:	7220                	.insn	2, 0x7220
  1034d4:	7365                	.insn	2, 0x7365
  1034d6:	7265                	.insn	2, 0x7265
  1034d8:	6576                	.insn	2, 0x6576
  1034da:	0a64                	.insn	2, 0x0a64
  1034dc:	4600                	.insn	2, 0x4600
  1034de:	5441                	.insn	2, 0x5441
  1034e0:	203a3233          	.insn	4, 0x203a3233
  1034e4:	6f72                	.insn	2, 0x6f72
  1034e6:	6320746f          	jal	s0,10ab18 <_stack_start+0x2b78>
  1034ea:	6568                	.insn	2, 0x6568
  1034ec:	000a6b63          	bltu	s4,zero,103502 <$d.1+0x1fc>
  1034f0:	4146                	.insn	2, 0x4146
  1034f2:	3354                	.insn	2, 0x3354
  1034f4:	3a32                	.insn	2, 0x3a32
  1034f6:	6220                	.insn	2, 0x6220
  1034f8:	6461                	.insn	2, 0x6461
  1034fa:	6320                	.insn	2, 0x6320
  1034fc:	756c                	.insn	2, 0x756c
  1034fe:	72657473          	csrrci	s0,mhpmevent6h,10
  103502:	000a                	.insn	2, 0x000a
  103504:	4146                	.insn	2, 0x4146
  103506:	3354                	.insn	2, 0x3354
  103508:	3a32                	.insn	2, 0x3a32
  10350a:	7020                	.insn	2, 0x7020
  10350c:	7261                	.insn	2, 0x7261
  10350e:	5f74                	.insn	2, 0x5f74
  103510:	626c                	.insn	2, 0x626c
  103512:	2061                	.insn	2, 0x2061
  103514:	657a                	.insn	2, 0x657a
  103516:	6f72                	.insn	2, 0x6f72
  103518:	000a                	.insn	2, 0x000a
  10351a:	4146                	.insn	2, 0x4146
  10351c:	3354                	.insn	2, 0x3354
  10351e:	3a32                	.insn	2, 0x3a32
  103520:	6320                	.insn	2, 0x6320
  103522:	6c61                	.insn	2, 0x6c61
  103524:	61642063          	.insn	4, 0x61642063
  103528:	6174                	.insn	2, 0x6174
  10352a:	000a                	.insn	2, 0x000a
  10352c:	4146                	.insn	2, 0x4146
  10352e:	3354                	.insn	2, 0x3354
  103530:	3a32                	.insn	2, 0x3a32
  103532:	6620                	.insn	2, 0x6620
  103534:	646e756f          	jal	a0,1eab7a <_stack_top+0xdebda>
  103538:	000a                	.insn	2, 0x000a
  10353a:	4146                	.insn	2, 0x4146
  10353c:	3354                	.insn	2, 0x3354
  10353e:	3a32                	.insn	2, 0x3a32
  103540:	7220                	.insn	2, 0x7220
  103542:	6165                	.insn	2, 0x6165
  103544:	2064                	.insn	2, 0x2064
  103546:	6964                	.insn	2, 0x6964
  103548:	2072                	.insn	2, 0x2072
  10354a:	6166                	.insn	2, 0x6166
  10354c:	6c69                	.insn	2, 0x6c69
  10354e:	6465                	.insn	2, 0x6465
  103550:	000a                	.insn	2, 0x000a
  103552:	4146                	.insn	2, 0x4146
  103554:	3354                	.insn	2, 0x3354
  103556:	2032                	.insn	2, 0x2032
  103558:	6f6d                	.insn	2, 0x6f6d
  10355a:	6e75                	.insn	2, 0x6e75
  10355c:	2074                	.insn	2, 0x2074
  10355e:	6166                	.insn	2, 0x6166
  103560:	6c69                	.insn	2, 0x6c69
  103562:	6465                	.insn	2, 0x6465
  103564:	000a                	.insn	2, 0x000a
  103566:	7375                	.insn	2, 0x7375
  103568:	7265                	.insn	2, 0x7265
  10356a:	7720                	.insn	2, 0x7720
  10356c:	7364726f          	jal	tp,14aca2 <_stack_top+0x3ed02>
  103570:	003d                	.insn	2, 0x003d
  103572:	666e695b          	.insn	4, 0x666e695b
  103576:	6c205d6f          	jal	s10,108c38 <_stack_start+0xc98>
  10357a:	6e65                	.insn	2, 0x6e65
  10357c:	7420                	.insn	2, 0x7420
  10357e:	62206f6f          	jal	t5,109ba0 <_stack_start+0x1c00>
  103582:	6769                	.insn	2, 0x6769
  103584:	2820                	.insn	2, 0x2820
  103586:	303e                	.insn	2, 0x303e
  103588:	2578                	.insn	2, 0x2578
  10358a:	2958                	.insn	2, 0x2958
  10358c:	202c                	.insn	2, 0x202c
  10358e:	6f72                	.insn	2, 0x6f72
  103590:	6e75                	.insn	2, 0x6e75
  103592:	2064                	.insn	2, 0x2064
  103594:	6f64                	.insn	2, 0x6f64
  103596:	74206e77          	.insn	4, 0x74206e77
  10359a:	7830206f          	j	10651c <$d.1+0x297c>
  10359e:	5825                	.insn	2, 0x5825
  1035a0:	000a                	.insn	2, 0x000a
  1035a2:	4146                	.insn	2, 0x4146
  1035a4:	3354                	.insn	2, 0x3354
  1035a6:	3a32                	.insn	2, 0x3a32
  1035a8:	7220                	.insn	2, 0x7220
  1035aa:	6165                	.insn	2, 0x6165
  1035ac:	5f64                	.insn	2, 0x5f64
  1035ae:	74636573          	csrrsi	a0,0x746,6
  1035b2:	6e20726f          	jal	tp,10ac94 <_stack_start+0x2cf4>
  1035b6:	6c75                	.insn	2, 0x6c75
  1035b8:	0a6c                	.insn	2, 0x0a6c
  1035ba:	4600                	.insn	2, 0x4600
  1035bc:	5441                	.insn	2, 0x5441
  1035be:	203a3233          	.insn	4, 0x203a3233
  1035c2:	6572                	.insn	2, 0x6572
  1035c4:	6461                	.insn	2, 0x6461
  1035c6:	6420                	.insn	2, 0x6420
  1035c8:	7269                	.insn	2, 0x7269
  1035ca:	000a                	.insn	2, 0x000a
  1035cc:	4146                	.insn	2, 0x4146
  1035ce:	3354                	.insn	2, 0x3354
  1035d0:	3a32                	.insn	2, 0x3a32
  1035d2:	7320                	.insn	2, 0x7320
  1035d4:	7a69                	.insn	2, 0x7a69
  1035d6:	3d65                	.insn	2, 0x3d65
  1035d8:	5300                	.insn	2, 0x5300
  1035da:	2044                	.insn	2, 0x2044
  1035dc:	4552                	.insn	2, 0x4552
  1035de:	4441                	.insn	2, 0x4441
  1035e0:	5420                	.insn	2, 0x5420
  1035e2:	4d49                	.insn	2, 0x4d49
  1035e4:	4f45                	.insn	2, 0x4f45
  1035e6:	5455                	.insn	2, 0x5455
  1035e8:	6c20                	.insn	2, 0x6c20
  1035ea:	6162                	.insn	2, 0x6162
  1035ec:	003d                	.insn	2, 0x003d

001035ee <$d.3>:
  1035ee:	4146                	.insn	2, 0x4146
  1035f0:	3354                	.insn	2, 0x3354
  1035f2:	3a32                	.insn	2, 0x3a32
  1035f4:	6320                	.insn	2, 0x6320
  1035f6:	6c32                	.insn	2, 0x6c32
  1035f8:	6220                	.insn	2, 0x6220
  1035fa:	6461                	.insn	2, 0x6461
  1035fc:	000a                	.insn	2, 0x000a
  1035fe:	4146                	.insn	2, 0x4146
  103600:	3354                	.insn	2, 0x3354
  103602:	3a32                	.insn	2, 0x3a32
  103604:	7220                	.insn	2, 0x7220
  103606:	6165                	.insn	2, 0x6165
  103608:	2064                	.insn	2, 0x2064
  10360a:	424c                	.insn	2, 0x424c
  10360c:	3041                	.insn	2, 0x3041
  10360e:	6620                	.insn	2, 0x6620
  103610:	6961                	.insn	2, 0x6961
  103612:	656c                	.insn	2, 0x656c
  103614:	0a64                	.insn	2, 0x0a64
  103616:	5300                	.insn	2, 0x5300
  103618:	2044                	.insn	2, 0x2044
  10361a:	4e49                	.insn	2, 0x4e49
  10361c:	5449                	.insn	2, 0x5449
  10361e:	7320                	.insn	2, 0x7320
  103620:	6174                	.insn	2, 0x6174
  103622:	7472                	.insn	2, 0x7472
  103624:	000a                	.insn	2, 0x000a
  103626:	4146                	.insn	2, 0x4146
  103628:	3354                	.insn	2, 0x3354
  10362a:	3a32                	.insn	2, 0x3a32
  10362c:	7220                	.insn	2, 0x7220
  10362e:	20746f6f          	jal	t5,14a034 <_stack_top+0x3e094>
  103632:	6f6c                	.insn	2, 0x6f6c
  103634:	000a706f          	j	1aa634 <_stack_top+0x9e694>
  103638:	4146                	.insn	2, 0x4146
  10363a:	3354                	.insn	2, 0x3354
  10363c:	3a32                	.insn	2, 0x3a32
  10363e:	7320                	.insn	2, 0x7320
  103640:	7a69                	.insn	2, 0x7a69
  103642:	2065                	.insn	2, 0x2065
  103644:	657a                	.insn	2, 0x657a
  103646:	6f72                	.insn	2, 0x6f72
  103648:	000a                	.insn	2, 0x000a
  10364a:	4146                	.insn	2, 0x4146
  10364c:	3354                	.insn	2, 0x3354
  10364e:	3a32                	.insn	2, 0x3a32
  103650:	7220                	.insn	2, 0x7220
  103652:	6165                	.insn	2, 0x6165
  103654:	2064                	.insn	2, 0x2064
  103656:	6966                	.insn	2, 0x6966
  103658:	656c                	.insn	2, 0x656c
  10365a:	7320                	.insn	2, 0x7320
  10365c:	6365                	.insn	2, 0x6365
  10365e:	6f74                	.insn	2, 0x6f74
  103660:	0a72                	.insn	2, 0x0a72
  103662:	4600                	.insn	2, 0x4600
  103664:	4649                	.insn	2, 0x4649
  103666:	4d45204f          	.insn	4, 0x4d45204f
  10366a:	5450                	.insn	2, 0x5450
  10366c:	2059                	.insn	2, 0x2059
  10366e:	4954                	.insn	2, 0x4954
  103670:	454d                	.insn	2, 0x454d
  103672:	2054554f          	.insn	4, 0x2054554f
  103676:	626c                	.insn	2, 0x626c
  103678:	3d61                	.insn	2, 0x3d61
  10367a:	4600                	.insn	2, 0x4600
  10367c:	5441                	.insn	2, 0x5441
  10367e:	203a3233          	.insn	4, 0x203a3233
  103682:	6f6c                	.insn	2, 0x6f6c
  103684:	6461                	.insn	2, 0x6461
  103686:	6520                	.insn	2, 0x6520
  103688:	746e                	.insn	2, 0x746e
  10368a:	7265                	.insn	2, 0x7265
  10368c:	000a                	.insn	2, 0x000a
  10368e:	4146                	.insn	2, 0x4146
  103690:	3354                	.insn	2, 0x3354
  103692:	3a32                	.insn	2, 0x3a32
  103694:	7220                	.insn	2, 0x7220
  103696:	6165                	.insn	2, 0x6165
  103698:	2064                	.insn	2, 0x2064
  10369a:	5042                	.insn	2, 0x5042
  10369c:	0a42                	.insn	2, 0x0a42
  10369e:	4600                	.insn	2, 0x4600
  1036a0:	5441                	.insn	2, 0x5441
  1036a2:	203a3233          	.insn	4, 0x203a3233
  1036a6:	6461                	.insn	2, 0x6461
  1036a8:	2064                	.insn	2, 0x2064
  1036aa:	6166                	.insn	2, 0x6166
  1036ac:	3474                	.insn	2, 0x3474
  1036ae:	000a                	.insn	2, 0x000a
  1036b0:	4146                	.insn	2, 0x4146
  1036b2:	3354                	.insn	2, 0x3354
  1036b4:	3a32                	.insn	2, 0x3a32
  1036b6:	6220                	.insn	2, 0x6220
  1036b8:	6461                	.insn	2, 0x6461
  1036ba:	6d20                	.insn	2, 0x6d20
  1036bc:	6d65                	.insn	2, 0x6d65
  1036be:	6320                	.insn	2, 0x6320
  1036c0:	6168                	.insn	2, 0x6168
  1036c2:	0a72                	.insn	2, 0x0a72
  1036c4:	0a00                	.insn	2, 0x0a00
  1036c6:	4600                	.insn	2, 0x4600
  1036c8:	5441                	.insn	2, 0x5441
  1036ca:	203a3233          	.insn	4, 0x203a3233
  1036ce:	79706f63          	bltu	zero,s7,103e6c <$d.1+0x2cc>
  1036d2:	6f20                	.insn	2, 0x6f20
  1036d4:	46000a6b          	.insn	4, 0x46000a6b
  1036d8:	5441                	.insn	2, 0x5441
  1036da:	203a3233          	.insn	4, 0x203a3233
  1036de:	656e                	.insn	2, 0x656e
  1036e0:	7478                	.insn	2, 0x7478
  1036e2:	6320                	.insn	2, 0x6320
  1036e4:	756c                	.insn	2, 0x756c
  1036e6:	72657473          	csrrci	s0,mhpmevent6h,10
  1036ea:	000a                	.insn	2, 0x000a
  1036ec:	4146                	.insn	2, 0x4146
  1036ee:	3354                	.insn	2, 0x3354
  1036f0:	3a32                	.insn	2, 0x3a32
  1036f2:	6220                	.insn	2, 0x6220
  1036f4:	6461                	.insn	2, 0x6461
  1036f6:	7320                	.insn	2, 0x7320
  1036f8:	6370                	.insn	2, 0x6370
  1036fa:	7320                	.insn	2, 0x7320
  1036fc:	6968                	.insn	2, 0x6968
  1036fe:	7466                	.insn	2, 0x7466
  103700:	000a                	.insn	2, 0x000a
  103702:	6e72656b          	.insn	4, 0x6e72656b
  103706:	6c65                	.insn	2, 0x6c65
  103708:	3d5d305b          	.insn	4, 0x3d5d305b
  10370c:	7500                	.insn	2, 0x7500
  10370e:	5b726573          	csrrsi	a0,0x5b7,4
  103712:	5d30                	.insn	2, 0x5d30
  103714:	003d                	.insn	2, 0x003d
  103716:	4146                	.insn	2, 0x4146
  103718:	3354                	.insn	2, 0x3354
  10371a:	3a32                	.insn	2, 0x3a32
  10371c:	7020                	.insn	2, 0x7020
  10371e:	7261                	.insn	2, 0x7261
  103720:	33206573          	csrrsi	a0,mhpmevent18,0
  103724:	000a                	.insn	2, 0x000a
  103726:	4146                	.insn	2, 0x4146
  103728:	3354                	.insn	2, 0x3354
  10372a:	3a32                	.insn	2, 0x3a32
  10372c:	6620                	.insn	2, 0x6620
  10372e:	6e69                	.insn	2, 0x6e69
  103730:	2064                	.insn	2, 0x2064
  103732:	6166                	.insn	2, 0x6166
  103734:	6c69                	.insn	2, 0x6c69
  103736:	6465                	.insn	2, 0x6465
  103738:	000a                	.insn	2, 0x000a
  10373a:	4146                	.insn	2, 0x4146
  10373c:	3354                	.insn	2, 0x3354
  10373e:	3a32                	.insn	2, 0x3a32
  103740:	6920                	.insn	2, 0x6920
  103742:	766e                	.insn	2, 0x766e
  103744:	6c61                	.insn	2, 0x6c61
  103746:	6469                	.insn	2, 0x6469
  103748:	7320                	.insn	2, 0x7320
  10374a:	6174                	.insn	2, 0x6174
  10374c:	7472                	.insn	2, 0x7472
  10374e:	6320                	.insn	2, 0x6320
  103750:	756c                	.insn	2, 0x756c
  103752:	72657473          	csrrci	s0,mhpmevent6h,10
  103756:	000a                	.insn	2, 0x000a
  103758:	4146                	.insn	2, 0x4146
  10375a:	3354                	.insn	2, 0x3354
  10375c:	3a32                	.insn	2, 0x3a32
  10375e:	7020                	.insn	2, 0x7020
  103760:	7261                	.insn	2, 0x7261
  103762:	6974                	.insn	2, 0x6974
  103764:	6c61                	.insn	2, 0x6c61
  103766:	6820                	.insn	2, 0x6820
  103768:	7865                	.insn	2, 0x7865
  10376a:	7720                	.insn	2, 0x7720
  10376c:	0a64726f          	jal	tp,14a812 <_stack_top+0x3e872>
  103770:	4600                	.insn	2, 0x4600
  103772:	5441                	.insn	2, 0x5441
  103774:	203a3233          	.insn	4, 0x203a3233
  103778:	65707573          	csrrci	a0,hviprio2h,0
  10377c:	2072                	.insn	2, 0x2072
  10377e:	6c66                	.insn	2, 0x6c66
  103780:	7970706f          	j	10b716 <_stack_start+0x3776>
  103784:	000a                	.insn	2, 0x000a
  103786:	4146                	.insn	2, 0x4146
  103788:	3354                	.insn	2, 0x3354
  10378a:	3a32                	.insn	2, 0x3a32
  10378c:	7020                	.insn	2, 0x7020
  10378e:	7261                	.insn	2, 0x7261
  103790:	36206573          	csrrsi	a0,0x362,0
  103794:	000a                	.insn	2, 0x000a
  103796:	69204453          	.insn	4, 0x69204453
  10379a:	696e                	.insn	2, 0x696e
  10379c:	2074                	.insn	2, 0x2074
  10379e:	6166                	.insn	2, 0x6166
  1037a0:	6c69                	.insn	2, 0x6c69
  1037a2:	6465                	.insn	2, 0x6465
  1037a4:	000a                	.insn	2, 0x000a
  1037a6:	20435243          	.insn	4, 0x20435243
  1037aa:	474e                	.insn	2, 0x474e
  1037ac:	6c20                	.insn	2, 0x6c20
  1037ae:	6162                	.insn	2, 0x6162
  1037b0:	003d                	.insn	2, 0x003d
  1037b2:	7375                	.insn	2, 0x7375
  1037b4:	6761                	.insn	2, 0x6761
  1037b6:	3a65                	.insn	2, 0x3a65
  1037b8:	6420                	.insn	2, 0x6420
  1037ba:	706d                	.insn	2, 0x706d
  1037bc:	5b20                	.insn	2, 0x5b20
  1037be:	7366666f          	jal	a2,169ef4 <_stack_top+0x5df54>
  1037c2:	7465                	.insn	2, 0x7465
  1037c4:	685f 7865 205d      	.insn	6, 0x205d7865685f
  1037ca:	6e656c5b          	.insn	4, 0x6e656c5b
  1037ce:	685f 7865 0a5d      	.insn	6, 0x0a5d7865685f
  1037d4:	4600                	.insn	2, 0x4600
  1037d6:	5441                	.insn	2, 0x5441
  1037d8:	203a3233          	.insn	4, 0x203a3233
  1037dc:	6572                	.insn	2, 0x6572
  1037de:	6461                	.insn	2, 0x6461
  1037e0:	4c20                	.insn	2, 0x4c20
  1037e2:	4142                	.insn	2, 0x4142
  1037e4:	0a30                	.insn	2, 0x0a30
  1037e6:	4600                	.insn	2, 0x4600
  1037e8:	5441                	.insn	2, 0x5441
  1037ea:	203a3233          	.insn	4, 0x203a3233
  1037ee:	626c                	.insn	2, 0x626c
  1037f0:	2061                	.insn	2, 0x2061
  1037f2:	000a6b6f          	jal	s6,1a97f2 <_stack_top+0x9d852>
  1037f6:	4146                	.insn	2, 0x4146
  1037f8:	3354                	.insn	2, 0x3354
  1037fa:	3a32                	.insn	2, 0x3a32
  1037fc:	6e20                	.insn	2, 0x6e20
  1037fe:	7865                	.insn	2, 0x7865
  103800:	2074                	.insn	2, 0x2074
  103802:	73756c63          	bltu	a0,s7,103f3a <$d.1+0x39a>
  103806:	6574                	.insn	2, 0x6574
  103808:	2072                	.insn	2, 0x2072
  10380a:	000a6b6f          	jal	s6,1a980a <_stack_top+0x9d86a>
  10380e:	4146                	.insn	2, 0x4146
  103810:	3354                	.insn	2, 0x3354
  103812:	3a32                	.insn	2, 0x3a32
  103814:	6c20                	.insn	2, 0x6c20
  103816:	2064616f          	jal	sp,149a1c <_stack_top+0x3da7c>
  10381a:	656d                	.insn	2, 0x656d
  10381c:	206d                	.insn	2, 0x206d
  10381e:	6f64                	.insn	2, 0x6f64
  103820:	656e                	.insn	2, 0x656e
  103822:	000a                	.insn	2, 0x000a
  103824:	4146                	.insn	2, 0x4146
  103826:	3354                	.insn	2, 0x3354
  103828:	3a32                	.insn	2, 0x3a32
  10382a:	7020                	.insn	2, 0x7020
  10382c:	7261                	.insn	2, 0x7261
  10382e:	2074                	.insn	2, 0x2074
  103830:	000a6b6f          	jal	s6,1a9830 <_stack_top+0x9d890>
  103834:	4146                	.insn	2, 0x4146
  103836:	3354                	.insn	2, 0x3354
  103838:	3a32                	.insn	2, 0x3a32
  10383a:	7020                	.insn	2, 0x7020
  10383c:	7261                	.insn	2, 0x7261
  10383e:	35206573          	csrrsi	a0,mireg2,0
  103842:	000a                	.insn	2, 0x000a

00103844 <print_hex8.HEX>:
    static const char HEX[] = "0123456789abcdef";
  103844:	3130                	.insn	2, 0x3130
  103846:	3332                	.insn	2, 0x3332
  103848:	3534                	.insn	2, 0x3534
  10384a:	3736                	.insn	2, 0x3736
  10384c:	3938                	.insn	2, 0x3938
  10384e:	6261                	.insn	2, 0x6261
  103850:	66656463          	bltu	a0,t1,103eb8 <$d.1+0x318>
  103854:	4600                	.insn	2, 0x4600
  103856:	5441                	.insn	2, 0x5441
  103858:	203a3233          	.insn	4, 0x203a3233
  10385c:	6f6d                	.insn	2, 0x6f6d
  10385e:	6e75                	.insn	2, 0x6e75
  103860:	2074                	.insn	2, 0x2074
  103862:	6e65                	.insn	2, 0x6e65
  103864:	6574                	.insn	2, 0x6574
  103866:	0a72                	.insn	2, 0x0a72
  103868:	4600                	.insn	2, 0x4600
  10386a:	5441                	.insn	2, 0x5441
  10386c:	203a3233          	.insn	4, 0x203a3233
  103870:	6964                	.insn	2, 0x6964
  103872:	2072                	.insn	2, 0x2072
  103874:	6e65                	.insn	2, 0x6e65
  103876:	0a64                	.insn	2, 0x0a64
	...

00103879 <$d.1>:
  103879:	6f62                	.insn	2, 0x6f62
  10387b:	6f6c746f          	jal	s0,1caf71 <_stack_top+0xbefd1>
  10387f:	6461                	.insn	2, 0x6461
  103881:	7265                	.insn	2, 0x7265
  103883:	4620                	.insn	2, 0x4620
  103885:	5441                	.insn	2, 0x5441
  103887:	73203233          	.insn	4, 0x73203233
  10388b:	6174                	.insn	2, 0x6174
  10388d:	7472                	.insn	2, 0x7472
  10388f:	000a                	.insn	2, 0x000a

00103891 <$d.1>:
  103891:	203a                	.insn	2, 0x203a
  103893:	4600                	.insn	2, 0x4600
  103895:	5441                	.insn	2, 0x5441
  103897:	203a3233          	.insn	4, 0x203a3233
  10389b:	6162                	.insn	2, 0x6162
  10389d:	2064                	.insn	2, 0x2064
  10389f:	0a637073          	csrci	0xa6,6
  1038a3:	4600                	.insn	2, 0x4600
  1038a5:	5441                	.insn	2, 0x5441
  1038a7:	203a3233          	.insn	4, 0x203a3233
  1038ab:	6f6c                	.insn	2, 0x6f6c
  1038ad:	6461                	.insn	2, 0x6461
  1038af:	6420                	.insn	2, 0x6420
  1038b1:	0a656e6f          	jal	t3,159957 <_stack_top+0x4d9b7>
  1038b5:	6b00                	.insn	2, 0x6b00
  1038b7:	7265                	.insn	2, 0x7265
  1038b9:	656e                	.insn	2, 0x656e
  1038bb:	206c                	.insn	2, 0x206c
  1038bd:	64726f77          	.insn	4, 0x64726f77
  1038c1:	46003d73          	csrrc	s10,0x460,zero
  1038c5:	5441                	.insn	2, 0x5441
  1038c7:	203a3233          	.insn	4, 0x203a3233
  1038cb:	6966                	.insn	2, 0x6966
  1038cd:	646e                	.insn	2, 0x646e
  1038cf:	6520                	.insn	2, 0x6520
  1038d1:	746e                	.insn	2, 0x746e
  1038d3:	7265                	.insn	2, 0x7265
  1038d5:	000a                	.insn	2, 0x000a
  1038d7:	4146                	.insn	2, 0x4146
  1038d9:	3354                	.insn	2, 0x3354
  1038db:	3a32                	.insn	2, 0x3a32
  1038dd:	6320                	.insn	2, 0x6320
  1038df:	6c61                	.insn	2, 0x6c61
  1038e1:	626c2063          	.insn	4, 0x626c2063
  1038e5:	0a61                	.insn	2, 0x0a61
  1038e7:	4600                	.insn	2, 0x4600
  1038e9:	5441                	.insn	2, 0x5441
  1038eb:	203a3233          	.insn	4, 0x203a3233
  1038ef:	6572                	.insn	2, 0x6572
  1038f1:	616d                	.insn	2, 0x616d
  1038f3:	6e69                	.insn	2, 0x6e69
  1038f5:	7320                	.insn	2, 0x7320
  1038f7:	7465                	.insn	2, 0x7465
  1038f9:	000a                	.insn	2, 0x000a
  1038fb:	4146                	.insn	2, 0x4146
  1038fd:	3354                	.insn	2, 0x3354
  1038ff:	3a32                	.insn	2, 0x3a32
  103901:	6620                	.insn	2, 0x6620
  103903:	6c69                	.insn	2, 0x6c69
  103905:	2065                	.insn	2, 0x2065
  103907:	74636573          	csrrsi	a0,0x746,6
  10390b:	6f20726f          	jal	tp,10affd <_stack_start+0x305d>
  10390f:	55000a6b          	.insn	4, 0x55000a6b
  103913:	2e524553          	.insn	4, 0x2e524553
  103917:	454d                	.insn	2, 0x454d
  103919:	004d                	.insn	2, 0x004d
  10391b:	49204453          	.insn	4, 0x49204453
  10391f:	494e                	.insn	2, 0x494e
  103921:	2054                	.insn	2, 0x2054
  103923:	4954                	.insn	2, 0x4954
  103925:	454d                	.insn	2, 0x454d
  103927:	0a54554f          	.insn	4, 0x0a54554f
  10392b:	4600                	.insn	2, 0x4600
  10392d:	5441                	.insn	2, 0x5441
  10392f:	203a3233          	.insn	4, 0x203a3233
  103933:	6170                	.insn	2, 0x6170
  103935:	7372                	.insn	2, 0x7372
  103937:	2065                	.insn	2, 0x2065
  103939:	0a34                	.insn	2, 0x0a34
  10393b:	4600                	.insn	2, 0x4600
  10393d:	5441                	.insn	2, 0x5441
  10393f:	203a3233          	.insn	4, 0x203a3233
  103943:	6162                	.insn	2, 0x6162
  103945:	2064                	.insn	2, 0x2064
  103947:	7062                	.insn	2, 0x7062
  103949:	46000a73          	.insn	4, 0x46000a73
  10394d:	5441                	.insn	2, 0x5441
  10394f:	203a3233          	.insn	4, 0x203a3233
  103953:	6461                	.insn	2, 0x6461
  103955:	2064                	.insn	2, 0x2064
  103957:	6166                	.insn	2, 0x6166
  103959:	3174                	.insn	2, 0x3174
  10395b:	000a                	.insn	2, 0x000a
  10395d:	4146                	.insn	2, 0x4146
  10395f:	3354                	.insn	2, 0x3354
  103961:	3a32                	.insn	2, 0x3a32
  103963:	6420                	.insn	2, 0x6420
  103965:	7269                	.insn	2, 0x7269
  103967:	6f20                	.insn	2, 0x6f20
  103969:	46000a6b          	.insn	4, 0x46000a6b
  10396d:	5441                	.insn	2, 0x5441
  10396f:	203a3233          	.insn	4, 0x203a3233
  103973:	6f6c                	.insn	2, 0x6f6c
  103975:	6461                	.insn	2, 0x6461
  103977:	6d20                	.insn	2, 0x6d20
  103979:	6d65                	.insn	2, 0x6d65
  10397b:	6520                	.insn	2, 0x6520
  10397d:	746e                	.insn	2, 0x746e
  10397f:	7265                	.insn	2, 0x7265
  103981:	000a                	.insn	2, 0x000a
	...

00103984 <$d.1>:
  103984:	2c18                	.insn	2, 0x2c18
  103986:	0010                	.insn	2, 0x0010
  103988:	2bc4                	.insn	2, 0x2bc4
  10398a:	0010                	.insn	2, 0x0010
  10398c:	2bdc                	.insn	2, 0x2bdc
  10398e:	0010                	.insn	2, 0x0010
  103990:	2bfc                	.insn	2, 0x2bfc
  103992:	0010                	.insn	2, 0x0010
  103994:	2bdc                	.insn	2, 0x2bdc
  103996:	0010                	.insn	2, 0x0010
  103998:	2bdc                	.insn	2, 0x2bdc
  10399a:	0010                	.insn	2, 0x0010
  10399c:	2bdc                	.insn	2, 0x2bdc
  10399e:	0010                	.insn	2, 0x0010
  1039a0:	2c04                	.insn	2, 0x2c04
  1039a2:	0010                	.insn	2, 0x0010
  1039a4:	2bdc                	.insn	2, 0x2bdc
  1039a6:	0010                	.insn	2, 0x0010
  1039a8:	2bdc                	.insn	2, 0x2bdc
  1039aa:	0010                	.insn	2, 0x0010
  1039ac:	2bdc                	.insn	2, 0x2bdc
  1039ae:	0010                	.insn	2, 0x0010
  1039b0:	2bdc                	.insn	2, 0x2bdc
  1039b2:	0010                	.insn	2, 0x0010
  1039b4:	2bdc                	.insn	2, 0x2bdc
  1039b6:	0010                	.insn	2, 0x0010
  1039b8:	2bdc                	.insn	2, 0x2bdc
  1039ba:	0010                	.insn	2, 0x0010
  1039bc:	2bdc                	.insn	2, 0x2bdc
  1039be:	0010                	.insn	2, 0x0010
  1039c0:	2c0c                	.insn	2, 0x2c0c
  1039c2:	0010                	.insn	2, 0x0010
  1039c4:	2bdc                	.insn	2, 0x2bdc
  1039c6:	0010                	.insn	2, 0x0010
  1039c8:	2bdc                	.insn	2, 0x2bdc
  1039ca:	0010                	.insn	2, 0x0010
  1039cc:	2bdc                	.insn	2, 0x2bdc
  1039ce:	0010                	.insn	2, 0x0010
  1039d0:	2bdc                	.insn	2, 0x2bdc
  1039d2:	0010                	.insn	2, 0x0010
  1039d4:	2bdc                	.insn	2, 0x2bdc
  1039d6:	0010                	.insn	2, 0x0010
  1039d8:	2bdc                	.insn	2, 0x2bdc
  1039da:	0010                	.insn	2, 0x0010
  1039dc:	2bdc                	.insn	2, 0x2bdc
  1039de:	0010                	.insn	2, 0x0010
  1039e0:	2bdc                	.insn	2, 0x2bdc
  1039e2:	0010                	.insn	2, 0x0010
  1039e4:	2bdc                	.insn	2, 0x2bdc
  1039e6:	0010                	.insn	2, 0x0010
  1039e8:	2bdc                	.insn	2, 0x2bdc
  1039ea:	0010                	.insn	2, 0x0010
  1039ec:	2bdc                	.insn	2, 0x2bdc
  1039ee:	0010                	.insn	2, 0x0010
  1039f0:	2bdc                	.insn	2, 0x2bdc
  1039f2:	0010                	.insn	2, 0x0010
  1039f4:	2bdc                	.insn	2, 0x2bdc
  1039f6:	0010                	.insn	2, 0x0010
  1039f8:	2bdc                	.insn	2, 0x2bdc
  1039fa:	0010                	.insn	2, 0x0010
  1039fc:	2bdc                	.insn	2, 0x2bdc
  1039fe:	0010                	.insn	2, 0x0010
  103a00:	2c14                	.insn	2, 0x2c14
  103a02:	0010                	.insn	2, 0x0010
  103a04:	2bdc                	.insn	2, 0x2bdc
  103a06:	0010                	.insn	2, 0x0010
  103a08:	2bdc                	.insn	2, 0x2bdc
  103a0a:	0010                	.insn	2, 0x0010
  103a0c:	2bdc                	.insn	2, 0x2bdc
  103a0e:	0010                	.insn	2, 0x0010
  103a10:	2bdc                	.insn	2, 0x2bdc
  103a12:	0010                	.insn	2, 0x0010
  103a14:	2bdc                	.insn	2, 0x2bdc
  103a16:	0010                	.insn	2, 0x0010
  103a18:	2bdc                	.insn	2, 0x2bdc
  103a1a:	0010                	.insn	2, 0x0010
  103a1c:	2bdc                	.insn	2, 0x2bdc
  103a1e:	0010                	.insn	2, 0x0010
  103a20:	2bdc                	.insn	2, 0x2bdc
  103a22:	0010                	.insn	2, 0x0010
  103a24:	2bdc                	.insn	2, 0x2bdc
  103a26:	0010                	.insn	2, 0x0010
  103a28:	2bdc                	.insn	2, 0x2bdc
  103a2a:	0010                	.insn	2, 0x0010
  103a2c:	2bdc                	.insn	2, 0x2bdc
  103a2e:	0010                	.insn	2, 0x0010
  103a30:	2bdc                	.insn	2, 0x2bdc
  103a32:	0010                	.insn	2, 0x0010
  103a34:	2bdc                	.insn	2, 0x2bdc
  103a36:	0010                	.insn	2, 0x0010
  103a38:	2bdc                	.insn	2, 0x2bdc
  103a3a:	0010                	.insn	2, 0x0010
  103a3c:	2bdc                	.insn	2, 0x2bdc
  103a3e:	0010                	.insn	2, 0x0010
  103a40:	2bdc                	.insn	2, 0x2bdc
  103a42:	0010                	.insn	2, 0x0010
  103a44:	2bdc                	.insn	2, 0x2bdc
  103a46:	0010                	.insn	2, 0x0010
  103a48:	2bdc                	.insn	2, 0x2bdc
  103a4a:	0010                	.insn	2, 0x0010
  103a4c:	2bdc                	.insn	2, 0x2bdc
  103a4e:	0010                	.insn	2, 0x0010
  103a50:	2bdc                	.insn	2, 0x2bdc
  103a52:	0010                	.insn	2, 0x0010
  103a54:	2bdc                	.insn	2, 0x2bdc
  103a56:	0010                	.insn	2, 0x0010
  103a58:	2bdc                	.insn	2, 0x2bdc
  103a5a:	0010                	.insn	2, 0x0010
  103a5c:	2bdc                	.insn	2, 0x2bdc
  103a5e:	0010                	.insn	2, 0x0010
  103a60:	2bdc                	.insn	2, 0x2bdc
  103a62:	0010                	.insn	2, 0x0010
  103a64:	2bdc                	.insn	2, 0x2bdc
  103a66:	0010                	.insn	2, 0x0010
  103a68:	2bdc                	.insn	2, 0x2bdc
  103a6a:	0010                	.insn	2, 0x0010
  103a6c:	2bdc                	.insn	2, 0x2bdc
  103a6e:	0010                	.insn	2, 0x0010
  103a70:	2bdc                	.insn	2, 0x2bdc
  103a72:	0010                	.insn	2, 0x0010
  103a74:	2bdc                	.insn	2, 0x2bdc
  103a76:	0010                	.insn	2, 0x0010
  103a78:	2bdc                	.insn	2, 0x2bdc
  103a7a:	0010                	.insn	2, 0x0010
  103a7c:	2bdc                	.insn	2, 0x2bdc
  103a7e:	0010                	.insn	2, 0x0010
  103a80:	2bf4                	.insn	2, 0x2bf4
  103a82:	0010                	.insn	2, 0x0010
  103a84:	2fc4                	.insn	2, 0x2fc4
  103a86:	0010                	.insn	2, 0x0010
  103a88:	2f58                	.insn	2, 0x2f58
  103a8a:	0010                	.insn	2, 0x0010
  103a8c:	2f70                	.insn	2, 0x2f70
  103a8e:	0010                	.insn	2, 0x0010
  103a90:	2fa8                	.insn	2, 0x2fa8
  103a92:	0010                	.insn	2, 0x0010
  103a94:	2f70                	.insn	2, 0x2f70
  103a96:	0010                	.insn	2, 0x0010
  103a98:	2f70                	.insn	2, 0x2f70
  103a9a:	0010                	.insn	2, 0x0010
  103a9c:	2f70                	.insn	2, 0x2f70
  103a9e:	0010                	.insn	2, 0x0010
  103aa0:	2fb0                	.insn	2, 0x2fb0
  103aa2:	0010                	.insn	2, 0x0010
  103aa4:	2f70                	.insn	2, 0x2f70
  103aa6:	0010                	.insn	2, 0x0010
  103aa8:	2f70                	.insn	2, 0x2f70
  103aaa:	0010                	.insn	2, 0x0010
  103aac:	2f70                	.insn	2, 0x2f70
  103aae:	0010                	.insn	2, 0x0010
  103ab0:	2f70                	.insn	2, 0x2f70
  103ab2:	0010                	.insn	2, 0x0010
  103ab4:	2f70                	.insn	2, 0x2f70
  103ab6:	0010                	.insn	2, 0x0010
  103ab8:	2f70                	.insn	2, 0x2f70
  103aba:	0010                	.insn	2, 0x0010
  103abc:	2f70                	.insn	2, 0x2f70
  103abe:	0010                	.insn	2, 0x0010
  103ac0:	2fb8                	.insn	2, 0x2fb8
  103ac2:	0010                	.insn	2, 0x0010
  103ac4:	2f70                	.insn	2, 0x2f70
  103ac6:	0010                	.insn	2, 0x0010
  103ac8:	2f70                	.insn	2, 0x2f70
  103aca:	0010                	.insn	2, 0x0010
  103acc:	2f70                	.insn	2, 0x2f70
  103ace:	0010                	.insn	2, 0x0010
  103ad0:	2f70                	.insn	2, 0x2f70
  103ad2:	0010                	.insn	2, 0x0010
  103ad4:	2f70                	.insn	2, 0x2f70
  103ad6:	0010                	.insn	2, 0x0010
  103ad8:	2f70                	.insn	2, 0x2f70
  103ada:	0010                	.insn	2, 0x0010
  103adc:	2f70                	.insn	2, 0x2f70
  103ade:	0010                	.insn	2, 0x0010
  103ae0:	2f70                	.insn	2, 0x2f70
  103ae2:	0010                	.insn	2, 0x0010
  103ae4:	2f70                	.insn	2, 0x2f70
  103ae6:	0010                	.insn	2, 0x0010
  103ae8:	2f70                	.insn	2, 0x2f70
  103aea:	0010                	.insn	2, 0x0010
  103aec:	2f70                	.insn	2, 0x2f70
  103aee:	0010                	.insn	2, 0x0010
  103af0:	2f70                	.insn	2, 0x2f70
  103af2:	0010                	.insn	2, 0x0010
  103af4:	2f70                	.insn	2, 0x2f70
  103af6:	0010                	.insn	2, 0x0010
  103af8:	2f70                	.insn	2, 0x2f70
  103afa:	0010                	.insn	2, 0x0010
  103afc:	2f70                	.insn	2, 0x2f70
  103afe:	0010                	.insn	2, 0x0010
  103b00:	2fc0                	.insn	2, 0x2fc0
  103b02:	0010                	.insn	2, 0x0010
  103b04:	2f70                	.insn	2, 0x2f70
  103b06:	0010                	.insn	2, 0x0010
  103b08:	2f70                	.insn	2, 0x2f70
  103b0a:	0010                	.insn	2, 0x0010
  103b0c:	2f70                	.insn	2, 0x2f70
  103b0e:	0010                	.insn	2, 0x0010
  103b10:	2f70                	.insn	2, 0x2f70
  103b12:	0010                	.insn	2, 0x0010
  103b14:	2f70                	.insn	2, 0x2f70
  103b16:	0010                	.insn	2, 0x0010
  103b18:	2f70                	.insn	2, 0x2f70
  103b1a:	0010                	.insn	2, 0x0010
  103b1c:	2f70                	.insn	2, 0x2f70
  103b1e:	0010                	.insn	2, 0x0010
  103b20:	2f70                	.insn	2, 0x2f70
  103b22:	0010                	.insn	2, 0x0010
  103b24:	2f70                	.insn	2, 0x2f70
  103b26:	0010                	.insn	2, 0x0010
  103b28:	2f70                	.insn	2, 0x2f70
  103b2a:	0010                	.insn	2, 0x0010
  103b2c:	2f70                	.insn	2, 0x2f70
  103b2e:	0010                	.insn	2, 0x0010
  103b30:	2f70                	.insn	2, 0x2f70
  103b32:	0010                	.insn	2, 0x0010
  103b34:	2f70                	.insn	2, 0x2f70
  103b36:	0010                	.insn	2, 0x0010
  103b38:	2f70                	.insn	2, 0x2f70
  103b3a:	0010                	.insn	2, 0x0010
  103b3c:	2f70                	.insn	2, 0x2f70
  103b3e:	0010                	.insn	2, 0x0010
  103b40:	2f70                	.insn	2, 0x2f70
  103b42:	0010                	.insn	2, 0x0010
  103b44:	2f70                	.insn	2, 0x2f70
  103b46:	0010                	.insn	2, 0x0010
  103b48:	2f70                	.insn	2, 0x2f70
  103b4a:	0010                	.insn	2, 0x0010
  103b4c:	2f70                	.insn	2, 0x2f70
  103b4e:	0010                	.insn	2, 0x0010
  103b50:	2f70                	.insn	2, 0x2f70
  103b52:	0010                	.insn	2, 0x0010
  103b54:	2f70                	.insn	2, 0x2f70
  103b56:	0010                	.insn	2, 0x0010
  103b58:	2f70                	.insn	2, 0x2f70
  103b5a:	0010                	.insn	2, 0x0010
  103b5c:	2f70                	.insn	2, 0x2f70
  103b5e:	0010                	.insn	2, 0x0010
  103b60:	2f70                	.insn	2, 0x2f70
  103b62:	0010                	.insn	2, 0x0010
  103b64:	2f70                	.insn	2, 0x2f70
  103b66:	0010                	.insn	2, 0x0010
  103b68:	2f70                	.insn	2, 0x2f70
  103b6a:	0010                	.insn	2, 0x0010
  103b6c:	2f70                	.insn	2, 0x2f70
  103b6e:	0010                	.insn	2, 0x0010
  103b70:	2f70                	.insn	2, 0x2f70
  103b72:	0010                	.insn	2, 0x0010
  103b74:	2f70                	.insn	2, 0x2f70
  103b76:	0010                	.insn	2, 0x0010
  103b78:	2f70                	.insn	2, 0x2f70
  103b7a:	0010                	.insn	2, 0x0010
  103b7c:	2f70                	.insn	2, 0x2f70
  103b7e:	0010                	.insn	2, 0x0010
  103b80:	2fa0                	.insn	2, 0x2fa0
  103b82:	0010                	.insn	2, 0x0010

セクション .riscv.attributes の逆アセンブル:

00000000 <.riscv.attributes>:
   0:	3941                	.insn	2, 0x3941
   2:	0000                	.insn	2, 0x0000
   4:	7200                	.insn	2, 0x7200
   6:	7369                	.insn	2, 0x7369
   8:	01007663          	bgeu	zero,a6,14 <$d.10+0x14>
   c:	0000002f          	.insn	4, 0x002f
  10:	1004                	.insn	2, 0x1004
  12:	7205                	.insn	2, 0x7205
  14:	3376                	.insn	2, 0x3376
  16:	6932                	.insn	2, 0x6932
  18:	7032                	.insn	2, 0x7032
  1a:	5f31                	.insn	2, 0x5f31
  1c:	697a                	.insn	2, 0x697a
  1e:	32727363          	bgeu	tp,t2,344 <$d.6+0xdd>
  22:	3070                	.insn	2, 0x3070
  24:	7a5f 6669 6e65      	.insn	6, 0x6e6566697a5f
  2a:	32696563          	bltu	s2,t1,354 <$d.6+0xed>
  2e:	3070                	.insn	2, 0x3070
  30:	7a5f 6d6d 6c75      	.insn	6, 0x6c756d6d7a5f
  36:	7031                	.insn	2, 0x7031
  38:	0030                	.insn	2, 0x0030

セクション .debug_info の逆アセンブル:

00000000 <$d.5>:
       0:	009f 0000 0004      	.insn	6, 0x00040000009f
       6:	0000                	.insn	2, 0x0000
       8:	0000                	.insn	2, 0x0000
       a:	0104                	.insn	2, 0x0104
       c:	0000                	.insn	2, 0x0000
       e:	0000                	.insn	2, 0x0000
      10:	0000                	.insn	2, 0x0000
      12:	0010                	.insn	2, 0x0010
      14:	0014                	.insn	2, 0x0014
      16:	0010                	.insn	2, 0x0010
      18:	2f2e                	.insn	2, 0x2f2e
      1a:	2f637273          	csrrci	tp,0x2f6,6
      1e:	6f62                	.insn	2, 0x6f62
      20:	6f6c746f          	jal	s0,c7716 <$d.7+0xc5642>
      24:	6461                	.insn	2, 0x6461
      26:	7265                	.insn	2, 0x7265
      28:	655f 746e 7972      	.insn	6, 0x7972746e655f
      2e:	532e                	.insn	2, 0x532e
      30:	2f00                	.insn	2, 0x2f00
      32:	6f68                	.insn	2, 0x6f68
      34:	656d                	.insn	2, 0x656d
      36:	7261682f          	.insn	4, 0x7261682f
      3a:	6875                	.insn	2, 0x6875
      3c:	6b69                	.insn	2, 0x6b69
      3e:	72502f6f          	jal	t5,2f62 <$d.7+0xe8e>
      42:	6172676f          	jal	a4,26e58 <$d.7+0x24d84>
      46:	2f6d                	.insn	2, 0x2f6d
      48:	5350                	.insn	2, 0x5350
      4a:	56525f43          	.insn	4, 0x56525f43
      4e:	2f493233          	.insn	4, 0x2f493233
      52:	5350                	.insn	2, 0x5350
      54:	4e4f2d43          	.insn	4, 0x4e4f2d43
      58:	2f45                	.insn	2, 0x2f45
      5a:	74666f73          	csrrsi	t5,0x746,12
      5e:	65726177          	.insn	4, 0x65726177
      62:	00736f2f          	.insn	4, 0x00736f2f
      66:	6255                	.insn	2, 0x6255
      68:	6e75                	.insn	2, 0x6e75
      6a:	7574                	.insn	2, 0x7574
      6c:	6320                	.insn	2, 0x6320
      6e:	616c                	.insn	2, 0x616c
      70:	676e                	.insn	2, 0x676e
      72:	7620                	.insn	2, 0x7620
      74:	7265                	.insn	2, 0x7265
      76:	6e6f6973          	csrrsi	s2,0x6e6,30
      7a:	3120                	.insn	2, 0x3120
      7c:	2e38                	.insn	2, 0x2e38
      7e:	2e31                	.insn	2, 0x2e31
      80:	31282033          	.insn	4, 0x31282033
