
./build/bootloader.elf:     ファイル形式 elf32-littleriscv


セクション .text の逆アセンブル:

00100000 <_start>:
.section .text
.globl _start
_start:
    la sp, _stack_top
  100000:	00007117          	auipc	sp,0x7
  100004:	60010113          	addi	sp,sp,1536 # 107600 <_stack_start>
    call bootloader_main
  100008:	00000097          	auipc	ra,0x0
  10000c:	330080e7          	jalr	816(ra) # 100338 <bootloader_main>
1:
    j 1b
  100010:	0000006f          	j	100010 <_start+0x10>

00100014 <putchar>:

    uart[0] = (uint32_t)(uint8_t)c;
}
#endif

void putchar(char ch) {
  100014:	100005b7          	lui	a1,0x10000

static inline void mmio_w32(uint32_t addr, uint32_t v) {
    *(volatile uint32_t*)addr = v;
}
static inline uint32_t mmio_r32(uint32_t addr) {
    return *(volatile uint32_t*)addr;
  100018:	0085a603          	lw	a2,8(a1) # 10000008 <_stack_top+0xfef4a08>
    // 送信ビジー解除待ち
    while (mmio_r32(UART_MMIO_BASE + UART_ST) & ST_TX_BUSY) {
  10001c:	00167613          	andi	a2,a2,1
  100020:	00060663          	beqz	a2,10002c <putchar+0x18>
        __asm__ __volatile__("nop");
  100024:	00000013          	nop
  100028:	ff1ff06f          	j	100018 <putchar+0x4>
    *(volatile uint32_t*)addr = v;
  10002c:	00a5a023          	sw	a0,0(a1)
    }
    mmio_w32(UART_MMIO_BASE + UART_TX, (uint32_t)(uint8_t)ch);
}
  100030:	00008067          	ret

00100034 <uart_putchar>:

/* common.c 用 */
void uart_putchar(char c)
{
  100034:	100005b7          	lui	a1,0x10000
    return *(volatile uint32_t*)addr;
  100038:	0085a603          	lw	a2,8(a1) # 10000008 <_stack_top+0xfef4a08>
    while (mmio_r32(UART_MMIO_BASE + UART_ST) & ST_TX_BUSY) {
  10003c:	00167613          	andi	a2,a2,1
  100040:	00060663          	beqz	a2,10004c <uart_putchar+0x18>
        __asm__ __volatile__("nop");
  100044:	00000013          	nop
  100048:	ff1ff06f          	j	100038 <uart_putchar+0x4>
    *(volatile uint32_t*)addr = v;
  10004c:	00a5a023          	sw	a0,0(a1)
    putchar(c);
}
  100050:	00008067          	ret

00100054 <bl_print_hex>:

void bl_print_hex(uint32_t v)
{
  100054:	00700713          	li	a4,7
  100058:	00a00593          	li	a1,10
  10005c:	10000637          	lui	a2,0x10000
  100060:	00070693          	mv	a3,a4
    for (int i = 7; i >= 0; i--) {
        uint8_t n = (v >> (i * 4)) & 0xF;
  100064:	00271713          	slli	a4,a4,0x2
  100068:	00e55733          	srl	a4,a0,a4
  10006c:	00f77713          	andi	a4,a4,15
        putchar(n < 10 ? '0' + n : 'A' + n - 10);
  100070:	00b76663          	bltu	a4,a1,10007c <bl_print_hex+0x28>
  100074:	03770713          	addi	a4,a4,55
  100078:	0100006f          	j	100088 <bl_print_hex+0x34>
  10007c:	03070713          	addi	a4,a4,48
  100080:	0080006f          	j	100088 <bl_print_hex+0x34>
        __asm__ __volatile__("nop");
  100084:	00000013          	nop
    return *(volatile uint32_t*)addr;
  100088:	00862783          	lw	a5,8(a2) # 10000008 <_stack_top+0xfef4a08>
    while (mmio_r32(UART_MMIO_BASE + UART_ST) & ST_TX_BUSY) {
  10008c:	0017f793          	andi	a5,a5,1
  100090:	fe079ae3          	bnez	a5,100084 <bl_print_hex+0x30>
    *(volatile uint32_t*)addr = v;
  100094:	00e62023          	sw	a4,0(a2)
    for (int i = 7; i >= 0; i--) {
  100098:	fff68713          	addi	a4,a3,-1
  10009c:	fc0692e3          	bnez	a3,100060 <bl_print_hex+0xc>
    }
}
  1000a0:	00008067          	ret

001000a4 <bl_print>:

/* ------------------------------------------------------- */
void bl_print(const char *s)
{
    while (*s) {
  1000a4:	00054583          	lbu	a1,0(a0)
  1000a8:	02058863          	beqz	a1,1000d8 <bl_print+0x34>
  1000ac:	10000637          	lui	a2,0x10000
  1000b0:	0080006f          	j	1000b8 <bl_print+0x14>
        __asm__ __volatile__("nop");
  1000b4:	00000013          	nop
    return *(volatile uint32_t*)addr;
  1000b8:	00862683          	lw	a3,8(a2) # 10000008 <_stack_top+0xfef4a08>
    while (mmio_r32(UART_MMIO_BASE + UART_ST) & ST_TX_BUSY) {
  1000bc:	0016f693          	andi	a3,a3,1
  1000c0:	fe069ae3          	bnez	a3,1000b4 <bl_print+0x10>
        putchar(*s++);
  1000c4:	00150513          	addi	a0,a0,1
    mmio_w32(UART_MMIO_BASE + UART_TX, (uint32_t)(uint8_t)ch);
  1000c8:	0ff5f593          	zext.b	a1,a1
    *(volatile uint32_t*)addr = v;
  1000cc:	00b62023          	sw	a1,0(a2)
    while (*s) {
  1000d0:	00054583          	lbu	a1,0(a0)
  1000d4:	fe0592e3          	bnez	a1,1000b8 <bl_print+0x14>
        if (v == 0) break;

        s++;
    }
    */
}
  1000d8:	00008067          	ret

001000dc <bl_print_dec>:

void bl_print_dec(uint32_t v)
{
  1000dc:	fd010113          	addi	sp,sp,-48
  1000e0:	02112623          	sw	ra,44(sp)
  1000e4:	02812423          	sw	s0,40(sp)
  1000e8:	02912223          	sw	s1,36(sp)
  1000ec:	03212023          	sw	s2,32(sp)
  1000f0:	01312e23          	sw	s3,28(sp)
  1000f4:	01412c23          	sw	s4,24(sp)
    char buf[10];
    int i = 0;

    if (v == 0u) {
  1000f8:	08050863          	beqz	a0,100188 <bl_print_dec+0xac>
  1000fc:	00050413          	mv	s0,a0
  100100:	00000513          	li	a0,0
  100104:	00e10913          	addi	s2,sp,14
  100108:	00900993          	li	s3,9
  10010c:	00040493          	mv	s1,s0
  100110:	00050a13          	mv	s4,a0
        return;
    }

    while (v > 0u) {
        buf[i++] = (char)('0' + (v % 10u));
        v /= 10u;
  100114:	00a00593          	li	a1,10
  100118:	00040513          	mv	a0,s0
  10011c:	00003097          	auipc	ra,0x3
  100120:	1a4080e7          	jalr	420(ra) # 1032c0 <__hidden___udivsi3>
  100124:	00050413          	mv	s0,a0
  100128:	00a00593          	li	a1,10
  10012c:	00003097          	auipc	ra,0x3
  100130:	178080e7          	jalr	376(ra) # 1032a4 <__mulsi3>
  100134:	40a48533          	sub	a0,s1,a0
        buf[i++] = (char)('0' + (v % 10u));
  100138:	03056593          	ori	a1,a0,48
  10013c:	001a0513          	addi	a0,s4,1
  100140:	01490a33          	add	s4,s2,s4
  100144:	00ba0023          	sb	a1,0(s4)
  100148:	fc99e2e3          	bltu	s3,s1,10010c <bl_print_dec+0x30>
  10014c:	00e10593          	addi	a1,sp,14
  100150:	10000637          	lui	a2,0x10000
  100154:	00100693          	li	a3,1
  100158:	00c0006f          	j	100164 <bl_print_dec+0x88>
  10015c:	00f62023          	sw	a5,0(a2) # 10000000 <_stack_top+0xfef4a00>
    }

    while (i > 0) {
  100160:	04e6d463          	bge	a3,a4,1001a8 <bl_print_dec+0xcc>
  100164:	00050713          	mv	a4,a0
        putchar(buf[--i]);
  100168:	fff50513          	addi	a0,a0,-1
  10016c:	00a587b3          	add	a5,a1,a0
  100170:	0007c783          	lbu	a5,0(a5)
    return *(volatile uint32_t*)addr;
  100174:	00862803          	lw	a6,8(a2)
    while (mmio_r32(UART_MMIO_BASE + UART_ST) & ST_TX_BUSY) {
  100178:	00187813          	andi	a6,a6,1
  10017c:	fe0800e3          	beqz	a6,10015c <bl_print_dec+0x80>
        __asm__ __volatile__("nop");
  100180:	00000013          	nop
  100184:	ff1ff06f          	j	100174 <bl_print_dec+0x98>
  100188:	10000537          	lui	a0,0x10000
  10018c:	00852583          	lw	a1,8(a0) # 10000008 <_stack_top+0xfef4a08>
    while (mmio_r32(UART_MMIO_BASE + UART_ST) & ST_TX_BUSY) {
  100190:	0015f593          	andi	a1,a1,1
  100194:	00058663          	beqz	a1,1001a0 <bl_print_dec+0xc4>
        __asm__ __volatile__("nop");
  100198:	00000013          	nop
  10019c:	ff1ff06f          	j	10018c <bl_print_dec+0xb0>
  1001a0:	03000593          	li	a1,48
    *(volatile uint32_t*)addr = v;
  1001a4:	00b52023          	sw	a1,0(a0)
  1001a8:	02c12083          	lw	ra,44(sp)
  1001ac:	02812403          	lw	s0,40(sp)
  1001b0:	02412483          	lw	s1,36(sp)
  1001b4:	02012903          	lw	s2,32(sp)
  1001b8:	01c12983          	lw	s3,28(sp)
  1001bc:	01812a03          	lw	s4,24(sp)
    }
}
  1001c0:	03010113          	addi	sp,sp,48
  1001c4:	00008067          	ret

001001c8 <random_mem_check>:

void random_mem_check(
    uint32_t start_addr,
    uint32_t end_addr,
    uint32_t access_count)
{
  1001c8:	fd010113          	addi	sp,sp,-48
  1001cc:	02112623          	sw	ra,44(sp)
  1001d0:	02812423          	sw	s0,40(sp)
  1001d4:	02912223          	sw	s1,36(sp)
  1001d8:	03212023          	sw	s2,32(sp)
  1001dc:	01312e23          	sw	s3,28(sp)
  1001e0:	01412c23          	sw	s4,24(sp)
  1001e4:	01512a23          	sw	s5,20(sp)
  1001e8:	01612823          	sw	s6,16(sp)
  1001ec:	01712623          	sw	s7,12(sp)
  1001f0:	01812423          	sw	s8,8(sp)
  1001f4:	00060413          	mv	s0,a2
  1001f8:	00058913          	mv	s2,a1
  1001fc:	00050493          	mv	s1,a0
    uint32_t addr;

    uint32_t range_bytes = end_addr - start_addr;
    uint32_t mask = range_bytes - MEM_STEP;

    s_printf("[mem_check] range %x - %x\n",
  100200:	00103537          	lui	a0,0x103
  100204:	56850513          	addi	a0,a0,1384 # 103568 <$d.1>
  100208:	00048593          	mv	a1,s1
  10020c:	00090613          	mv	a2,s2
  100210:	00002097          	auipc	ra,0x2
  100214:	3f4080e7          	jalr	1012(ra) # 102604 <s_printf>
             start_addr, end_addr);

    s_printf("[mem_check] access count=%x\n",
  100218:	00103537          	lui	a0,0x103
  10021c:	41750513          	addi	a0,a0,1047 # 103417 <$d.1+0x14>
  100220:	00040593          	mv	a1,s0
  100224:	00002097          	auipc	ra,0x2
  100228:	3e0080e7          	jalr	992(ra) # 102604 <s_printf>

    /* ================= write ================= */

    lfsr = 0x12345678u;

    for (uint32_t i = 0; i < access_count; i++)
  10022c:	0c040263          	beqz	s0,1002f0 <random_mem_check+0x128>
  100230:	409909b3          	sub	s3,s2,s1
  100234:	ffc98993          	addi	s3,s3,-4
  100238:	12345537          	lui	a0,0x12345
  10023c:	67850613          	addi	a2,a0,1656 # 12345678 <_stack_top+0x1223a078>
  100240:	a5a5a537          	lui	a0,0xa5a5a
  100244:	5a550a13          	addi	s4,a0,1445 # a5a5a5a5 <_stack_top+0xa594efa5>
  100248:	a3000537          	lui	a0,0xa3000
  10024c:	00040593          	mv	a1,s0
    {
        addr = start_addr + (lfsr & mask);
  100250:	013676b3          	and	a3,a2,s3
  100254:	009686b3          	add	a3,a3,s1
    return addr ^ 0xA5A5A5A5u;
  100258:	0146c733          	xor	a4,a3,s4

        *(volatile uint32_t *)addr =
  10025c:	00e6a023          	sw	a4,0(a3)
    uint32_t lsb = x & 1u;
  100260:	01f61693          	slli	a3,a2,0x1f
  100264:	41f6d693          	srai	a3,a3,0x1f
    x >>= 1;
  100268:	00165613          	srli	a2,a2,0x1
    if (lsb) {
  10026c:	00a6f6b3          	and	a3,a3,a0
    for (uint32_t i = 0; i < access_count; i++)
  100270:	fff58593          	addi	a1,a1,-1
    if (lsb) {
  100274:	00d64633          	xor	a2,a2,a3
    for (uint32_t i = 0; i < access_count; i++)
  100278:	fc059ce3          	bnez	a1,100250 <random_mem_check+0x88>
  10027c:	00100513          	li	a0,1
  100280:	123455b7          	lui	a1,0x12345
  100284:	67858b13          	addi	s6,a1,1656 # 12345678 <_stack_top+0x1223a078>
  100288:	a3000ab7          	lui	s5,0xa3000
  10028c:	001035b7          	lui	a1,0x103
  100290:	50858913          	addi	s2,a1,1288 # 103508 <$d.1+0x105>
  100294:	0000f5b7          	lui	a1,0xf
  100298:	e0158b93          	addi	s7,a1,-511 # ee01 <$d.10+0xaa49>
  10029c:	10000c37          	lui	s8,0x10000
  1002a0:	0200006f          	j	1002c0 <random_mem_check+0xf8>
    uint32_t lsb = x & 1u;
  1002a4:	01fb1593          	slli	a1,s6,0x1f
  1002a8:	41f5d593          	srai	a1,a1,0x1f
    x >>= 1;
  1002ac:	001b5613          	srli	a2,s6,0x1
    if (lsb) {
  1002b0:	0155f5b3          	and	a1,a1,s5

    /* ================= read ================= */

    lfsr = 0x12345678u;

    for (uint32_t i = 0; i < access_count; i++)
  1002b4:	fff40413          	addi	s0,s0,-1
    if (lsb) {
  1002b8:	00b64b33          	xor	s6,a2,a1
    for (uint32_t i = 0; i < access_count; i++)
  1002bc:	02040863          	beqz	s0,1002ec <random_mem_check+0x124>
    {
        addr = start_addr + (lfsr & mask);
  1002c0:	013b75b3          	and	a1,s6,s3
  1002c4:	009585b3          	add	a1,a1,s1

        uint32_t v =
            *(volatile uint32_t *)addr;
  1002c8:	0005a603          	lw	a2,0(a1)
    return addr ^ 0xA5A5A5A5u;
  1002cc:	0145c6b3          	xor	a3,a1,s4
  1002d0:	fcd60ae3          	beq	a2,a3,1002a4 <random_mem_check+0xdc>

        if (v != exp)
        {
            TestPass = false;

            s_printf(
  1002d4:	00090513          	mv	a0,s2
  1002d8:	00002097          	auipc	ra,0x2
  1002dc:	32c080e7          	jalr	812(ra) # 102604 <s_printf>
  1002e0:	00000513          	li	a0,0
  1002e4:	017c2023          	sw	s7,0(s8) # 10000000 <_stack_top+0xfef4a00>
  1002e8:	fbdff06f          	j	1002a4 <random_mem_check+0xdc>
        }

        lfsr = lfsr_next(lfsr);
    }

    if (TestPass)
  1002ec:	00050863          	beqz	a0,1002fc <random_mem_check+0x134>
  1002f0:	00103537          	lui	a0,0x103
  1002f4:	58350513          	addi	a0,a0,1411 # 103583 <$d.1+0x1b>
  1002f8:	00c0006f          	j	100304 <random_mem_check+0x13c>
  1002fc:	00103537          	lui	a0,0x103
  100300:	43450513          	addi	a0,a0,1076 # 103434 <$d.1+0x31>
  100304:	02c12083          	lw	ra,44(sp)
  100308:	02812403          	lw	s0,40(sp)
  10030c:	02412483          	lw	s1,36(sp)
  100310:	02012903          	lw	s2,32(sp)
  100314:	01c12983          	lw	s3,28(sp)
  100318:	01812a03          	lw	s4,24(sp)
  10031c:	01412a83          	lw	s5,20(sp)
  100320:	01012b03          	lw	s6,16(sp)
  100324:	00c12b83          	lw	s7,12(sp)
  100328:	00812c03          	lw	s8,8(sp)
  10032c:	03010113          	addi	sp,sp,48
  100330:	00002317          	auipc	t1,0x2
  100334:	2d430067          	jr	724(t1) # 102604 <s_printf>

00100338 <bootloader_main>:
/* -------------------------------------------------------
 * bootloader main
 * BIOS からここへ来る想定
 * ------------------------------------------------------- */
void bootloader_main(void)
{
  100338:	ff010113          	addi	sp,sp,-16
  10033c:	00112623          	sw	ra,12(sp)
  100340:	00000513          	li	a0,0
  100344:	06200613          	li	a2,98
  100348:	001035b7          	lui	a1,0x103
  10034c:	53958593          	addi	a1,a1,1337 # 103539 <$d.1+0x136>
  100350:	100006b7          	lui	a3,0x10000
  100354:	00b00713          	li	a4,11
  100358:	0080006f          	j	100360 <bootloader_main+0x28>
        __asm__ __volatile__("nop");
  10035c:	00000013          	nop
    return *(volatile uint32_t*)addr;
  100360:	0086a783          	lw	a5,8(a3) # 10000008 <_stack_top+0xfef4a08>
    while (mmio_r32(UART_MMIO_BASE + UART_ST) & ST_TX_BUSY) {
  100364:	0017f793          	andi	a5,a5,1
  100368:	fe079ae3          	bnez	a5,10035c <bootloader_main+0x24>
        putchar(*s++);
  10036c:	00150513          	addi	a0,a0,1
  100370:	00a587b3          	add	a5,a1,a0
    mmio_w32(UART_MMIO_BASE + UART_TX, (uint32_t)(uint8_t)ch);
  100374:	0ff67613          	zext.b	a2,a2
    *(volatile uint32_t*)addr = v;
  100378:	00c6a023          	sw	a2,0(a3)
    while (*s) {
  10037c:	0007c603          	lbu	a2,0(a5)
  100380:	fee510e3          	bne	a0,a4,100360 <bootloader_main+0x28>
  100384:	00000513          	li	a0,0
  100388:	00a00613          	li	a2,10
  10038c:	001035b7          	lui	a1,0x103
  100390:	5b558593          	addi	a1,a1,1461 # 1035b5 <print_hex8.HEX+0x11>
  100394:	100006b7          	lui	a3,0x10000
  100398:	02900713          	li	a4,41
  10039c:	0080006f          	j	1003a4 <bootloader_main+0x6c>
        __asm__ __volatile__("nop");
  1003a0:	00000013          	nop
    return *(volatile uint32_t*)addr;
  1003a4:	0086a783          	lw	a5,8(a3) # 10000008 <_stack_top+0xfef4a08>
    while (mmio_r32(UART_MMIO_BASE + UART_ST) & ST_TX_BUSY) {
  1003a8:	0017f793          	andi	a5,a5,1
  1003ac:	fe079ae3          	bnez	a5,1003a0 <bootloader_main+0x68>
        putchar(*s++);
  1003b0:	00150513          	addi	a0,a0,1
  1003b4:	00a587b3          	add	a5,a1,a0
    mmio_w32(UART_MMIO_BASE + UART_TX, (uint32_t)(uint8_t)ch);
  1003b8:	0ff67613          	zext.b	a2,a2
    *(volatile uint32_t*)addr = v;
  1003bc:	00c6a023          	sw	a2,0(a3)
    while (*s) {
  1003c0:	0007c603          	lbu	a2,0(a5)
  1003c4:	fee510e3          	bne	a0,a4,1003a4 <bootloader_main+0x6c>
    bl_print("boot start\n");

    // random R/W
    bl_print("\n=== PSC random memory RW test start ===\n");
    random_mem_check(0x00600000, 0x00800000, (uint32_t)500);
  1003c8:	00600537          	lui	a0,0x600
  1003cc:	008005b7          	lui	a1,0x800
  1003d0:	1f400613          	li	a2,500
  1003d4:	00000097          	auipc	ra,0x0
  1003d8:	df4080e7          	jalr	-524(ra) # 1001c8 <random_mem_check>
  1003dc:	00000513          	li	a0,0
  1003e0:	00a00613          	li	a2,10
  1003e4:	001035b7          	lui	a1,0x103
  1003e8:	37258593          	addi	a1,a1,882 # 103372 <__modsi3+0x62>
  1003ec:	100006b7          	lui	a3,0x10000
  1003f0:	01e00713          	li	a4,30
  1003f4:	0080006f          	j	1003fc <bootloader_main+0xc4>
        __asm__ __volatile__("nop");
  1003f8:	00000013          	nop
    return *(volatile uint32_t*)addr;
  1003fc:	0086a783          	lw	a5,8(a3) # 10000008 <_stack_top+0xfef4a08>
    while (mmio_r32(UART_MMIO_BASE + UART_ST) & ST_TX_BUSY) {
  100400:	0017f793          	andi	a5,a5,1
  100404:	fe079ae3          	bnez	a5,1003f8 <bootloader_main+0xc0>
        putchar(*s++);
  100408:	00150513          	addi	a0,a0,1 # 600001 <_stack_top+0x4f4a01>
  10040c:	00a587b3          	add	a5,a1,a0
    mmio_w32(UART_MMIO_BASE + UART_TX, (uint32_t)(uint8_t)ch);
  100410:	0ff67613          	zext.b	a2,a2
    *(volatile uint32_t*)addr = v;
  100414:	00c6a023          	sw	a2,0(a3)
    while (*s) {
  100418:	0007c603          	lbu	a2,0(a5)
  10041c:	fee510e3          	bne	a0,a4,1003fc <bootloader_main+0xc4>
  100420:	10006537          	lui	a0,0x10006

    bl_print("\n=== PSC bootloader start ===\n");
    bl_print_kv_hex("CTRL=", PSC_SD_IF_CTRL);
  100424:	00852503          	lw	a0,8(a0) # 10006008 <_stack_top+0xfefaa08>
  100428:	100005b7          	lui	a1,0x10000
    return *(volatile uint32_t*)addr;
  10042c:	0085a603          	lw	a2,8(a1) # 10000008 <_stack_top+0xfef4a08>
    while (mmio_r32(UART_MMIO_BASE + UART_ST) & ST_TX_BUSY) {
  100430:	00167613          	andi	a2,a2,1
  100434:	00060663          	beqz	a2,100440 <bootloader_main+0x108>
        __asm__ __volatile__("nop");
  100438:	00000013          	nop
  10043c:	ff1ff06f          	j	10042c <bootloader_main+0xf4>
  100440:	04300613          	li	a2,67
    *(volatile uint32_t*)addr = v;
  100444:	00c5a023          	sw	a2,0(a1)
    return *(volatile uint32_t*)addr;
  100448:	0085a583          	lw	a1,8(a1)
    while (mmio_r32(UART_MMIO_BASE + UART_ST) & ST_TX_BUSY) {
  10044c:	0015f593          	andi	a1,a1,1
  100450:	00058c63          	beqz	a1,100468 <bootloader_main+0x130>
  100454:	100005b7          	lui	a1,0x10000
        __asm__ __volatile__("nop");
  100458:	00000013          	nop
  10045c:	0085a603          	lw	a2,8(a1) # 10000008 <_stack_top+0xfef4a08>
    while (mmio_r32(UART_MMIO_BASE + UART_ST) & ST_TX_BUSY) {
  100460:	00167613          	andi	a2,a2,1
  100464:	fe061ae3          	bnez	a2,100458 <bootloader_main+0x120>
  100468:	100005b7          	lui	a1,0x10000
  10046c:	05400613          	li	a2,84
    *(volatile uint32_t*)addr = v;
  100470:	00c5a023          	sw	a2,0(a1) # 10000000 <_stack_top+0xfef4a00>
    return *(volatile uint32_t*)addr;
  100474:	0085a603          	lw	a2,8(a1)
  100478:	00167613          	andi	a2,a2,1
  10047c:	00060663          	beqz	a2,100488 <bootloader_main+0x150>
        __asm__ __volatile__("nop");
  100480:	00000013          	nop
  100484:	ff1ff06f          	j	100474 <bootloader_main+0x13c>
  100488:	05200613          	li	a2,82
    *(volatile uint32_t*)addr = v;
  10048c:	00c5a023          	sw	a2,0(a1)
    return *(volatile uint32_t*)addr;
  100490:	0085a583          	lw	a1,8(a1)
    while (mmio_r32(UART_MMIO_BASE + UART_ST) & ST_TX_BUSY) {
  100494:	0015f593          	andi	a1,a1,1
  100498:	00058c63          	beqz	a1,1004b0 <bootloader_main+0x178>
  10049c:	100005b7          	lui	a1,0x10000
        __asm__ __volatile__("nop");
  1004a0:	00000013          	nop
  1004a4:	0085a603          	lw	a2,8(a1) # 10000008 <_stack_top+0xfef4a08>
    while (mmio_r32(UART_MMIO_BASE + UART_ST) & ST_TX_BUSY) {
  1004a8:	00167613          	andi	a2,a2,1
  1004ac:	fe061ae3          	bnez	a2,1004a0 <bootloader_main+0x168>
  1004b0:	100005b7          	lui	a1,0x10000
  1004b4:	04c00613          	li	a2,76
    *(volatile uint32_t*)addr = v;
  1004b8:	00c5a023          	sw	a2,0(a1) # 10000000 <_stack_top+0xfef4a00>
    return *(volatile uint32_t*)addr;
  1004bc:	0085a603          	lw	a2,8(a1)
  1004c0:	00167613          	andi	a2,a2,1
  1004c4:	00060663          	beqz	a2,1004d0 <bootloader_main+0x198>
        __asm__ __volatile__("nop");
  1004c8:	00000013          	nop
  1004cc:	ff1ff06f          	j	1004bc <bootloader_main+0x184>
  1004d0:	03d00613          	li	a2,61
    *(volatile uint32_t*)addr = v;
  1004d4:	00c5a023          	sw	a2,0(a1)
  1004d8:	00700713          	li	a4,7
  1004dc:	00a00613          	li	a2,10
  1004e0:	00070693          	mv	a3,a4
        uint8_t n = (v >> (i * 4)) & 0xF;
  1004e4:	00271713          	slli	a4,a4,0x2
  1004e8:	00e55733          	srl	a4,a0,a4
  1004ec:	00f77713          	andi	a4,a4,15
        putchar(n < 10 ? '0' + n : 'A' + n - 10);
  1004f0:	00c76663          	bltu	a4,a2,1004fc <bootloader_main+0x1c4>
  1004f4:	03770713          	addi	a4,a4,55
  1004f8:	0100006f          	j	100508 <bootloader_main+0x1d0>
  1004fc:	03070713          	addi	a4,a4,48
  100500:	0080006f          	j	100508 <bootloader_main+0x1d0>
        __asm__ __volatile__("nop");
  100504:	00000013          	nop
    return *(volatile uint32_t*)addr;
  100508:	0085a783          	lw	a5,8(a1)
    while (mmio_r32(UART_MMIO_BASE + UART_ST) & ST_TX_BUSY) {
  10050c:	0017f793          	andi	a5,a5,1
  100510:	fe079ae3          	bnez	a5,100504 <bootloader_main+0x1cc>
    *(volatile uint32_t*)addr = v;
  100514:	00e5a023          	sw	a4,0(a1)
    for (int i = 7; i >= 0; i--) {
  100518:	fff68713          	addi	a4,a3,-1
  10051c:	fc0692e3          	bnez	a3,1004e0 <bootloader_main+0x1a8>
  100520:	10000537          	lui	a0,0x10000
    return *(volatile uint32_t*)addr;
  100524:	00852583          	lw	a1,8(a0) # 10000008 <_stack_top+0xfef4a08>
    while (mmio_r32(UART_MMIO_BASE + UART_ST) & ST_TX_BUSY) {
  100528:	0015f593          	andi	a1,a1,1
  10052c:	00058663          	beqz	a1,100538 <bootloader_main+0x200>
        __asm__ __volatile__("nop");
  100530:	00000013          	nop
  100534:	ff1ff06f          	j	100524 <bootloader_main+0x1ec>
  100538:	00a00593          	li	a1,10
    *(volatile uint32_t*)addr = v;
  10053c:	00b52023          	sw	a1,0(a0)
  100540:	10006537          	lui	a0,0x10006
  100544:	00400593          	li	a1,4
    PSC_SD_IF_CTRL = SD_CTRL_FIFO_FLUSH;
  100548:	00b52423          	sw	a1,8(a0) # 10006008 <_stack_top+0xfefaa08>
  10054c:	f9c00513          	li	a0,-100
    while (n--) {
  100550:	00150513          	addi	a0,a0,1
        __asm__ __volatile__("nop");
  100554:	00000013          	nop
    while (n--) {
  100558:	fe051ce3          	bnez	a0,100550 <bootloader_main+0x218>
  10055c:	10006537          	lui	a0,0x10006
    if ((PSC_SD_IF_CTRL & SD_ST_READ_READY) == 0u) {
  100560:	00852503          	lw	a0,8(a0) # 10006008 <_stack_top+0xfefaa08>
  100564:	00457513          	andi	a0,a0,4
  100568:	0a051063          	bnez	a0,100608 <bootloader_main+0x2d0>
  10056c:	05300613          	li	a2,83
  100570:	001035b7          	lui	a1,0x103
  100574:	52a58593          	addi	a1,a1,1322 # 10352a <$d.1+0x127>
  100578:	100006b7          	lui	a3,0x10000
  10057c:	00e00713          	li	a4,14
  100580:	0080006f          	j	100588 <bootloader_main+0x250>
        __asm__ __volatile__("nop");
  100584:	00000013          	nop
    return *(volatile uint32_t*)addr;
  100588:	0086a783          	lw	a5,8(a3) # 10000008 <_stack_top+0xfef4a08>
    while (mmio_r32(UART_MMIO_BASE + UART_ST) & ST_TX_BUSY) {
  10058c:	0017f793          	andi	a5,a5,1
  100590:	fe079ae3          	bnez	a5,100584 <bootloader_main+0x24c>
        putchar(*s++);
  100594:	00150513          	addi	a0,a0,1
  100598:	00a587b3          	add	a5,a1,a0
    mmio_w32(UART_MMIO_BASE + UART_TX, (uint32_t)(uint8_t)ch);
  10059c:	0ff67613          	zext.b	a2,a2
    *(volatile uint32_t*)addr = v;
  1005a0:	00c6a023          	sw	a2,0(a3)
    while (*s) {
  1005a4:	0007c603          	lbu	a2,0(a5)
  1005a8:	fee510e3          	bne	a0,a4,100588 <bootloader_main+0x250>
  1005ac:	10006537          	lui	a0,0x10006
  1005b0:	00100593          	li	a1,1
        PSC_SD_IF_CTRL = SD_CTRL_INIT_TRIG;
  1005b4:	00b52423          	sw	a1,8(a0) # 10006008 <_stack_top+0xfefaa08>
  1005b8:	f9c00513          	li	a0,-100
    while (n--) {
  1005bc:	00150513          	addi	a0,a0,1
        __asm__ __volatile__("nop");
  1005c0:	00000013          	nop
    while (n--) {
  1005c4:	fe051ce3          	bnez	a0,1005bc <bootloader_main+0x284>
  1005c8:	10006537          	lui	a0,0x10006
        while (PSC_SD_IF_CTRL & SD_ST_BUSY) {
  1005cc:	00852583          	lw	a1,8(a0) # 10006008 <_stack_top+0xfefaa08>
  1005d0:	0025f593          	andi	a1,a1,2
  1005d4:	02058263          	beqz	a1,1005f8 <bootloader_main+0x2c0>
  1005d8:	ffff45b7          	lui	a1,0xffff4
  1005dc:	cb058593          	addi	a1,a1,-848 # ffff3cb0 <_stack_top+0xffee86b0>
            if (--timeout == 0u) {
  1005e0:	00158593          	addi	a1,a1,1
  1005e4:	0e058263          	beqz	a1,1006c8 <bootloader_main+0x390>
    __asm__ __volatile__("nop");
  1005e8:	00000013          	nop
        while (PSC_SD_IF_CTRL & SD_ST_BUSY) {
  1005ec:	00852603          	lw	a2,8(a0)
  1005f0:	00267613          	andi	a2,a2,2
  1005f4:	fe0616e3          	bnez	a2,1005e0 <bootloader_main+0x2a8>
  1005f8:	f9c00513          	li	a0,-100
    while (n--) {
  1005fc:	00150513          	addi	a0,a0,1
        __asm__ __volatile__("nop");
  100600:	00000013          	nop
    while (n--) {
  100604:	fe051ce3          	bnez	a0,1005fc <bootloader_main+0x2c4>
        bl_print("bootloader: SD init failed\n");
        for (;;) {
        }
    }

    if (sd_load_image(KERNEL_LBA_START, KERNEL_LBA_COUNT, KERNEL_LOAD_ADDR) != 0) {
  100608:	06400513          	li	a0,100
  10060c:	08000593          	li	a1,128
  100610:	00200637          	lui	a2,0x200
  100614:	00000097          	auipc	ra,0x0
  100618:	7a4080e7          	jalr	1956(ra) # 100db8 <sd_load_image>
  10061c:	04050663          	beqz	a0,100668 <bootloader_main+0x330>
  100620:	00000513          	li	a0,0
  100624:	06200613          	li	a2,98
  100628:	001035b7          	lui	a1,0x103
  10062c:	45758593          	addi	a1,a1,1111 # 103457 <$d.1+0x54>
  100630:	100006b7          	lui	a3,0x10000
  100634:	01f00713          	li	a4,31
  100638:	0080006f          	j	100640 <bootloader_main+0x308>
        __asm__ __volatile__("nop");
  10063c:	00000013          	nop
    return *(volatile uint32_t*)addr;
  100640:	0086a783          	lw	a5,8(a3) # 10000008 <_stack_top+0xfef4a08>
    while (mmio_r32(UART_MMIO_BASE + UART_ST) & ST_TX_BUSY) {
  100644:	0017f793          	andi	a5,a5,1
  100648:	fe079ae3          	bnez	a5,10063c <bootloader_main+0x304>
        putchar(*s++);
  10064c:	00150513          	addi	a0,a0,1
  100650:	00a587b3          	add	a5,a1,a0
    mmio_w32(UART_MMIO_BASE + UART_TX, (uint32_t)(uint8_t)ch);
  100654:	0ff67613          	zext.b	a2,a2
    *(volatile uint32_t*)addr = v;
  100658:	00c6a023          	sw	a2,0(a3)
    while (*s) {
  10065c:	0007c603          	lbu	a2,0(a5)
  100660:	fee510e3          	bne	a0,a4,100640 <bootloader_main+0x308>
        bl_print("bootloader: kernel load failed\n");
        for (;;) {
  100664:	0000006f          	j	100664 <bootloader_main+0x32c>
        }
    }

    if (sd_load_image(USER_LBA_START, USER_LBA_COUNT, USER_LOAD_ADDR) != 0) {
  100668:	12c00513          	li	a0,300
  10066c:	01200593          	li	a1,18
  100670:	00400637          	lui	a2,0x400
  100674:	00000097          	auipc	ra,0x0
  100678:	744080e7          	jalr	1860(ra) # 100db8 <sd_load_image>
  10067c:	0c050c63          	beqz	a0,100754 <bootloader_main+0x41c>
  100680:	00000513          	li	a0,0
  100684:	06200613          	li	a2,98
  100688:	001035b7          	lui	a1,0x103
  10068c:	35458593          	addi	a1,a1,852 # 103354 <__modsi3+0x44>
  100690:	100006b7          	lui	a3,0x10000
  100694:	01d00713          	li	a4,29
  100698:	0080006f          	j	1006a0 <bootloader_main+0x368>
        __asm__ __volatile__("nop");
  10069c:	00000013          	nop
    return *(volatile uint32_t*)addr;
  1006a0:	0086a783          	lw	a5,8(a3) # 10000008 <_stack_top+0xfef4a08>
    while (mmio_r32(UART_MMIO_BASE + UART_ST) & ST_TX_BUSY) {
  1006a4:	0017f793          	andi	a5,a5,1
  1006a8:	fe079ae3          	bnez	a5,10069c <bootloader_main+0x364>
        putchar(*s++);
  1006ac:	00150513          	addi	a0,a0,1
  1006b0:	00a587b3          	add	a5,a1,a0
    mmio_w32(UART_MMIO_BASE + UART_TX, (uint32_t)(uint8_t)ch);
  1006b4:	0ff67613          	zext.b	a2,a2
    *(volatile uint32_t*)addr = v;
  1006b8:	00c6a023          	sw	a2,0(a3)
    while (*s) {
  1006bc:	0007c603          	lbu	a2,0(a5)
  1006c0:	fee510e3          	bne	a0,a4,1006a0 <bootloader_main+0x368>
        bl_print("bootloader: user load failed\n");
        for (;;) {
  1006c4:	0000006f          	j	1006c4 <bootloader_main+0x38c>
  1006c8:	00000513          	li	a0,0
  1006cc:	05300613          	li	a2,83
  1006d0:	001035b7          	lui	a1,0x103
  1006d4:	5ef58593          	addi	a1,a1,1519 # 1035ef <$d.1+0x10>
  1006d8:	100006b7          	lui	a3,0x10000
  1006dc:	01000713          	li	a4,16
  1006e0:	0080006f          	j	1006e8 <bootloader_main+0x3b0>
        __asm__ __volatile__("nop");
  1006e4:	00000013          	nop
    return *(volatile uint32_t*)addr;
  1006e8:	0086a783          	lw	a5,8(a3) # 10000008 <_stack_top+0xfef4a08>
    while (mmio_r32(UART_MMIO_BASE + UART_ST) & ST_TX_BUSY) {
  1006ec:	0017f793          	andi	a5,a5,1
  1006f0:	fe079ae3          	bnez	a5,1006e4 <bootloader_main+0x3ac>
        putchar(*s++);
  1006f4:	00150513          	addi	a0,a0,1
  1006f8:	00a587b3          	add	a5,a1,a0
    mmio_w32(UART_MMIO_BASE + UART_TX, (uint32_t)(uint8_t)ch);
  1006fc:	0ff67613          	zext.b	a2,a2
    *(volatile uint32_t*)addr = v;
  100700:	00c6a023          	sw	a2,0(a3)
    while (*s) {
  100704:	0007c603          	lbu	a2,0(a5)
  100708:	fee510e3          	bne	a0,a4,1006e8 <bootloader_main+0x3b0>
  10070c:	00000513          	li	a0,0
  100710:	06200613          	li	a2,98
  100714:	001035b7          	lui	a1,0x103
  100718:	33858593          	addi	a1,a1,824 # 103338 <__modsi3+0x28>
  10071c:	100006b7          	lui	a3,0x10000
  100720:	01b00713          	li	a4,27
  100724:	0080006f          	j	10072c <bootloader_main+0x3f4>
        __asm__ __volatile__("nop");
  100728:	00000013          	nop
    return *(volatile uint32_t*)addr;
  10072c:	0086a783          	lw	a5,8(a3) # 10000008 <_stack_top+0xfef4a08>
    while (mmio_r32(UART_MMIO_BASE + UART_ST) & ST_TX_BUSY) {
  100730:	0017f793          	andi	a5,a5,1
  100734:	fe079ae3          	bnez	a5,100728 <bootloader_main+0x3f0>
        putchar(*s++);
  100738:	00150513          	addi	a0,a0,1
  10073c:	00a587b3          	add	a5,a1,a0
    mmio_w32(UART_MMIO_BASE + UART_TX, (uint32_t)(uint8_t)ch);
  100740:	0ff67613          	zext.b	a2,a2
    *(volatile uint32_t*)addr = v;
  100744:	00c6a023          	sw	a2,0(a3)
    while (*s) {
  100748:	0007c603          	lbu	a2,0(a5)
  10074c:	fee510e3          	bne	a0,a4,10072c <bootloader_main+0x3f4>
        for (;;) {
  100750:	0000006f          	j	100750 <bootloader_main+0x418>
  100754:	06200613          	li	a2,98
  100758:	001035b7          	lui	a1,0x103
  10075c:	3ec58593          	addi	a1,a1,1004 # 1033ec <__modsi3+0xdc>
  100760:	100006b7          	lui	a3,0x10000
  100764:	01600713          	li	a4,22
  100768:	0080006f          	j	100770 <bootloader_main+0x438>
        __asm__ __volatile__("nop");
  10076c:	00000013          	nop
    return *(volatile uint32_t*)addr;
  100770:	0086a783          	lw	a5,8(a3) # 10000008 <_stack_top+0xfef4a08>
    while (mmio_r32(UART_MMIO_BASE + UART_ST) & ST_TX_BUSY) {
  100774:	0017f793          	andi	a5,a5,1
  100778:	fe079ae3          	bnez	a5,10076c <bootloader_main+0x434>
        putchar(*s++);
  10077c:	00150513          	addi	a0,a0,1
  100780:	00a587b3          	add	a5,a1,a0
    mmio_w32(UART_MMIO_BASE + UART_TX, (uint32_t)(uint8_t)ch);
  100784:	0ff67613          	zext.b	a2,a2
    *(volatile uint32_t*)addr = v;
  100788:	00c6a023          	sw	a2,0(a3)
    while (*s) {
  10078c:	0007c603          	lbu	a2,0(a5)
  100790:	fee510e3          	bne	a0,a4,100770 <bootloader_main+0x438>
  100794:	10000537          	lui	a0,0x10000
    return *(volatile uint32_t*)addr;
  100798:	00852583          	lw	a1,8(a0) # 10000008 <_stack_top+0xfef4a08>
    while (mmio_r32(UART_MMIO_BASE + UART_ST) & ST_TX_BUSY) {
  10079c:	0015f593          	andi	a1,a1,1
  1007a0:	00058663          	beqz	a1,1007ac <bootloader_main+0x474>
        __asm__ __volatile__("nop");
  1007a4:	00000013          	nop
  1007a8:	ff1ff06f          	j	100798 <bootloader_main+0x460>
  1007ac:	06b00593          	li	a1,107
    *(volatile uint32_t*)addr = v;
  1007b0:	00b52023          	sw	a1,0(a0)
    return *(volatile uint32_t*)addr;
  1007b4:	00852503          	lw	a0,8(a0)
    while (mmio_r32(UART_MMIO_BASE + UART_ST) & ST_TX_BUSY) {
  1007b8:	00157513          	andi	a0,a0,1
  1007bc:	00050c63          	beqz	a0,1007d4 <bootloader_main+0x49c>
  1007c0:	10000537          	lui	a0,0x10000
        __asm__ __volatile__("nop");
  1007c4:	00000013          	nop
  1007c8:	00852583          	lw	a1,8(a0) # 10000008 <_stack_top+0xfef4a08>
    while (mmio_r32(UART_MMIO_BASE + UART_ST) & ST_TX_BUSY) {
  1007cc:	0015f593          	andi	a1,a1,1
  1007d0:	fe059ae3          	bnez	a1,1007c4 <bootloader_main+0x48c>
  1007d4:	10000537          	lui	a0,0x10000
  1007d8:	06500593          	li	a1,101
    *(volatile uint32_t*)addr = v;
  1007dc:	00b52023          	sw	a1,0(a0) # 10000000 <_stack_top+0xfef4a00>
    return *(volatile uint32_t*)addr;
  1007e0:	00852583          	lw	a1,8(a0)
  1007e4:	0015f593          	andi	a1,a1,1
  1007e8:	00058663          	beqz	a1,1007f4 <bootloader_main+0x4bc>
        __asm__ __volatile__("nop");
  1007ec:	00000013          	nop
  1007f0:	ff1ff06f          	j	1007e0 <bootloader_main+0x4a8>
  1007f4:	07200593          	li	a1,114
    *(volatile uint32_t*)addr = v;
  1007f8:	00b52023          	sw	a1,0(a0)
    return *(volatile uint32_t*)addr;
  1007fc:	00852503          	lw	a0,8(a0)
    while (mmio_r32(UART_MMIO_BASE + UART_ST) & ST_TX_BUSY) {
  100800:	00157513          	andi	a0,a0,1
  100804:	00050c63          	beqz	a0,10081c <bootloader_main+0x4e4>
  100808:	10000537          	lui	a0,0x10000
        __asm__ __volatile__("nop");
  10080c:	00000013          	nop
  100810:	00852583          	lw	a1,8(a0) # 10000008 <_stack_top+0xfef4a08>
    while (mmio_r32(UART_MMIO_BASE + UART_ST) & ST_TX_BUSY) {
  100814:	0015f593          	andi	a1,a1,1
  100818:	fe059ae3          	bnez	a1,10080c <bootloader_main+0x4d4>
  10081c:	10000537          	lui	a0,0x10000
  100820:	06e00593          	li	a1,110
    *(volatile uint32_t*)addr = v;
  100824:	00b52023          	sw	a1,0(a0) # 10000000 <_stack_top+0xfef4a00>
    return *(volatile uint32_t*)addr;
  100828:	00852583          	lw	a1,8(a0)
  10082c:	0015f593          	andi	a1,a1,1
  100830:	00058663          	beqz	a1,10083c <bootloader_main+0x504>
        __asm__ __volatile__("nop");
  100834:	00000013          	nop
  100838:	ff1ff06f          	j	100828 <bootloader_main+0x4f0>
  10083c:	06500593          	li	a1,101
    *(volatile uint32_t*)addr = v;
  100840:	00b52023          	sw	a1,0(a0)
    return *(volatile uint32_t*)addr;
  100844:	00852503          	lw	a0,8(a0)
    while (mmio_r32(UART_MMIO_BASE + UART_ST) & ST_TX_BUSY) {
  100848:	00157513          	andi	a0,a0,1
  10084c:	00050c63          	beqz	a0,100864 <bootloader_main+0x52c>
  100850:	10000537          	lui	a0,0x10000
        __asm__ __volatile__("nop");
  100854:	00000013          	nop
  100858:	00852583          	lw	a1,8(a0) # 10000008 <_stack_top+0xfef4a08>
    while (mmio_r32(UART_MMIO_BASE + UART_ST) & ST_TX_BUSY) {
  10085c:	0015f593          	andi	a1,a1,1
  100860:	fe059ae3          	bnez	a1,100854 <bootloader_main+0x51c>
  100864:	10000537          	lui	a0,0x10000
  100868:	06c00593          	li	a1,108
    *(volatile uint32_t*)addr = v;
  10086c:	00b52023          	sw	a1,0(a0) # 10000000 <_stack_top+0xfef4a00>
    return *(volatile uint32_t*)addr;
  100870:	00852583          	lw	a1,8(a0)
  100874:	0015f593          	andi	a1,a1,1
  100878:	00058663          	beqz	a1,100884 <bootloader_main+0x54c>
        __asm__ __volatile__("nop");
  10087c:	00000013          	nop
  100880:	ff1ff06f          	j	100870 <bootloader_main+0x538>
  100884:	05b00593          	li	a1,91
    *(volatile uint32_t*)addr = v;
  100888:	00b52023          	sw	a1,0(a0)
    return *(volatile uint32_t*)addr;
  10088c:	00852503          	lw	a0,8(a0)
    while (mmio_r32(UART_MMIO_BASE + UART_ST) & ST_TX_BUSY) {
  100890:	00157513          	andi	a0,a0,1
  100894:	00050c63          	beqz	a0,1008ac <bootloader_main+0x574>
  100898:	10000537          	lui	a0,0x10000
        __asm__ __volatile__("nop");
  10089c:	00000013          	nop
  1008a0:	00852583          	lw	a1,8(a0) # 10000008 <_stack_top+0xfef4a08>
    while (mmio_r32(UART_MMIO_BASE + UART_ST) & ST_TX_BUSY) {
  1008a4:	0015f593          	andi	a1,a1,1
  1008a8:	fe059ae3          	bnez	a1,10089c <bootloader_main+0x564>
  1008ac:	10000537          	lui	a0,0x10000
  1008b0:	03000593          	li	a1,48
    *(volatile uint32_t*)addr = v;
  1008b4:	00b52023          	sw	a1,0(a0) # 10000000 <_stack_top+0xfef4a00>
    return *(volatile uint32_t*)addr;
  1008b8:	00852583          	lw	a1,8(a0)
  1008bc:	0015f593          	andi	a1,a1,1
  1008c0:	00058663          	beqz	a1,1008cc <bootloader_main+0x594>
        __asm__ __volatile__("nop");
  1008c4:	00000013          	nop
  1008c8:	ff1ff06f          	j	1008b8 <bootloader_main+0x580>
  1008cc:	05d00593          	li	a1,93
    *(volatile uint32_t*)addr = v;
  1008d0:	00b52023          	sw	a1,0(a0)
    return *(volatile uint32_t*)addr;
  1008d4:	00852503          	lw	a0,8(a0)
    while (mmio_r32(UART_MMIO_BASE + UART_ST) & ST_TX_BUSY) {
  1008d8:	00157513          	andi	a0,a0,1
  1008dc:	00050c63          	beqz	a0,1008f4 <bootloader_main+0x5bc>
  1008e0:	10000537          	lui	a0,0x10000
        __asm__ __volatile__("nop");
  1008e4:	00000013          	nop
  1008e8:	00852583          	lw	a1,8(a0) # 10000008 <_stack_top+0xfef4a08>
    while (mmio_r32(UART_MMIO_BASE + UART_ST) & ST_TX_BUSY) {
  1008ec:	0015f593          	andi	a1,a1,1
  1008f0:	fe059ae3          	bnez	a1,1008e4 <bootloader_main+0x5ac>
  1008f4:	10000537          	lui	a0,0x10000
  1008f8:	03d00593          	li	a1,61
    *(volatile uint32_t*)addr = v;
  1008fc:	00b52023          	sw	a1,0(a0) # 10000000 <_stack_top+0xfef4a00>
  100900:	002005b7          	lui	a1,0x200
    }

    bl_print("bootloader: load done\n");

    bl_print("kernel[0]=");
    bl_print_hex(*(volatile uint32_t *)KERNEL_LOAD_ADDR);
  100904:	0005a583          	lw	a1,0(a1) # 200000 <_stack_top+0xf4a00>
  100908:	00700713          	li	a4,7
  10090c:	00a00613          	li	a2,10
  100910:	00070693          	mv	a3,a4
        uint8_t n = (v >> (i * 4)) & 0xF;
  100914:	00271713          	slli	a4,a4,0x2
  100918:	00e5d733          	srl	a4,a1,a4
  10091c:	00f77713          	andi	a4,a4,15
        putchar(n < 10 ? '0' + n : 'A' + n - 10);
  100920:	00c76663          	bltu	a4,a2,10092c <bootloader_main+0x5f4>
  100924:	03770713          	addi	a4,a4,55
  100928:	0100006f          	j	100938 <bootloader_main+0x600>
  10092c:	03070713          	addi	a4,a4,48
  100930:	0080006f          	j	100938 <bootloader_main+0x600>
        __asm__ __volatile__("nop");
  100934:	00000013          	nop
    return *(volatile uint32_t*)addr;
  100938:	00852783          	lw	a5,8(a0)
    while (mmio_r32(UART_MMIO_BASE + UART_ST) & ST_TX_BUSY) {
  10093c:	0017f793          	andi	a5,a5,1
  100940:	fe079ae3          	bnez	a5,100934 <bootloader_main+0x5fc>
    *(volatile uint32_t*)addr = v;
  100944:	00e52023          	sw	a4,0(a0)
    for (int i = 7; i >= 0; i--) {
  100948:	fff68713          	addi	a4,a3,-1
  10094c:	fc0692e3          	bnez	a3,100910 <bootloader_main+0x5d8>
  100950:	10000537          	lui	a0,0x10000
    return *(volatile uint32_t*)addr;
  100954:	00852583          	lw	a1,8(a0) # 10000008 <_stack_top+0xfef4a08>
    while (mmio_r32(UART_MMIO_BASE + UART_ST) & ST_TX_BUSY) {
  100958:	0015f593          	andi	a1,a1,1
  10095c:	00058663          	beqz	a1,100968 <bootloader_main+0x630>
        __asm__ __volatile__("nop");
  100960:	00000013          	nop
  100964:	ff1ff06f          	j	100954 <bootloader_main+0x61c>
  100968:	00a00593          	li	a1,10
    *(volatile uint32_t*)addr = v;
  10096c:	00b52023          	sw	a1,0(a0)
    return *(volatile uint32_t*)addr;
  100970:	00852503          	lw	a0,8(a0)
    while (mmio_r32(UART_MMIO_BASE + UART_ST) & ST_TX_BUSY) {
  100974:	00157513          	andi	a0,a0,1
  100978:	00050c63          	beqz	a0,100990 <bootloader_main+0x658>
  10097c:	10000537          	lui	a0,0x10000
        __asm__ __volatile__("nop");
  100980:	00000013          	nop
  100984:	00852583          	lw	a1,8(a0) # 10000008 <_stack_top+0xfef4a08>
    while (mmio_r32(UART_MMIO_BASE + UART_ST) & ST_TX_BUSY) {
  100988:	0015f593          	andi	a1,a1,1
  10098c:	fe059ae3          	bnez	a1,100980 <bootloader_main+0x648>
  100990:	10000537          	lui	a0,0x10000
  100994:	07500593          	li	a1,117
    *(volatile uint32_t*)addr = v;
  100998:	00b52023          	sw	a1,0(a0) # 10000000 <_stack_top+0xfef4a00>
    return *(volatile uint32_t*)addr;
  10099c:	00852583          	lw	a1,8(a0)
  1009a0:	0015f593          	andi	a1,a1,1
  1009a4:	00058663          	beqz	a1,1009b0 <bootloader_main+0x678>
        __asm__ __volatile__("nop");
  1009a8:	00000013          	nop
  1009ac:	ff1ff06f          	j	10099c <bootloader_main+0x664>
  1009b0:	07300593          	li	a1,115
    *(volatile uint32_t*)addr = v;
  1009b4:	00b52023          	sw	a1,0(a0)
    return *(volatile uint32_t*)addr;
  1009b8:	00852503          	lw	a0,8(a0)
    while (mmio_r32(UART_MMIO_BASE + UART_ST) & ST_TX_BUSY) {
  1009bc:	00157513          	andi	a0,a0,1
  1009c0:	00050c63          	beqz	a0,1009d8 <bootloader_main+0x6a0>
  1009c4:	10000537          	lui	a0,0x10000
        __asm__ __volatile__("nop");
  1009c8:	00000013          	nop
  1009cc:	00852583          	lw	a1,8(a0) # 10000008 <_stack_top+0xfef4a08>
    while (mmio_r32(UART_MMIO_BASE + UART_ST) & ST_TX_BUSY) {
  1009d0:	0015f593          	andi	a1,a1,1
  1009d4:	fe059ae3          	bnez	a1,1009c8 <bootloader_main+0x690>
  1009d8:	10000537          	lui	a0,0x10000
  1009dc:	06500593          	li	a1,101
    *(volatile uint32_t*)addr = v;
  1009e0:	00b52023          	sw	a1,0(a0) # 10000000 <_stack_top+0xfef4a00>
    return *(volatile uint32_t*)addr;
  1009e4:	00852583          	lw	a1,8(a0)
  1009e8:	0015f593          	andi	a1,a1,1
  1009ec:	00058663          	beqz	a1,1009f8 <bootloader_main+0x6c0>
        __asm__ __volatile__("nop");
  1009f0:	00000013          	nop
  1009f4:	ff1ff06f          	j	1009e4 <bootloader_main+0x6ac>
  1009f8:	07200593          	li	a1,114
    *(volatile uint32_t*)addr = v;
  1009fc:	00b52023          	sw	a1,0(a0)
    return *(volatile uint32_t*)addr;
  100a00:	00852503          	lw	a0,8(a0)
    while (mmio_r32(UART_MMIO_BASE + UART_ST) & ST_TX_BUSY) {
  100a04:	00157513          	andi	a0,a0,1
  100a08:	00050c63          	beqz	a0,100a20 <bootloader_main+0x6e8>
  100a0c:	10000537          	lui	a0,0x10000
        __asm__ __volatile__("nop");
  100a10:	00000013          	nop
  100a14:	00852583          	lw	a1,8(a0) # 10000008 <_stack_top+0xfef4a08>
    while (mmio_r32(UART_MMIO_BASE + UART_ST) & ST_TX_BUSY) {
  100a18:	0015f593          	andi	a1,a1,1
  100a1c:	fe059ae3          	bnez	a1,100a10 <bootloader_main+0x6d8>
  100a20:	10000537          	lui	a0,0x10000
  100a24:	05b00593          	li	a1,91
    *(volatile uint32_t*)addr = v;
  100a28:	00b52023          	sw	a1,0(a0) # 10000000 <_stack_top+0xfef4a00>
    return *(volatile uint32_t*)addr;
  100a2c:	00852583          	lw	a1,8(a0)
  100a30:	0015f593          	andi	a1,a1,1
  100a34:	00058663          	beqz	a1,100a40 <bootloader_main+0x708>
        __asm__ __volatile__("nop");
  100a38:	00000013          	nop
  100a3c:	ff1ff06f          	j	100a2c <bootloader_main+0x6f4>
  100a40:	03000593          	li	a1,48
    *(volatile uint32_t*)addr = v;
  100a44:	00b52023          	sw	a1,0(a0)
    return *(volatile uint32_t*)addr;
  100a48:	00852503          	lw	a0,8(a0)
    while (mmio_r32(UART_MMIO_BASE + UART_ST) & ST_TX_BUSY) {
  100a4c:	00157513          	andi	a0,a0,1
  100a50:	00050c63          	beqz	a0,100a68 <bootloader_main+0x730>
  100a54:	10000537          	lui	a0,0x10000
        __asm__ __volatile__("nop");
  100a58:	00000013          	nop
  100a5c:	00852583          	lw	a1,8(a0) # 10000008 <_stack_top+0xfef4a08>
    while (mmio_r32(UART_MMIO_BASE + UART_ST) & ST_TX_BUSY) {
  100a60:	0015f593          	andi	a1,a1,1
  100a64:	fe059ae3          	bnez	a1,100a58 <bootloader_main+0x720>
  100a68:	10000537          	lui	a0,0x10000
  100a6c:	05d00593          	li	a1,93
    *(volatile uint32_t*)addr = v;
  100a70:	00b52023          	sw	a1,0(a0) # 10000000 <_stack_top+0xfef4a00>
    return *(volatile uint32_t*)addr;
  100a74:	00852583          	lw	a1,8(a0)
  100a78:	0015f593          	andi	a1,a1,1
  100a7c:	00058663          	beqz	a1,100a88 <bootloader_main+0x750>
        __asm__ __volatile__("nop");
  100a80:	00000013          	nop
  100a84:	ff1ff06f          	j	100a74 <bootloader_main+0x73c>
  100a88:	02000593          	li	a1,32
    *(volatile uint32_t*)addr = v;
  100a8c:	00b52023          	sw	a1,0(a0)
    return *(volatile uint32_t*)addr;
  100a90:	00852503          	lw	a0,8(a0)
    while (mmio_r32(UART_MMIO_BASE + UART_ST) & ST_TX_BUSY) {
  100a94:	00157513          	andi	a0,a0,1
  100a98:	00050c63          	beqz	a0,100ab0 <bootloader_main+0x778>
  100a9c:	10000537          	lui	a0,0x10000
        __asm__ __volatile__("nop");
  100aa0:	00000013          	nop
  100aa4:	00852603          	lw	a2,8(a0) # 10000008 <_stack_top+0xfef4a08>
    while (mmio_r32(UART_MMIO_BASE + UART_ST) & ST_TX_BUSY) {
  100aa8:	00167613          	andi	a2,a2,1
  100aac:	fe061ae3          	bnez	a2,100aa0 <bootloader_main+0x768>
  100ab0:	10000537          	lui	a0,0x10000
    *(volatile uint32_t*)addr = v;
  100ab4:	00b52023          	sw	a1,0(a0) # 10000000 <_stack_top+0xfef4a00>
    return *(volatile uint32_t*)addr;
  100ab8:	00852583          	lw	a1,8(a0)
  100abc:	0015f593          	andi	a1,a1,1
  100ac0:	00058663          	beqz	a1,100acc <bootloader_main+0x794>
        __asm__ __volatile__("nop");
  100ac4:	00000013          	nop
  100ac8:	ff1ff06f          	j	100ab8 <bootloader_main+0x780>
  100acc:	03d00593          	li	a1,61
    *(volatile uint32_t*)addr = v;
  100ad0:	00b52023          	sw	a1,0(a0)
  100ad4:	004005b7          	lui	a1,0x400
    bl_print("\n");

    bl_print("user[0]  =");
    bl_print_hex(*(volatile uint32_t *)USER_LOAD_ADDR);
  100ad8:	0005a583          	lw	a1,0(a1) # 400000 <_stack_top+0x2f4a00>
  100adc:	00700713          	li	a4,7
  100ae0:	00a00613          	li	a2,10
  100ae4:	00070693          	mv	a3,a4
        uint8_t n = (v >> (i * 4)) & 0xF;
  100ae8:	00271713          	slli	a4,a4,0x2
  100aec:	00e5d733          	srl	a4,a1,a4
  100af0:	00f77713          	andi	a4,a4,15
        putchar(n < 10 ? '0' + n : 'A' + n - 10);
  100af4:	00c76663          	bltu	a4,a2,100b00 <bootloader_main+0x7c8>
  100af8:	03770713          	addi	a4,a4,55
  100afc:	0100006f          	j	100b0c <bootloader_main+0x7d4>
  100b00:	03070713          	addi	a4,a4,48
  100b04:	0080006f          	j	100b0c <bootloader_main+0x7d4>
        __asm__ __volatile__("nop");
  100b08:	00000013          	nop
    return *(volatile uint32_t*)addr;
  100b0c:	00852783          	lw	a5,8(a0)
    while (mmio_r32(UART_MMIO_BASE + UART_ST) & ST_TX_BUSY) {
  100b10:	0017f793          	andi	a5,a5,1
  100b14:	fe079ae3          	bnez	a5,100b08 <bootloader_main+0x7d0>
    *(volatile uint32_t*)addr = v;
  100b18:	00e52023          	sw	a4,0(a0)
    for (int i = 7; i >= 0; i--) {
  100b1c:	fff68713          	addi	a4,a3,-1
  100b20:	fc0692e3          	bnez	a3,100ae4 <bootloader_main+0x7ac>
  100b24:	10000537          	lui	a0,0x10000
    return *(volatile uint32_t*)addr;
  100b28:	00852583          	lw	a1,8(a0) # 10000008 <_stack_top+0xfef4a08>
    while (mmio_r32(UART_MMIO_BASE + UART_ST) & ST_TX_BUSY) {
  100b2c:	0015f593          	andi	a1,a1,1
  100b30:	00058663          	beqz	a1,100b3c <bootloader_main+0x804>
        __asm__ __volatile__("nop");
  100b34:	00000013          	nop
  100b38:	ff1ff06f          	j	100b28 <bootloader_main+0x7f0>
  100b3c:	00a00593          	li	a1,10
    *(volatile uint32_t*)addr = v;
  100b40:	00b52023          	sw	a1,0(a0)
    __asm__ __volatile__("fence.i" ::: "memory");
  100b44:	0000100f          	.insn	4, 0x100f
  100b48:	0000100f          	.insn	4, 0x100f
    return *(volatile uint32_t*)addr;
  100b4c:	00852503          	lw	a0,8(a0)
    while (mmio_r32(UART_MMIO_BASE + UART_ST) & ST_TX_BUSY) {
  100b50:	00157513          	andi	a0,a0,1
  100b54:	00050c63          	beqz	a0,100b6c <bootloader_main+0x834>
  100b58:	10000537          	lui	a0,0x10000
        __asm__ __volatile__("nop");
  100b5c:	00000013          	nop
  100b60:	00852583          	lw	a1,8(a0) # 10000008 <_stack_top+0xfef4a08>
    while (mmio_r32(UART_MMIO_BASE + UART_ST) & ST_TX_BUSY) {
  100b64:	0015f593          	andi	a1,a1,1
  100b68:	fe059ae3          	bnez	a1,100b5c <bootloader_main+0x824>
  100b6c:	10000537          	lui	a0,0x10000
  100b70:	04a00593          	li	a1,74
    *(volatile uint32_t*)addr = v;
  100b74:	00b52023          	sw	a1,0(a0) # 10000000 <_stack_top+0xfef4a00>
    return *(volatile uint32_t*)addr;
  100b78:	00852583          	lw	a1,8(a0)
  100b7c:	0015f593          	andi	a1,a1,1
  100b80:	00058663          	beqz	a1,100b8c <bootloader_main+0x854>
        __asm__ __volatile__("nop");
  100b84:	00000013          	nop
  100b88:	ff1ff06f          	j	100b78 <bootloader_main+0x840>
  100b8c:	05500593          	li	a1,85
    *(volatile uint32_t*)addr = v;
  100b90:	00b52023          	sw	a1,0(a0)
    return *(volatile uint32_t*)addr;
  100b94:	00852503          	lw	a0,8(a0)
    while (mmio_r32(UART_MMIO_BASE + UART_ST) & ST_TX_BUSY) {
  100b98:	00157513          	andi	a0,a0,1
  100b9c:	00050c63          	beqz	a0,100bb4 <bootloader_main+0x87c>
  100ba0:	10000537          	lui	a0,0x10000
        __asm__ __volatile__("nop");
  100ba4:	00000013          	nop
  100ba8:	00852583          	lw	a1,8(a0) # 10000008 <_stack_top+0xfef4a08>
    while (mmio_r32(UART_MMIO_BASE + UART_ST) & ST_TX_BUSY) {
  100bac:	0015f593          	andi	a1,a1,1
  100bb0:	fe059ae3          	bnez	a1,100ba4 <bootloader_main+0x86c>
  100bb4:	10000537          	lui	a0,0x10000
  100bb8:	04d00593          	li	a1,77
    *(volatile uint32_t*)addr = v;
  100bbc:	00b52023          	sw	a1,0(a0) # 10000000 <_stack_top+0xfef4a00>
    return *(volatile uint32_t*)addr;
  100bc0:	00852583          	lw	a1,8(a0)
  100bc4:	0015f593          	andi	a1,a1,1
  100bc8:	00058663          	beqz	a1,100bd4 <bootloader_main+0x89c>
        __asm__ __volatile__("nop");
  100bcc:	00000013          	nop
  100bd0:	ff1ff06f          	j	100bc0 <bootloader_main+0x888>
  100bd4:	05000593          	li	a1,80
    *(volatile uint32_t*)addr = v;
  100bd8:	00b52023          	sw	a1,0(a0)
    return *(volatile uint32_t*)addr;
  100bdc:	00852503          	lw	a0,8(a0)
    while (mmio_r32(UART_MMIO_BASE + UART_ST) & ST_TX_BUSY) {
  100be0:	00157513          	andi	a0,a0,1
  100be4:	00050c63          	beqz	a0,100bfc <bootloader_main+0x8c4>
  100be8:	10000537          	lui	a0,0x10000
        __asm__ __volatile__("nop");
  100bec:	00000013          	nop
  100bf0:	00852583          	lw	a1,8(a0) # 10000008 <_stack_top+0xfef4a08>
    while (mmio_r32(UART_MMIO_BASE + UART_ST) & ST_TX_BUSY) {
  100bf4:	0015f593          	andi	a1,a1,1
  100bf8:	fe059ae3          	bnez	a1,100bec <bootloader_main+0x8b4>
  100bfc:	10000537          	lui	a0,0x10000
  100c00:	02000593          	li	a1,32
    *(volatile uint32_t*)addr = v;
  100c04:	00b52023          	sw	a1,0(a0) # 10000000 <_stack_top+0xfef4a00>
    return *(volatile uint32_t*)addr;
  100c08:	00852583          	lw	a1,8(a0)
  100c0c:	0015f593          	andi	a1,a1,1
  100c10:	00058663          	beqz	a1,100c1c <bootloader_main+0x8e4>
        __asm__ __volatile__("nop");
  100c14:	00000013          	nop
  100c18:	ff1ff06f          	j	100c08 <bootloader_main+0x8d0>
  100c1c:	05400593          	li	a1,84
    *(volatile uint32_t*)addr = v;
  100c20:	00b52023          	sw	a1,0(a0)
    return *(volatile uint32_t*)addr;
  100c24:	00852503          	lw	a0,8(a0)
    while (mmio_r32(UART_MMIO_BASE + UART_ST) & ST_TX_BUSY) {
  100c28:	00157513          	andi	a0,a0,1
  100c2c:	00050c63          	beqz	a0,100c44 <bootloader_main+0x90c>
  100c30:	10000537          	lui	a0,0x10000
        __asm__ __volatile__("nop");
  100c34:	00000013          	nop
  100c38:	00852583          	lw	a1,8(a0) # 10000008 <_stack_top+0xfef4a08>
    while (mmio_r32(UART_MMIO_BASE + UART_ST) & ST_TX_BUSY) {
  100c3c:	0015f593          	andi	a1,a1,1
  100c40:	fe059ae3          	bnez	a1,100c34 <bootloader_main+0x8fc>
  100c44:	10000537          	lui	a0,0x10000
  100c48:	04f00593          	li	a1,79
    *(volatile uint32_t*)addr = v;
  100c4c:	00b52023          	sw	a1,0(a0) # 10000000 <_stack_top+0xfef4a00>
    return *(volatile uint32_t*)addr;
  100c50:	00852583          	lw	a1,8(a0)
  100c54:	0015f593          	andi	a1,a1,1
  100c58:	00058663          	beqz	a1,100c64 <bootloader_main+0x92c>
        __asm__ __volatile__("nop");
  100c5c:	00000013          	nop
  100c60:	ff1ff06f          	j	100c50 <bootloader_main+0x918>
  100c64:	02000593          	li	a1,32
    *(volatile uint32_t*)addr = v;
  100c68:	00b52023          	sw	a1,0(a0)
    return *(volatile uint32_t*)addr;
  100c6c:	00852503          	lw	a0,8(a0)
    while (mmio_r32(UART_MMIO_BASE + UART_ST) & ST_TX_BUSY) {
  100c70:	00157513          	andi	a0,a0,1
  100c74:	00050c63          	beqz	a0,100c8c <bootloader_main+0x954>
  100c78:	10000537          	lui	a0,0x10000
        __asm__ __volatile__("nop");
  100c7c:	00000013          	nop
  100c80:	00852583          	lw	a1,8(a0) # 10000008 <_stack_top+0xfef4a08>
    while (mmio_r32(UART_MMIO_BASE + UART_ST) & ST_TX_BUSY) {
  100c84:	0015f593          	andi	a1,a1,1
  100c88:	fe059ae3          	bnez	a1,100c7c <bootloader_main+0x944>
  100c8c:	10000537          	lui	a0,0x10000
  100c90:	03000593          	li	a1,48
    *(volatile uint32_t*)addr = v;
  100c94:	00b52023          	sw	a1,0(a0) # 10000000 <_stack_top+0xfef4a00>
    return *(volatile uint32_t*)addr;
  100c98:	00852603          	lw	a2,8(a0)
  100c9c:	00167613          	andi	a2,a2,1
  100ca0:	00060663          	beqz	a2,100cac <bootloader_main+0x974>
        __asm__ __volatile__("nop");
  100ca4:	00000013          	nop
  100ca8:	ff1ff06f          	j	100c98 <bootloader_main+0x960>
    *(volatile uint32_t*)addr = v;
  100cac:	00b52023          	sw	a1,0(a0)
    return *(volatile uint32_t*)addr;
  100cb0:	00852503          	lw	a0,8(a0)
    while (mmio_r32(UART_MMIO_BASE + UART_ST) & ST_TX_BUSY) {
  100cb4:	00157513          	andi	a0,a0,1
  100cb8:	00050c63          	beqz	a0,100cd0 <bootloader_main+0x998>
  100cbc:	10000537          	lui	a0,0x10000
        __asm__ __volatile__("nop");
  100cc0:	00000013          	nop
  100cc4:	00852583          	lw	a1,8(a0) # 10000008 <_stack_top+0xfef4a08>
    while (mmio_r32(UART_MMIO_BASE + UART_ST) & ST_TX_BUSY) {
  100cc8:	0015f593          	andi	a1,a1,1
  100ccc:	fe059ae3          	bnez	a1,100cc0 <bootloader_main+0x988>
  100cd0:	10000537          	lui	a0,0x10000
  100cd4:	03200593          	li	a1,50
    *(volatile uint32_t*)addr = v;
  100cd8:	00b52023          	sw	a1,0(a0) # 10000000 <_stack_top+0xfef4a00>
    return *(volatile uint32_t*)addr;
  100cdc:	00852583          	lw	a1,8(a0)
  100ce0:	0015f593          	andi	a1,a1,1
  100ce4:	00058663          	beqz	a1,100cf0 <bootloader_main+0x9b8>
        __asm__ __volatile__("nop");
  100ce8:	00000013          	nop
  100cec:	ff1ff06f          	j	100cdc <bootloader_main+0x9a4>
  100cf0:	03000593          	li	a1,48
    *(volatile uint32_t*)addr = v;
  100cf4:	00b52023          	sw	a1,0(a0)
    return *(volatile uint32_t*)addr;
  100cf8:	00852503          	lw	a0,8(a0)
    while (mmio_r32(UART_MMIO_BASE + UART_ST) & ST_TX_BUSY) {
  100cfc:	00157513          	andi	a0,a0,1
  100d00:	00050c63          	beqz	a0,100d18 <bootloader_main+0x9e0>
  100d04:	10000537          	lui	a0,0x10000
        __asm__ __volatile__("nop");
  100d08:	00000013          	nop
  100d0c:	00852603          	lw	a2,8(a0) # 10000008 <_stack_top+0xfef4a08>
    while (mmio_r32(UART_MMIO_BASE + UART_ST) & ST_TX_BUSY) {
  100d10:	00167613          	andi	a2,a2,1
  100d14:	fe061ae3          	bnez	a2,100d08 <bootloader_main+0x9d0>
  100d18:	10000537          	lui	a0,0x10000
    *(volatile uint32_t*)addr = v;
  100d1c:	00b52023          	sw	a1,0(a0) # 10000000 <_stack_top+0xfef4a00>
    return *(volatile uint32_t*)addr;
  100d20:	00852583          	lw	a1,8(a0)
  100d24:	0015f593          	andi	a1,a1,1
  100d28:	00058663          	beqz	a1,100d34 <bootloader_main+0x9fc>
        __asm__ __volatile__("nop");
  100d2c:	00000013          	nop
  100d30:	ff1ff06f          	j	100d20 <bootloader_main+0x9e8>
  100d34:	03000593          	li	a1,48
    *(volatile uint32_t*)addr = v;
  100d38:	00b52023          	sw	a1,0(a0)
    return *(volatile uint32_t*)addr;
  100d3c:	00852503          	lw	a0,8(a0)
    while (mmio_r32(UART_MMIO_BASE + UART_ST) & ST_TX_BUSY) {
  100d40:	00157513          	andi	a0,a0,1
  100d44:	00050c63          	beqz	a0,100d5c <bootloader_main+0xa24>
  100d48:	10000537          	lui	a0,0x10000
        __asm__ __volatile__("nop");
  100d4c:	00000013          	nop
  100d50:	00852603          	lw	a2,8(a0) # 10000008 <_stack_top+0xfef4a08>
    while (mmio_r32(UART_MMIO_BASE + UART_ST) & ST_TX_BUSY) {
  100d54:	00167613          	andi	a2,a2,1
  100d58:	fe061ae3          	bnez	a2,100d4c <bootloader_main+0xa14>
  100d5c:	10000537          	lui	a0,0x10000
    *(volatile uint32_t*)addr = v;
  100d60:	00b52023          	sw	a1,0(a0) # 10000000 <_stack_top+0xfef4a00>
    return *(volatile uint32_t*)addr;
  100d64:	00852583          	lw	a1,8(a0)
  100d68:	0015f593          	andi	a1,a1,1
  100d6c:	00058663          	beqz	a1,100d78 <bootloader_main+0xa40>
        __asm__ __volatile__("nop");
  100d70:	00000013          	nop
  100d74:	ff1ff06f          	j	100d64 <bootloader_main+0xa2c>
  100d78:	03000593          	li	a1,48
    *(volatile uint32_t*)addr = v;
  100d7c:	00b52023          	sw	a1,0(a0)
    return *(volatile uint32_t*)addr;
  100d80:	00852503          	lw	a0,8(a0)
    while (mmio_r32(UART_MMIO_BASE + UART_ST) & ST_TX_BUSY) {
  100d84:	00157513          	andi	a0,a0,1
  100d88:	00050c63          	beqz	a0,100da0 <bootloader_main+0xa68>
  100d8c:	10000537          	lui	a0,0x10000
        __asm__ __volatile__("nop");
  100d90:	00000013          	nop
  100d94:	00852583          	lw	a1,8(a0) # 10000008 <_stack_top+0xfef4a08>
    while (mmio_r32(UART_MMIO_BASE + UART_ST) & ST_TX_BUSY) {
  100d98:	0015f593          	andi	a1,a1,1
  100d9c:	fe059ae3          	bnez	a1,100d90 <bootloader_main+0xa58>
  100da0:	10000537          	lui	a0,0x10000
  100da4:	00a00593          	li	a1,10
    *(volatile uint32_t*)addr = v;
  100da8:	00b52023          	sw	a1,0(a0) # 10000000 <_stack_top+0xfef4a00>
  100dac:	00200537          	lui	a0,0x200
    entry();
  100db0:	000500e7          	jalr	a0 # 200000 <_stack_top+0xf4a00>
    for (;;) {
  100db4:	0000006f          	j	100db4 <bootloader_main+0xa7c>

00100db8 <sd_load_image>:
{
  100db8:	db010113          	addi	sp,sp,-592
  100dbc:	24112623          	sw	ra,588(sp)
  100dc0:	24812423          	sw	s0,584(sp)
  100dc4:	24912223          	sw	s1,580(sp)
  100dc8:	25212023          	sw	s2,576(sp)
  100dcc:	23312e23          	sw	s3,572(sp)
  100dd0:	23412c23          	sw	s4,568(sp)
  100dd4:	23512a23          	sw	s5,564(sp)
  100dd8:	23612823          	sw	s6,560(sp)
  100ddc:	23712623          	sw	s7,556(sp)
  100de0:	23812423          	sw	s8,552(sp)
  100de4:	23912223          	sw	s9,548(sp)
  100de8:	23a12023          	sw	s10,544(sp)
  100dec:	21b12e23          	sw	s11,540(sp)
  100df0:	100006b7          	lui	a3,0x10000
    return *(volatile uint32_t*)addr;
  100df4:	0086a703          	lw	a4,8(a3) # 10000008 <_stack_top+0xfef4a08>
    while (mmio_r32(UART_MMIO_BASE + UART_ST) & ST_TX_BUSY) {
  100df8:	00177713          	andi	a4,a4,1
  100dfc:	00070663          	beqz	a4,100e08 <sd_load_image+0x50>
        __asm__ __volatile__("nop");
  100e00:	00000013          	nop
  100e04:	ff1ff06f          	j	100df4 <sd_load_image+0x3c>
  100e08:	04c00713          	li	a4,76
    *(volatile uint32_t*)addr = v;
  100e0c:	00e6a023          	sw	a4,0(a3)
    return *(volatile uint32_t*)addr;
  100e10:	0086a683          	lw	a3,8(a3)
    while (mmio_r32(UART_MMIO_BASE + UART_ST) & ST_TX_BUSY) {
  100e14:	0016f693          	andi	a3,a3,1
  100e18:	00068c63          	beqz	a3,100e30 <sd_load_image+0x78>
  100e1c:	100006b7          	lui	a3,0x10000
        __asm__ __volatile__("nop");
  100e20:	00000013          	nop
  100e24:	0086a703          	lw	a4,8(a3) # 10000008 <_stack_top+0xfef4a08>
    while (mmio_r32(UART_MMIO_BASE + UART_ST) & ST_TX_BUSY) {
  100e28:	00177713          	andi	a4,a4,1
  100e2c:	fe071ae3          	bnez	a4,100e20 <sd_load_image+0x68>
  100e30:	100006b7          	lui	a3,0x10000
  100e34:	04f00713          	li	a4,79
    *(volatile uint32_t*)addr = v;
  100e38:	00e6a023          	sw	a4,0(a3) # 10000000 <_stack_top+0xfef4a00>
    return *(volatile uint32_t*)addr;
  100e3c:	0086a703          	lw	a4,8(a3)
  100e40:	00177713          	andi	a4,a4,1
  100e44:	00070663          	beqz	a4,100e50 <sd_load_image+0x98>
        __asm__ __volatile__("nop");
  100e48:	00000013          	nop
  100e4c:	ff1ff06f          	j	100e3c <sd_load_image+0x84>
  100e50:	04100713          	li	a4,65
    *(volatile uint32_t*)addr = v;
  100e54:	00e6a023          	sw	a4,0(a3)
    return *(volatile uint32_t*)addr;
  100e58:	0086a683          	lw	a3,8(a3)
    while (mmio_r32(UART_MMIO_BASE + UART_ST) & ST_TX_BUSY) {
  100e5c:	0016f693          	andi	a3,a3,1
  100e60:	00068c63          	beqz	a3,100e78 <sd_load_image+0xc0>
  100e64:	100006b7          	lui	a3,0x10000
        __asm__ __volatile__("nop");
  100e68:	00000013          	nop
  100e6c:	0086a703          	lw	a4,8(a3) # 10000008 <_stack_top+0xfef4a08>
    while (mmio_r32(UART_MMIO_BASE + UART_ST) & ST_TX_BUSY) {
  100e70:	00177713          	andi	a4,a4,1
  100e74:	fe071ae3          	bnez	a4,100e68 <sd_load_image+0xb0>
  100e78:	100006b7          	lui	a3,0x10000
  100e7c:	04400713          	li	a4,68
    *(volatile uint32_t*)addr = v;
  100e80:	00e6a023          	sw	a4,0(a3) # 10000000 <_stack_top+0xfef4a00>
    return *(volatile uint32_t*)addr;
  100e84:	0086a703          	lw	a4,8(a3)
  100e88:	00177713          	andi	a4,a4,1
  100e8c:	00070663          	beqz	a4,100e98 <sd_load_image+0xe0>
        __asm__ __volatile__("nop");
  100e90:	00000013          	nop
  100e94:	ff1ff06f          	j	100e84 <sd_load_image+0xcc>
  100e98:	03a00713          	li	a4,58
    *(volatile uint32_t*)addr = v;
  100e9c:	00e6a023          	sw	a4,0(a3)
    return *(volatile uint32_t*)addr;
  100ea0:	0086a683          	lw	a3,8(a3)
    while (mmio_r32(UART_MMIO_BASE + UART_ST) & ST_TX_BUSY) {
  100ea4:	0016f693          	andi	a3,a3,1
  100ea8:	00068c63          	beqz	a3,100ec0 <sd_load_image+0x108>
  100eac:	100006b7          	lui	a3,0x10000
        __asm__ __volatile__("nop");
  100eb0:	00000013          	nop
  100eb4:	0086a703          	lw	a4,8(a3) # 10000008 <_stack_top+0xfef4a08>
    while (mmio_r32(UART_MMIO_BASE + UART_ST) & ST_TX_BUSY) {
  100eb8:	00177713          	andi	a4,a4,1
  100ebc:	fe071ae3          	bnez	a4,100eb0 <sd_load_image+0xf8>
  100ec0:	100006b7          	lui	a3,0x10000
  100ec4:	02000713          	li	a4,32
    *(volatile uint32_t*)addr = v;
  100ec8:	00e6a023          	sw	a4,0(a3) # 10000000 <_stack_top+0xfef4a00>
    return *(volatile uint32_t*)addr;
  100ecc:	0086a703          	lw	a4,8(a3)
  100ed0:	00177713          	andi	a4,a4,1
  100ed4:	00070663          	beqz	a4,100ee0 <sd_load_image+0x128>
        __asm__ __volatile__("nop");
  100ed8:	00000013          	nop
  100edc:	ff1ff06f          	j	100ecc <sd_load_image+0x114>
  100ee0:	04c00713          	li	a4,76
    *(volatile uint32_t*)addr = v;
  100ee4:	00e6a023          	sw	a4,0(a3)
    return *(volatile uint32_t*)addr;
  100ee8:	0086a683          	lw	a3,8(a3)
    while (mmio_r32(UART_MMIO_BASE + UART_ST) & ST_TX_BUSY) {
  100eec:	0016f693          	andi	a3,a3,1
  100ef0:	00068c63          	beqz	a3,100f08 <sd_load_image+0x150>
  100ef4:	100006b7          	lui	a3,0x10000
        __asm__ __volatile__("nop");
  100ef8:	00000013          	nop
  100efc:	0086a703          	lw	a4,8(a3) # 10000008 <_stack_top+0xfef4a08>
    while (mmio_r32(UART_MMIO_BASE + UART_ST) & ST_TX_BUSY) {
  100f00:	00177713          	andi	a4,a4,1
  100f04:	fe071ae3          	bnez	a4,100ef8 <sd_load_image+0x140>
  100f08:	100006b7          	lui	a3,0x10000
  100f0c:	04200713          	li	a4,66
    *(volatile uint32_t*)addr = v;
  100f10:	00e6a023          	sw	a4,0(a3) # 10000000 <_stack_top+0xfef4a00>
    return *(volatile uint32_t*)addr;
  100f14:	0086a703          	lw	a4,8(a3)
  100f18:	00177713          	andi	a4,a4,1
  100f1c:	00070663          	beqz	a4,100f28 <sd_load_image+0x170>
        __asm__ __volatile__("nop");
  100f20:	00000013          	nop
  100f24:	ff1ff06f          	j	100f14 <sd_load_image+0x15c>
  100f28:	04100713          	li	a4,65
    *(volatile uint32_t*)addr = v;
  100f2c:	00e6a023          	sw	a4,0(a3)
    return *(volatile uint32_t*)addr;
  100f30:	0086a683          	lw	a3,8(a3)
    while (mmio_r32(UART_MMIO_BASE + UART_ST) & ST_TX_BUSY) {
  100f34:	0016f693          	andi	a3,a3,1
  100f38:	00068c63          	beqz	a3,100f50 <sd_load_image+0x198>
  100f3c:	100006b7          	lui	a3,0x10000
        __asm__ __volatile__("nop");
  100f40:	00000013          	nop
  100f44:	0086a703          	lw	a4,8(a3) # 10000008 <_stack_top+0xfef4a08>
    while (mmio_r32(UART_MMIO_BASE + UART_ST) & ST_TX_BUSY) {
  100f48:	00177713          	andi	a4,a4,1
  100f4c:	fe071ae3          	bnez	a4,100f40 <sd_load_image+0x188>
  100f50:	100006b7          	lui	a3,0x10000
  100f54:	03d00713          	li	a4,61
    *(volatile uint32_t*)addr = v;
  100f58:	00e6a023          	sw	a4,0(a3) # 10000000 <_stack_top+0xfef4a00>
  100f5c:	00700813          	li	a6,7
  100f60:	00a00713          	li	a4,10
  100f64:	00080793          	mv	a5,a6
        uint8_t n = (v >> (i * 4)) & 0xF;
  100f68:	00281813          	slli	a6,a6,0x2
  100f6c:	01055833          	srl	a6,a0,a6
  100f70:	00f87813          	andi	a6,a6,15
        putchar(n < 10 ? '0' + n : 'A' + n - 10);
  100f74:	00e86663          	bltu	a6,a4,100f80 <sd_load_image+0x1c8>
  100f78:	03780813          	addi	a6,a6,55
  100f7c:	0100006f          	j	100f8c <sd_load_image+0x1d4>
  100f80:	03080813          	addi	a6,a6,48
  100f84:	0080006f          	j	100f8c <sd_load_image+0x1d4>
        __asm__ __volatile__("nop");
  100f88:	00000013          	nop
    return *(volatile uint32_t*)addr;
  100f8c:	0086a883          	lw	a7,8(a3)
    while (mmio_r32(UART_MMIO_BASE + UART_ST) & ST_TX_BUSY) {
  100f90:	0018f893          	andi	a7,a7,1
  100f94:	fe089ae3          	bnez	a7,100f88 <sd_load_image+0x1d0>
    *(volatile uint32_t*)addr = v;
  100f98:	0106a023          	sw	a6,0(a3)
    for (int i = 7; i >= 0; i--) {
  100f9c:	fff78813          	addi	a6,a5,-1
  100fa0:	fc0792e3          	bnez	a5,100f64 <sd_load_image+0x1ac>
  100fa4:	100006b7          	lui	a3,0x10000
    return *(volatile uint32_t*)addr;
  100fa8:	0086a703          	lw	a4,8(a3) # 10000008 <_stack_top+0xfef4a08>
    while (mmio_r32(UART_MMIO_BASE + UART_ST) & ST_TX_BUSY) {
  100fac:	00177713          	andi	a4,a4,1
  100fb0:	00070663          	beqz	a4,100fbc <sd_load_image+0x204>
        __asm__ __volatile__("nop");
  100fb4:	00000013          	nop
  100fb8:	ff1ff06f          	j	100fa8 <sd_load_image+0x1f0>
  100fbc:	02000713          	li	a4,32
    *(volatile uint32_t*)addr = v;
  100fc0:	00e6a023          	sw	a4,0(a3)
    return *(volatile uint32_t*)addr;
  100fc4:	0086a683          	lw	a3,8(a3)
    while (mmio_r32(UART_MMIO_BASE + UART_ST) & ST_TX_BUSY) {
  100fc8:	0016f693          	andi	a3,a3,1
  100fcc:	00068c63          	beqz	a3,100fe4 <sd_load_image+0x22c>
  100fd0:	100006b7          	lui	a3,0x10000
        __asm__ __volatile__("nop");
  100fd4:	00000013          	nop
  100fd8:	0086a703          	lw	a4,8(a3) # 10000008 <_stack_top+0xfef4a08>
    while (mmio_r32(UART_MMIO_BASE + UART_ST) & ST_TX_BUSY) {
  100fdc:	00177713          	andi	a4,a4,1
  100fe0:	fe071ae3          	bnez	a4,100fd4 <sd_load_image+0x21c>
  100fe4:	100006b7          	lui	a3,0x10000
  100fe8:	06300713          	li	a4,99
    *(volatile uint32_t*)addr = v;
  100fec:	00e6a023          	sw	a4,0(a3) # 10000000 <_stack_top+0xfef4a00>
    return *(volatile uint32_t*)addr;
  100ff0:	0086a703          	lw	a4,8(a3)
  100ff4:	00177713          	andi	a4,a4,1
  100ff8:	00070663          	beqz	a4,101004 <sd_load_image+0x24c>
        __asm__ __volatile__("nop");
  100ffc:	00000013          	nop
  101000:	ff1ff06f          	j	100ff0 <sd_load_image+0x238>
  101004:	06f00713          	li	a4,111
    *(volatile uint32_t*)addr = v;
  101008:	00e6a023          	sw	a4,0(a3)
    return *(volatile uint32_t*)addr;
  10100c:	0086a683          	lw	a3,8(a3)
    while (mmio_r32(UART_MMIO_BASE + UART_ST) & ST_TX_BUSY) {
  101010:	0016f693          	andi	a3,a3,1
  101014:	00068c63          	beqz	a3,10102c <sd_load_image+0x274>
  101018:	100006b7          	lui	a3,0x10000
        __asm__ __volatile__("nop");
  10101c:	00000013          	nop
  101020:	0086a703          	lw	a4,8(a3) # 10000008 <_stack_top+0xfef4a08>
    while (mmio_r32(UART_MMIO_BASE + UART_ST) & ST_TX_BUSY) {
  101024:	00177713          	andi	a4,a4,1
  101028:	fe071ae3          	bnez	a4,10101c <sd_load_image+0x264>
  10102c:	100006b7          	lui	a3,0x10000
  101030:	07500713          	li	a4,117
    *(volatile uint32_t*)addr = v;
  101034:	00e6a023          	sw	a4,0(a3) # 10000000 <_stack_top+0xfef4a00>
    return *(volatile uint32_t*)addr;
  101038:	0086a703          	lw	a4,8(a3)
  10103c:	00177713          	andi	a4,a4,1
  101040:	00070663          	beqz	a4,10104c <sd_load_image+0x294>
        __asm__ __volatile__("nop");
  101044:	00000013          	nop
  101048:	ff1ff06f          	j	101038 <sd_load_image+0x280>
  10104c:	06e00713          	li	a4,110
    *(volatile uint32_t*)addr = v;
  101050:	00e6a023          	sw	a4,0(a3)
    return *(volatile uint32_t*)addr;
  101054:	0086a683          	lw	a3,8(a3)
    while (mmio_r32(UART_MMIO_BASE + UART_ST) & ST_TX_BUSY) {
  101058:	0016f693          	andi	a3,a3,1
  10105c:	00068c63          	beqz	a3,101074 <sd_load_image+0x2bc>
  101060:	100006b7          	lui	a3,0x10000
        __asm__ __volatile__("nop");
  101064:	00000013          	nop
  101068:	0086a703          	lw	a4,8(a3) # 10000008 <_stack_top+0xfef4a08>
    while (mmio_r32(UART_MMIO_BASE + UART_ST) & ST_TX_BUSY) {
  10106c:	00177713          	andi	a4,a4,1
  101070:	fe071ae3          	bnez	a4,101064 <sd_load_image+0x2ac>
  101074:	100006b7          	lui	a3,0x10000
  101078:	07400713          	li	a4,116
    *(volatile uint32_t*)addr = v;
  10107c:	00e6a023          	sw	a4,0(a3) # 10000000 <_stack_top+0xfef4a00>
    return *(volatile uint32_t*)addr;
  101080:	0086a703          	lw	a4,8(a3)
  101084:	00177713          	andi	a4,a4,1
  101088:	00070663          	beqz	a4,101094 <sd_load_image+0x2dc>
        __asm__ __volatile__("nop");
  10108c:	00000013          	nop
  101090:	ff1ff06f          	j	101080 <sd_load_image+0x2c8>
  101094:	03d00713          	li	a4,61
    *(volatile uint32_t*)addr = v;
  101098:	00e6a023          	sw	a4,0(a3)
  10109c:	00700813          	li	a6,7
  1010a0:	00a00713          	li	a4,10
  1010a4:	00080793          	mv	a5,a6
        uint8_t n = (v >> (i * 4)) & 0xF;
  1010a8:	00281813          	slli	a6,a6,0x2
  1010ac:	0105d833          	srl	a6,a1,a6
  1010b0:	00f87813          	andi	a6,a6,15
        putchar(n < 10 ? '0' + n : 'A' + n - 10);
  1010b4:	00e86663          	bltu	a6,a4,1010c0 <sd_load_image+0x308>
  1010b8:	03780813          	addi	a6,a6,55
  1010bc:	0100006f          	j	1010cc <sd_load_image+0x314>
  1010c0:	03080813          	addi	a6,a6,48
  1010c4:	0080006f          	j	1010cc <sd_load_image+0x314>
        __asm__ __volatile__("nop");
  1010c8:	00000013          	nop
    return *(volatile uint32_t*)addr;
  1010cc:	0086a883          	lw	a7,8(a3)
    while (mmio_r32(UART_MMIO_BASE + UART_ST) & ST_TX_BUSY) {
  1010d0:	0018f893          	andi	a7,a7,1
  1010d4:	fe089ae3          	bnez	a7,1010c8 <sd_load_image+0x310>
    *(volatile uint32_t*)addr = v;
  1010d8:	0106a023          	sw	a6,0(a3)
    for (int i = 7; i >= 0; i--) {
  1010dc:	fff78813          	addi	a6,a5,-1
  1010e0:	fc0792e3          	bnez	a5,1010a4 <sd_load_image+0x2ec>
  1010e4:	100006b7          	lui	a3,0x10000
    return *(volatile uint32_t*)addr;
  1010e8:	0086a703          	lw	a4,8(a3) # 10000008 <_stack_top+0xfef4a08>
    while (mmio_r32(UART_MMIO_BASE + UART_ST) & ST_TX_BUSY) {
  1010ec:	00177713          	andi	a4,a4,1
  1010f0:	00070663          	beqz	a4,1010fc <sd_load_image+0x344>
        __asm__ __volatile__("nop");
  1010f4:	00000013          	nop
  1010f8:	ff1ff06f          	j	1010e8 <sd_load_image+0x330>
  1010fc:	02000713          	li	a4,32
    *(volatile uint32_t*)addr = v;
  101100:	00e6a023          	sw	a4,0(a3)
    return *(volatile uint32_t*)addr;
  101104:	0086a683          	lw	a3,8(a3)
    while (mmio_r32(UART_MMIO_BASE + UART_ST) & ST_TX_BUSY) {
  101108:	0016f693          	andi	a3,a3,1
  10110c:	00068c63          	beqz	a3,101124 <sd_load_image+0x36c>
  101110:	100006b7          	lui	a3,0x10000
        __asm__ __volatile__("nop");
  101114:	00000013          	nop
  101118:	0086a703          	lw	a4,8(a3) # 10000008 <_stack_top+0xfef4a08>
    while (mmio_r32(UART_MMIO_BASE + UART_ST) & ST_TX_BUSY) {
  10111c:	00177713          	andi	a4,a4,1
  101120:	fe071ae3          	bnez	a4,101114 <sd_load_image+0x35c>
  101124:	100006b7          	lui	a3,0x10000
  101128:	02d00713          	li	a4,45
    *(volatile uint32_t*)addr = v;
  10112c:	00e6a023          	sw	a4,0(a3) # 10000000 <_stack_top+0xfef4a00>
    return *(volatile uint32_t*)addr;
  101130:	0086a703          	lw	a4,8(a3)
  101134:	00177713          	andi	a4,a4,1
  101138:	00070663          	beqz	a4,101144 <sd_load_image+0x38c>
        __asm__ __volatile__("nop");
  10113c:	00000013          	nop
  101140:	ff1ff06f          	j	101130 <sd_load_image+0x378>
  101144:	03e00713          	li	a4,62
    *(volatile uint32_t*)addr = v;
  101148:	00e6a023          	sw	a4,0(a3)
    return *(volatile uint32_t*)addr;
  10114c:	0086a683          	lw	a3,8(a3)
    while (mmio_r32(UART_MMIO_BASE + UART_ST) & ST_TX_BUSY) {
  101150:	0016f693          	andi	a3,a3,1
  101154:	00068c63          	beqz	a3,10116c <sd_load_image+0x3b4>
  101158:	100006b7          	lui	a3,0x10000
        __asm__ __volatile__("nop");
  10115c:	00000013          	nop
  101160:	0086a703          	lw	a4,8(a3) # 10000008 <_stack_top+0xfef4a08>
    while (mmio_r32(UART_MMIO_BASE + UART_ST) & ST_TX_BUSY) {
  101164:	00177713          	andi	a4,a4,1
  101168:	fe071ae3          	bnez	a4,10115c <sd_load_image+0x3a4>
  10116c:	100006b7          	lui	a3,0x10000
  101170:	02000713          	li	a4,32
    *(volatile uint32_t*)addr = v;
  101174:	00e6a023          	sw	a4,0(a3) # 10000000 <_stack_top+0xfef4a00>
    return *(volatile uint32_t*)addr;
  101178:	0086a703          	lw	a4,8(a3)
  10117c:	00177713          	andi	a4,a4,1
  101180:	00070663          	beqz	a4,10118c <sd_load_image+0x3d4>
        __asm__ __volatile__("nop");
  101184:	00000013          	nop
  101188:	ff1ff06f          	j	101178 <sd_load_image+0x3c0>
  10118c:	06100713          	li	a4,97
    *(volatile uint32_t*)addr = v;
  101190:	00e6a023          	sw	a4,0(a3)
    return *(volatile uint32_t*)addr;
  101194:	0086a683          	lw	a3,8(a3)
    while (mmio_r32(UART_MMIO_BASE + UART_ST) & ST_TX_BUSY) {
  101198:	0016f693          	andi	a3,a3,1
  10119c:	00068c63          	beqz	a3,1011b4 <sd_load_image+0x3fc>
  1011a0:	100006b7          	lui	a3,0x10000
        __asm__ __volatile__("nop");
  1011a4:	00000013          	nop
  1011a8:	0086a703          	lw	a4,8(a3) # 10000008 <_stack_top+0xfef4a08>
    while (mmio_r32(UART_MMIO_BASE + UART_ST) & ST_TX_BUSY) {
  1011ac:	00177713          	andi	a4,a4,1
  1011b0:	fe071ae3          	bnez	a4,1011a4 <sd_load_image+0x3ec>
  1011b4:	100006b7          	lui	a3,0x10000
  1011b8:	06400713          	li	a4,100
    *(volatile uint32_t*)addr = v;
  1011bc:	00e6a023          	sw	a4,0(a3) # 10000000 <_stack_top+0xfef4a00>
    return *(volatile uint32_t*)addr;
  1011c0:	0086a783          	lw	a5,8(a3)
  1011c4:	0017f793          	andi	a5,a5,1
  1011c8:	00078663          	beqz	a5,1011d4 <sd_load_image+0x41c>
        __asm__ __volatile__("nop");
  1011cc:	00000013          	nop
  1011d0:	ff1ff06f          	j	1011c0 <sd_load_image+0x408>
    *(volatile uint32_t*)addr = v;
  1011d4:	00e6a023          	sw	a4,0(a3)
    return *(volatile uint32_t*)addr;
  1011d8:	0086a683          	lw	a3,8(a3)
    while (mmio_r32(UART_MMIO_BASE + UART_ST) & ST_TX_BUSY) {
  1011dc:	0016f693          	andi	a3,a3,1
  1011e0:	00068c63          	beqz	a3,1011f8 <sd_load_image+0x440>
  1011e4:	100006b7          	lui	a3,0x10000
        __asm__ __volatile__("nop");
  1011e8:	00000013          	nop
  1011ec:	0086a703          	lw	a4,8(a3) # 10000008 <_stack_top+0xfef4a08>
    while (mmio_r32(UART_MMIO_BASE + UART_ST) & ST_TX_BUSY) {
  1011f0:	00177713          	andi	a4,a4,1
  1011f4:	fe071ae3          	bnez	a4,1011e8 <sd_load_image+0x430>
  1011f8:	100006b7          	lui	a3,0x10000
  1011fc:	07200713          	li	a4,114
    *(volatile uint32_t*)addr = v;
  101200:	00e6a023          	sw	a4,0(a3) # 10000000 <_stack_top+0xfef4a00>
    return *(volatile uint32_t*)addr;
  101204:	0086a703          	lw	a4,8(a3)
  101208:	00177713          	andi	a4,a4,1
  10120c:	00070663          	beqz	a4,101218 <sd_load_image+0x460>
        __asm__ __volatile__("nop");
  101210:	00000013          	nop
  101214:	ff1ff06f          	j	101204 <sd_load_image+0x44c>
  101218:	03d00713          	li	a4,61
    *(volatile uint32_t*)addr = v;
  10121c:	00e6a023          	sw	a4,0(a3)
  101220:	00700813          	li	a6,7
  101224:	00a00713          	li	a4,10
  101228:	00080793          	mv	a5,a6
        uint8_t n = (v >> (i * 4)) & 0xF;
  10122c:	00281813          	slli	a6,a6,0x2
  101230:	01065833          	srl	a6,a2,a6
  101234:	00f87813          	andi	a6,a6,15
        putchar(n < 10 ? '0' + n : 'A' + n - 10);
  101238:	00e86663          	bltu	a6,a4,101244 <sd_load_image+0x48c>
  10123c:	03780813          	addi	a6,a6,55
  101240:	0100006f          	j	101250 <sd_load_image+0x498>
  101244:	03080813          	addi	a6,a6,48
  101248:	0080006f          	j	101250 <sd_load_image+0x498>
        __asm__ __volatile__("nop");
  10124c:	00000013          	nop
    return *(volatile uint32_t*)addr;
  101250:	0086a883          	lw	a7,8(a3)
    while (mmio_r32(UART_MMIO_BASE + UART_ST) & ST_TX_BUSY) {
  101254:	0018f893          	andi	a7,a7,1
  101258:	fe089ae3          	bnez	a7,10124c <sd_load_image+0x494>
    *(volatile uint32_t*)addr = v;
  10125c:	0106a023          	sw	a6,0(a3)
    for (int i = 7; i >= 0; i--) {
  101260:	fff78813          	addi	a6,a5,-1
  101264:	fc0792e3          	bnez	a5,101228 <sd_load_image+0x470>
  101268:	100006b7          	lui	a3,0x10000
    return *(volatile uint32_t*)addr;
  10126c:	0086a703          	lw	a4,8(a3) # 10000008 <_stack_top+0xfef4a08>
    while (mmio_r32(UART_MMIO_BASE + UART_ST) & ST_TX_BUSY) {
  101270:	00177713          	andi	a4,a4,1
  101274:	00070663          	beqz	a4,101280 <sd_load_image+0x4c8>
        __asm__ __volatile__("nop");
  101278:	00000013          	nop
  10127c:	ff1ff06f          	j	10126c <sd_load_image+0x4b4>
  101280:	00a00813          	li	a6,10
    *(volatile uint32_t*)addr = v;
  101284:	0106a023          	sw	a6,0(a3)
    for (uint32_t i = 0; i < sector_count; i++) {
  101288:	6a0584e3          	beqz	a1,102130 <sd_load_image+0x1378>
  10128c:	00000893          	li	a7,0
  101290:	00100693          	li	a3,1
  101294:	21c10093          	addi	ra,sp,540
  101298:	10006337          	lui	t1,0x10006
  10129c:	00400393          	li	t2,4
  1012a0:	00200e13          	li	t3,2
  1012a4:	ffff4eb7          	lui	t4,0xffff4
  1012a8:	cb0e8713          	addi	a4,t4,-848 # ffff3cb0 <_stack_top+0xffee86b0>
  1012ac:	00e12a23          	sw	a4,20(sp)
  1012b0:	01c10f93          	addi	t6,sp,28
  1012b4:	20000f13          	li	t5,512
  1012b8:	100004b7          	lui	s1,0x10000
  1012bc:	05b00a13          	li	s4,91
  1012c0:	05d00a93          	li	s5,93
  1012c4:	02000b13          	li	s6,32
  1012c8:	03d00b93          	li	s7,61
  1012cc:	01000c13          	li	s8,16
  1012d0:	00001737          	lui	a4,0x1
  1012d4:	02170c93          	addi	s9,a4,33 # 1021 <$d.5+0x169>
  1012d8:	00103737          	lui	a4,0x103
  1012dc:	47770413          	addi	s0,a4,1143 # 103477 <$d.1+0x74>
  1012e0:	00103737          	lui	a4,0x103
  1012e4:	5e270713          	addi	a4,a4,1506 # 1035e2 <$d.1+0x3>
  1012e8:	00e12c23          	sw	a4,24(sp)
  1012ec:	00c12823          	sw	a2,16(sp)
  1012f0:	00000793          	li	a5,0
        if (sd_read_sector_to_mem(start_lba + i, dst + (i * 512u)) != 0) {
  1012f4:	00989d93          	slli	s11,a7,0x9
  1012f8:	01b60db3          	add	s11,a2,s11
  1012fc:	200d8d13          	addi	s10,s11,512
  101300:	00a88733          	add	a4,a7,a0
        PSC_SD_IF_CTRL = SD_CTRL_FIFO_FLUSH;
  101304:	00732423          	sw	t2,8(t1) # 10006008 <_stack_top+0xfefaa08>
        __asm__ __volatile__("nop");
  101308:	00000013          	nop
  10130c:	00000013          	nop
  101310:	00000013          	nop
  101314:	00000013          	nop
  101318:	00000013          	nop
  10131c:	00000013          	nop
  101320:	00000013          	nop
  101324:	00000013          	nop
  101328:	00000013          	nop
  10132c:	00000013          	nop
  101330:	00000013          	nop
  101334:	00000013          	nop
  101338:	00000013          	nop
  10133c:	00000013          	nop
  101340:	00000013          	nop
  101344:	00000013          	nop
  101348:	00000013          	nop
  10134c:	00000013          	nop
  101350:	00000013          	nop
  101354:	00000013          	nop
  101358:	00000013          	nop
  10135c:	00000013          	nop
  101360:	00000013          	nop
  101364:	00000013          	nop
  101368:	00000013          	nop
  10136c:	00000013          	nop
  101370:	00000013          	nop
  101374:	00000013          	nop
  101378:	00000013          	nop
  10137c:	00000013          	nop
  101380:	00000013          	nop
  101384:	00000013          	nop
  101388:	00000013          	nop
  10138c:	00000013          	nop
  101390:	00000013          	nop
  101394:	00000013          	nop
  101398:	00000013          	nop
  10139c:	00000013          	nop
  1013a0:	00000013          	nop
  1013a4:	00000013          	nop
  1013a8:	00000013          	nop
  1013ac:	00000013          	nop
  1013b0:	00000013          	nop
  1013b4:	00000013          	nop
  1013b8:	00000013          	nop
  1013bc:	00000013          	nop
  1013c0:	00000013          	nop
  1013c4:	00000013          	nop
  1013c8:	00000013          	nop
  1013cc:	00000013          	nop
        PSC_SD_SECTOR = lba;
  1013d0:	00e32223          	sw	a4,4(t1)
        PSC_SD_IF_CTRL = SD_CTRL_READ_TRIG;
  1013d4:	01c32423          	sw	t3,8(t1)
        __asm__ __volatile__("nop");
  1013d8:	00000013          	nop
  1013dc:	00000013          	nop
  1013e0:	00000013          	nop
  1013e4:	00000013          	nop
  1013e8:	00000013          	nop
  1013ec:	00000013          	nop
  1013f0:	00000013          	nop
  1013f4:	00000013          	nop
  1013f8:	00000013          	nop
  1013fc:	00000013          	nop
  101400:	00000013          	nop
  101404:	00000013          	nop
  101408:	00000013          	nop
  10140c:	00000013          	nop
  101410:	00000013          	nop
  101414:	00000013          	nop
  101418:	00000013          	nop
  10141c:	00000013          	nop
  101420:	00000013          	nop
  101424:	00000013          	nop
  101428:	00000013          	nop
  10142c:	00000013          	nop
  101430:	00000013          	nop
  101434:	00000013          	nop
  101438:	00000013          	nop
  10143c:	00000013          	nop
  101440:	00000013          	nop
  101444:	00000013          	nop
  101448:	00000013          	nop
  10144c:	00000013          	nop
  101450:	00000013          	nop
  101454:	00000013          	nop
  101458:	00000013          	nop
  10145c:	00000013          	nop
  101460:	00000013          	nop
  101464:	00000013          	nop
  101468:	00000013          	nop
  10146c:	00000013          	nop
  101470:	00000013          	nop
  101474:	00000013          	nop
  101478:	00000013          	nop
  10147c:	00000013          	nop
  101480:	00000013          	nop
  101484:	00000013          	nop
  101488:	00000013          	nop
  10148c:	00000013          	nop
  101490:	00000013          	nop
  101494:	00000013          	nop
  101498:	00000013          	nop
  10149c:	00000013          	nop
        while ((PSC_SD_IF_CTRL & SD_ST_READ_READY) == 0u) {
  1014a0:	00832283          	lw	t0,8(t1)
  1014a4:	0042f293          	andi	t0,t0,4
  1014a8:	02029063          	bnez	t0,1014c8 <sd_load_image+0x710>
  1014ac:	01412283          	lw	t0,20(sp)
            if (--timeout == 0u) {
  1014b0:	00128293          	addi	t0,t0,1
  1014b4:	480282e3          	beqz	t0,102138 <sd_load_image+0x1380>
    __asm__ __volatile__("nop");
  1014b8:	00000013          	nop
        while ((PSC_SD_IF_CTRL & SD_ST_READ_READY) == 0u) {
  1014bc:	00832383          	lw	t2,8(t1)
  1014c0:	0043f393          	andi	t2,t2,4
  1014c4:	fe0386e3          	beqz	t2,1014b0 <sd_load_image+0x6f8>
  1014c8:	00000393          	li	t2,0
        __asm__ __volatile__("nop");
  1014cc:	00000013          	nop
  1014d0:	00000013          	nop
  1014d4:	00000013          	nop
  1014d8:	00000013          	nop
  1014dc:	00000013          	nop
  1014e0:	00000013          	nop
  1014e4:	00000013          	nop
  1014e8:	00000013          	nop
  1014ec:	00000013          	nop
  1014f0:	00000013          	nop
  1014f4:	00000013          	nop
  1014f8:	00000013          	nop
  1014fc:	00000013          	nop
  101500:	00000013          	nop
  101504:	00000013          	nop
  101508:	00000013          	nop
  10150c:	00000013          	nop
  101510:	00000013          	nop
  101514:	00000013          	nop
  101518:	00000013          	nop
  10151c:	0180006f          	j	101534 <sd_load_image+0x77c>
            buf[i] = (uint8_t)(PSC_SD_ADDR & 0xFFu);
  101520:	00032283          	lw	t0,0(t1)
  101524:	007f8e33          	add	t3,t6,t2
        for (int i = 0; i < 512; i++) {
  101528:	00138393          	addi	t2,t2,1
            buf[i] = (uint8_t)(PSC_SD_ADDR & 0xFFu);
  10152c:	005e0023          	sb	t0,0(t3)
        for (int i = 0; i < 512; i++) {
  101530:	03e38863          	beq	t2,t5,101560 <sd_load_image+0x7a8>
            while (PSC_SD_IF_CTRL & SD_ST_FIFO_EMPTY) {
  101534:	00832283          	lw	t0,8(t1)
  101538:	0082f293          	andi	t0,t0,8
  10153c:	fe0282e3          	beqz	t0,101520 <sd_load_image+0x768>
  101540:	cb0e8293          	addi	t0,t4,-848
                if (--timeout == 0u) {
  101544:	00128293          	addi	t0,t0,1
  101548:	0c0282e3          	beqz	t0,101e0c <sd_load_image+0x1054>
    __asm__ __volatile__("nop");
  10154c:	00000013          	nop
            while (PSC_SD_IF_CTRL & SD_ST_FIFO_EMPTY) {
  101550:	00832e03          	lw	t3,8(t1)
  101554:	008e7e13          	andi	t3,t3,8
  101558:	fe0e16e3          	bnez	t3,101544 <sd_load_image+0x78c>
  10155c:	fc5ff06f          	j	101520 <sd_load_image+0x768>
  101560:	00812623          	sw	s0,12(sp)
  101564:	00000393          	li	t2,0
        int byte_off = w * 4;
  101568:	00239f13          	slli	t5,t2,0x2
        uint32_t val = load_le32_from_u8(&buf[byte_off]);
  10156c:	01ef8eb3          	add	t4,t6,t5
    return ((uint32_t)p[0] << 0)
  101570:	000ec283          	lbu	t0,0(t4)
         | ((uint32_t)p[1] << 8)
  101574:	001ece03          	lbu	t3,1(t4)
         | ((uint32_t)p[2] << 16)
  101578:	002ec403          	lbu	s0,2(t4)
         | ((uint32_t)p[3] << 24);
  10157c:	003ec983          	lbu	s3,3(t4)
    return *(volatile uint32_t*)addr;
  101580:	0084ae83          	lw	t4,8(s1) # 10000008 <_stack_top+0xfef4a08>
    while (mmio_r32(UART_MMIO_BASE + UART_ST) & ST_TX_BUSY) {
  101584:	001efe93          	andi	t4,t4,1
  101588:	000e8663          	beqz	t4,101594 <sd_load_image+0x7dc>
        __asm__ __volatile__("nop");
  10158c:	00000013          	nop
  101590:	ff1ff06f          	j	101580 <sd_load_image+0x7c8>
    *(volatile uint32_t*)addr = v;
  101594:	05200e93          	li	t4,82
  101598:	01d4a023          	sw	t4,0(s1)
    return *(volatile uint32_t*)addr;
  10159c:	0084ae83          	lw	t4,8(s1)
    while (mmio_r32(UART_MMIO_BASE + UART_ST) & ST_TX_BUSY) {
  1015a0:	001efe93          	andi	t4,t4,1
  1015a4:	000e8663          	beqz	t4,1015b0 <sd_load_image+0x7f8>
        __asm__ __volatile__("nop");
  1015a8:	00000013          	nop
  1015ac:	ff1ff06f          	j	10159c <sd_load_image+0x7e4>
    *(volatile uint32_t*)addr = v;
  1015b0:	04400e93          	li	t4,68
  1015b4:	01d4a023          	sw	t4,0(s1)
    return *(volatile uint32_t*)addr;
  1015b8:	0084ae83          	lw	t4,8(s1)
    while (mmio_r32(UART_MMIO_BASE + UART_ST) & ST_TX_BUSY) {
  1015bc:	001efe93          	andi	t4,t4,1
  1015c0:	000e8663          	beqz	t4,1015cc <sd_load_image+0x814>
        __asm__ __volatile__("nop");
  1015c4:	00000013          	nop
  1015c8:	ff1ff06f          	j	1015b8 <sd_load_image+0x800>
  1015cc:	008e1e93          	slli	t4,t3,0x8
  1015d0:	01041413          	slli	s0,s0,0x10
  1015d4:	01899e13          	slli	t3,s3,0x18
  1015d8:	005ee2b3          	or	t0,t4,t0
  1015dc:	0082e2b3          	or	t0,t0,s0
    *(volatile uint32_t*)addr = v;
  1015e0:	0144a023          	sw	s4,0(s1)
  1015e4:	00700413          	li	s0,7
  1015e8:	00040e93          	mv	t4,s0
        uint8_t n = (v >> (i * 4)) & 0xF;
  1015ec:	00241413          	slli	s0,s0,0x2
  1015f0:	008f5433          	srl	s0,t5,s0
  1015f4:	00f47993          	andi	s3,s0,15
        putchar(n < 10 ? '0' + n : 'A' + n - 10);
  1015f8:	0109e663          	bltu	s3,a6,101604 <sd_load_image+0x84c>
  1015fc:	03798413          	addi	s0,s3,55
  101600:	0100006f          	j	101610 <sd_load_image+0x858>
  101604:	03046413          	ori	s0,s0,48
  101608:	0080006f          	j	101610 <sd_load_image+0x858>
        __asm__ __volatile__("nop");
  10160c:	00000013          	nop
    return *(volatile uint32_t*)addr;
  101610:	0084a903          	lw	s2,8(s1)
    while (mmio_r32(UART_MMIO_BASE + UART_ST) & ST_TX_BUSY) {
  101614:	00197913          	andi	s2,s2,1
  101618:	fe091ae3          	bnez	s2,10160c <sd_load_image+0x854>
    *(volatile uint32_t*)addr = v;
  10161c:	0084a023          	sw	s0,0(s1)
    for (int i = 7; i >= 0; i--) {
  101620:	fffe8413          	addi	s0,t4,-1
  101624:	fc0e92e3          	bnez	t4,1015e8 <sd_load_image+0x830>
  101628:	0080006f          	j	101630 <sd_load_image+0x878>
        __asm__ __volatile__("nop");
  10162c:	00000013          	nop
    return *(volatile uint32_t*)addr;
  101630:	0084ae83          	lw	t4,8(s1)
    while (mmio_r32(UART_MMIO_BASE + UART_ST) & ST_TX_BUSY) {
  101634:	001efe93          	andi	t4,t4,1
  101638:	fe0e9ae3          	bnez	t4,10162c <sd_load_image+0x874>
    *(volatile uint32_t*)addr = v;
  10163c:	0154a023          	sw	s5,0(s1)
    return *(volatile uint32_t*)addr;
  101640:	0084ae83          	lw	t4,8(s1)
  101644:	001efe93          	andi	t4,t4,1
  101648:	000e8663          	beqz	t4,101654 <sd_load_image+0x89c>
        __asm__ __volatile__("nop");
  10164c:	00000013          	nop
  101650:	ff1ff06f          	j	101640 <sd_load_image+0x888>
    *(volatile uint32_t*)addr = v;
  101654:	0164a023          	sw	s6,0(s1)
    return *(volatile uint32_t*)addr;
  101658:	0084ae83          	lw	t4,8(s1)
    while (mmio_r32(UART_MMIO_BASE + UART_ST) & ST_TX_BUSY) {
  10165c:	001efe93          	andi	t4,t4,1
  101660:	000e8663          	beqz	t4,10166c <sd_load_image+0x8b4>
        __asm__ __volatile__("nop");
  101664:	00000013          	nop
  101668:	ff1ff06f          	j	101658 <sd_load_image+0x8a0>
    *(volatile uint32_t*)addr = v;
  10166c:	0174a023          	sw	s7,0(s1)
    return *(volatile uint32_t*)addr;
  101670:	0084ae83          	lw	t4,8(s1)
    while (mmio_r32(UART_MMIO_BASE + UART_ST) & ST_TX_BUSY) {
  101674:	001efe93          	andi	t4,t4,1
  101678:	000e8663          	beqz	t4,101684 <sd_load_image+0x8cc>
        __asm__ __volatile__("nop");
  10167c:	00000013          	nop
  101680:	ff1ff06f          	j	101670 <sd_load_image+0x8b8>
    *(volatile uint32_t*)addr = v;
  101684:	0164a023          	sw	s6,0(s1)
         | ((uint32_t)p[3] << 24);
  101688:	01c2e2b3          	or	t0,t0,t3
  10168c:	00700e93          	li	t4,7
  101690:	000e8e13          	mv	t3,t4
        uint8_t n = (v >> (i * 4)) & 0xF;
  101694:	002e9e93          	slli	t4,t4,0x2
  101698:	01d2deb3          	srl	t4,t0,t4
  10169c:	00fefe93          	andi	t4,t4,15
        putchar(n < 10 ? '0' + n : 'A' + n - 10);
  1016a0:	010ee663          	bltu	t4,a6,1016ac <sd_load_image+0x8f4>
  1016a4:	037e8e93          	addi	t4,t4,55
  1016a8:	0100006f          	j	1016b8 <sd_load_image+0x900>
  1016ac:	030e8e93          	addi	t4,t4,48
  1016b0:	0080006f          	j	1016b8 <sd_load_image+0x900>
        __asm__ __volatile__("nop");
  1016b4:	00000013          	nop
    return *(volatile uint32_t*)addr;
  1016b8:	0084af03          	lw	t5,8(s1)
    while (mmio_r32(UART_MMIO_BASE + UART_ST) & ST_TX_BUSY) {
  1016bc:	001f7f13          	andi	t5,t5,1
  1016c0:	fe0f1ae3          	bnez	t5,1016b4 <sd_load_image+0x8fc>
    *(volatile uint32_t*)addr = v;
  1016c4:	01d4a023          	sw	t4,0(s1)
    for (int i = 7; i >= 0; i--) {
  1016c8:	fffe0e93          	addi	t4,t3,-1
  1016cc:	fc0e12e3          	bnez	t3,101690 <sd_load_image+0x8d8>
  1016d0:	0080006f          	j	1016d8 <sd_load_image+0x920>
        __asm__ __volatile__("nop");
  1016d4:	00000013          	nop
    return *(volatile uint32_t*)addr;
  1016d8:	0084a283          	lw	t0,8(s1)
    while (mmio_r32(UART_MMIO_BASE + UART_ST) & ST_TX_BUSY) {
  1016dc:	0012f293          	andi	t0,t0,1
  1016e0:	fe029ae3          	bnez	t0,1016d4 <sd_load_image+0x91c>
    for (int w = 0; w < SD_DEBUG_WORDS_PER_SEC; w++) {
  1016e4:	00138393          	addi	t2,t2,1
    *(volatile uint32_t*)addr = v;
  1016e8:	0104a023          	sw	a6,0(s1)
  1016ec:	e7839ee3          	bne	t2,s8,101568 <sd_load_image+0x7b0>
  1016f0:	00000e13          	li	t3,0
  1016f4:	01c10293          	addi	t0,sp,28
        crc ^= (uint16_t)((uint16_t)buf[i] << 8);
  1016f8:	0002c383          	lbu	t2,0(t0)
  1016fc:	00839393          	slli	t2,t2,0x8
  101700:	01c3c3b3          	xor	t2,t2,t3
  101704:	01039e13          	slli	t3,t2,0x10
  101708:	410e5e13          	srai	t3,t3,0x10
            if (crc & 0x8000u) {
  10170c:	01139e93          	slli	t4,t2,0x11
  101710:	410ede93          	srai	t4,t4,0x10
  101714:	00139f13          	slli	t5,t2,0x1
  101718:	00fe5e13          	srli	t3,t3,0xf
  10171c:	019e7e33          	and	t3,t3,s9
  101720:	01cf4e33          	xor	t3,t5,t3
  101724:	001e1f13          	slli	t5,t3,0x1
  101728:	01239413          	slli	s0,t2,0x12
  10172c:	41045413          	srai	s0,s0,0x10
  101730:	00fede93          	srli	t4,t4,0xf
  101734:	019efeb3          	and	t4,t4,s9
  101738:	01df4eb3          	xor	t4,t5,t4
  10173c:	001e9f13          	slli	t5,t4,0x1
  101740:	01339393          	slli	t2,t2,0x13
  101744:	4103d393          	srai	t2,t2,0x10
  101748:	00f45413          	srli	s0,s0,0xf
  10174c:	01947433          	and	s0,s0,s9
  101750:	008f4f33          	xor	t5,t5,s0
  101754:	013e1e13          	slli	t3,t3,0x13
  101758:	410e5e13          	srai	t3,t3,0x10
  10175c:	001f1413          	slli	s0,t5,0x1
  101760:	00f3d393          	srli	t2,t2,0xf
  101764:	0193f3b3          	and	t2,t2,s9
  101768:	007443b3          	xor	t2,s0,t2
  10176c:	013e9e93          	slli	t4,t4,0x13
  101770:	410ede93          	srai	t4,t4,0x10
  101774:	00fe5e13          	srli	t3,t3,0xf
  101778:	019e7e33          	and	t3,t3,s9
  10177c:	001e1e13          	slli	t3,t3,0x1
  101780:	00239413          	slli	s0,t2,0x2
  101784:	013f1f13          	slli	t5,t5,0x13
  101788:	410f5f13          	srai	t5,t5,0x10
  10178c:	00fede93          	srli	t4,t4,0xf
  101790:	019efeb3          	and	t4,t4,s9
  101794:	01de4e33          	xor	t3,t3,t4
  101798:	01c44e33          	xor	t3,s0,t3
  10179c:	01339393          	slli	t2,t2,0x13
  1017a0:	4103d393          	srai	t2,t2,0x10
  1017a4:	00ff5e93          	srli	t4,t5,0xf
  1017a8:	019efeb3          	and	t4,t4,s9
  1017ac:	002e1e13          	slli	t3,t3,0x2
  1017b0:	001e9e93          	slli	t4,t4,0x1
  1017b4:	01de4e33          	xor	t3,t3,t4
  1017b8:	00f3d393          	srli	t2,t2,0xf
  1017bc:	0193f3b3          	and	t2,t2,s9
    for (int i = 0; i < 512; i++) {
  1017c0:	00128293          	addi	t0,t0,1
            if (crc & 0x8000u) {
  1017c4:	007e4e33          	xor	t3,t3,t2
    for (int i = 0; i < 512; i++) {
  1017c8:	f21298e3          	bne	t0,ra,1016f8 <sd_load_image+0x940>
    uint32_t ctrl = PSC_SD_IF_CTRL;
  1017cc:	00832283          	lw	t0,8(t1)
    uint8_t crc2_hw = (uint8_t)((ctrl >> 16) & 0xFFu);
  1017d0:	0102d393          	srli	t2,t0,0x10
            if (crc_sw == crc_hw) {
  1017d4:	010e1e13          	slli	t3,t3,0x10
  1017d8:	010e5e13          	srli	t3,t3,0x10
  1017dc:	07200413          	li	s0,114
  1017e0:	1a7e1863          	bne	t3,t2,101990 <sd_load_image+0xbd8>
  1017e4:	01c10293          	addi	t0,sp,28
  1017e8:	01012e83          	lw	t4,16(sp)
                    dst[i] = buf[i];
  1017ec:	0002cf03          	lbu	t5,0(t0)
  1017f0:	01ee8023          	sb	t5,0(t4)
                for (int i = 0; i < 512; i++) {
  1017f4:	001e8e93          	addi	t4,t4,1
  1017f8:	00128293          	addi	t0,t0,1
  1017fc:	ffae98e3          	bne	t4,s10,1017ec <sd_load_image+0xa34>
  101800:	00000993          	li	s3,0
        int byte_off = w * 4;
  101804:	00299f13          	slli	t5,s3,0x2
        uint32_t val = ((uint32_t)dst[byte_off + 0] << 0)
  101808:	01ed8933          	add	s2,s11,t5
  10180c:	00094403          	lbu	s0,0(s2)
                     | ((uint32_t)dst[byte_off + 1] << 8)
  101810:	00194283          	lbu	t0,1(s2)
                     | ((uint32_t)dst[byte_off + 2] << 16)
  101814:	00294e83          	lbu	t4,2(s2)
                     | ((uint32_t)dst[byte_off + 3] << 24);
  101818:	00394083          	lbu	ra,3(s2)
    return *(volatile uint32_t*)addr;
  10181c:	0084a903          	lw	s2,8(s1)
    while (mmio_r32(UART_MMIO_BASE + UART_ST) & ST_TX_BUSY) {
  101820:	00197913          	andi	s2,s2,1
  101824:	00090663          	beqz	s2,101830 <sd_load_image+0xa78>
        __asm__ __volatile__("nop");
  101828:	00000013          	nop
  10182c:	ff1ff06f          	j	10181c <sd_load_image+0xa64>
    *(volatile uint32_t*)addr = v;
  101830:	05700913          	li	s2,87
  101834:	0124a023          	sw	s2,0(s1)
    return *(volatile uint32_t*)addr;
  101838:	0084a903          	lw	s2,8(s1)
    while (mmio_r32(UART_MMIO_BASE + UART_ST) & ST_TX_BUSY) {
  10183c:	00197913          	andi	s2,s2,1
  101840:	00090663          	beqz	s2,10184c <sd_load_image+0xa94>
        __asm__ __volatile__("nop");
  101844:	00000013          	nop
  101848:	ff1ff06f          	j	101838 <sd_load_image+0xa80>
    *(volatile uint32_t*)addr = v;
  10184c:	05200913          	li	s2,82
  101850:	0124a023          	sw	s2,0(s1)
    return *(volatile uint32_t*)addr;
  101854:	0084a903          	lw	s2,8(s1)
    while (mmio_r32(UART_MMIO_BASE + UART_ST) & ST_TX_BUSY) {
  101858:	00197913          	andi	s2,s2,1
  10185c:	00090663          	beqz	s2,101868 <sd_load_image+0xab0>
        __asm__ __volatile__("nop");
  101860:	00000013          	nop
  101864:	ff1ff06f          	j	101854 <sd_load_image+0xa9c>
  101868:	00829913          	slli	s2,t0,0x8
  10186c:	010e9e93          	slli	t4,t4,0x10
  101870:	01809293          	slli	t0,ra,0x18
  101874:	00896433          	or	s0,s2,s0
  101878:	01d46433          	or	s0,s0,t4
    *(volatile uint32_t*)addr = v;
  10187c:	0144a023          	sw	s4,0(s1)
  101880:	00700093          	li	ra,7
  101884:	00008e93          	mv	t4,ra
        uint8_t n = (v >> (i * 4)) & 0xF;
  101888:	00209913          	slli	s2,ra,0x2
  10188c:	012f50b3          	srl	ra,t5,s2
  101890:	00f0f913          	andi	s2,ra,15
        putchar(n < 10 ? '0' + n : 'A' + n - 10);
  101894:	01096663          	bltu	s2,a6,1018a0 <sd_load_image+0xae8>
  101898:	03790093          	addi	ra,s2,55
  10189c:	0100006f          	j	1018ac <sd_load_image+0xaf4>
  1018a0:	0300e093          	ori	ra,ra,48
  1018a4:	0080006f          	j	1018ac <sd_load_image+0xaf4>
        __asm__ __volatile__("nop");
  1018a8:	00000013          	nop
    return *(volatile uint32_t*)addr;
  1018ac:	0084a903          	lw	s2,8(s1)
    while (mmio_r32(UART_MMIO_BASE + UART_ST) & ST_TX_BUSY) {
  1018b0:	00197913          	andi	s2,s2,1
  1018b4:	fe091ae3          	bnez	s2,1018a8 <sd_load_image+0xaf0>
    *(volatile uint32_t*)addr = v;
  1018b8:	0014a023          	sw	ra,0(s1)
    for (int i = 7; i >= 0; i--) {
  1018bc:	fffe8093          	addi	ra,t4,-1
  1018c0:	fc0e92e3          	bnez	t4,101884 <sd_load_image+0xacc>
  1018c4:	0080006f          	j	1018cc <sd_load_image+0xb14>
        __asm__ __volatile__("nop");
  1018c8:	00000013          	nop
    return *(volatile uint32_t*)addr;
  1018cc:	0084ae83          	lw	t4,8(s1)
    while (mmio_r32(UART_MMIO_BASE + UART_ST) & ST_TX_BUSY) {
  1018d0:	001efe93          	andi	t4,t4,1
  1018d4:	fe0e9ae3          	bnez	t4,1018c8 <sd_load_image+0xb10>
    *(volatile uint32_t*)addr = v;
  1018d8:	0154a023          	sw	s5,0(s1)
    return *(volatile uint32_t*)addr;
  1018dc:	0084ae83          	lw	t4,8(s1)
  1018e0:	001efe93          	andi	t4,t4,1
  1018e4:	000e8663          	beqz	t4,1018f0 <sd_load_image+0xb38>
        __asm__ __volatile__("nop");
  1018e8:	00000013          	nop
  1018ec:	ff1ff06f          	j	1018dc <sd_load_image+0xb24>
    *(volatile uint32_t*)addr = v;
  1018f0:	0164a023          	sw	s6,0(s1)
    return *(volatile uint32_t*)addr;
  1018f4:	0084ae83          	lw	t4,8(s1)
    while (mmio_r32(UART_MMIO_BASE + UART_ST) & ST_TX_BUSY) {
  1018f8:	001efe93          	andi	t4,t4,1
  1018fc:	000e8663          	beqz	t4,101908 <sd_load_image+0xb50>
        __asm__ __volatile__("nop");
  101900:	00000013          	nop
  101904:	ff1ff06f          	j	1018f4 <sd_load_image+0xb3c>
    *(volatile uint32_t*)addr = v;
  101908:	0174a023          	sw	s7,0(s1)
    return *(volatile uint32_t*)addr;
  10190c:	0084ae83          	lw	t4,8(s1)
    while (mmio_r32(UART_MMIO_BASE + UART_ST) & ST_TX_BUSY) {
  101910:	001efe93          	andi	t4,t4,1
  101914:	000e8663          	beqz	t4,101920 <sd_load_image+0xb68>
        __asm__ __volatile__("nop");
  101918:	00000013          	nop
  10191c:	ff1ff06f          	j	10190c <sd_load_image+0xb54>
    *(volatile uint32_t*)addr = v;
  101920:	0164a023          	sw	s6,0(s1)
                     | ((uint32_t)dst[byte_off + 3] << 24);
  101924:	005462b3          	or	t0,s0,t0
  101928:	00700f13          	li	t5,7
  10192c:	000f0e93          	mv	t4,t5
        uint8_t n = (v >> (i * 4)) & 0xF;
  101930:	002f1f13          	slli	t5,t5,0x2
  101934:	01e2df33          	srl	t5,t0,t5
  101938:	00ff7f13          	andi	t5,t5,15
        putchar(n < 10 ? '0' + n : 'A' + n - 10);
  10193c:	010f6663          	bltu	t5,a6,101948 <sd_load_image+0xb90>
  101940:	037f0f13          	addi	t5,t5,55
  101944:	0100006f          	j	101954 <sd_load_image+0xb9c>
  101948:	030f0f13          	addi	t5,t5,48
  10194c:	0080006f          	j	101954 <sd_load_image+0xb9c>
        __asm__ __volatile__("nop");
  101950:	00000013          	nop
    return *(volatile uint32_t*)addr;
  101954:	0084a403          	lw	s0,8(s1)
    while (mmio_r32(UART_MMIO_BASE + UART_ST) & ST_TX_BUSY) {
  101958:	00147413          	andi	s0,s0,1
  10195c:	fe041ae3          	bnez	s0,101950 <sd_load_image+0xb98>
    *(volatile uint32_t*)addr = v;
  101960:	01e4a023          	sw	t5,0(s1)
    for (int i = 7; i >= 0; i--) {
  101964:	fffe8f13          	addi	t5,t4,-1
  101968:	fc0e92e3          	bnez	t4,10192c <sd_load_image+0xb74>
  10196c:	0080006f          	j	101974 <sd_load_image+0xbbc>
        __asm__ __volatile__("nop");
  101970:	00000013          	nop
    return *(volatile uint32_t*)addr;
  101974:	0084a283          	lw	t0,8(s1)
    while (mmio_r32(UART_MMIO_BASE + UART_ST) & ST_TX_BUSY) {
  101978:	0012f293          	andi	t0,t0,1
  10197c:	fe029ae3          	bnez	t0,101970 <sd_load_image+0xbb8>
    for (int w = 0; w < SD_DEBUG_WORDS_PER_SEC; w++) {
  101980:	00198993          	addi	s3,s3,1
    *(volatile uint32_t*)addr = v;
  101984:	0104a023          	sw	a6,0(s1)
  101988:	e7899ee3          	bne	s3,s8,101804 <sd_load_image+0xa4c>
  10198c:	2ec0006f          	j	101c78 <sd_load_image+0xec0>
  101990:	00000293          	li	t0,0
  101994:	04300e93          	li	t4,67
  101998:	06500913          	li	s2,101
  10199c:	07400993          	li	s3,116
  1019a0:	0080006f          	j	1019a8 <sd_load_image+0xbf0>
        __asm__ __volatile__("nop");
  1019a4:	00000013          	nop
    return *(volatile uint32_t*)addr;
  1019a8:	0084af03          	lw	t5,8(s1)
    while (mmio_r32(UART_MMIO_BASE + UART_ST) & ST_TX_BUSY) {
  1019ac:	001f7f13          	andi	t5,t5,1
  1019b0:	fe0f1ae3          	bnez	t5,1019a4 <sd_load_image+0xbec>
        putchar(*s++);
  1019b4:	00128293          	addi	t0,t0,1
  1019b8:	01812f03          	lw	t5,24(sp)
  1019bc:	005f0f33          	add	t5,t5,t0
    mmio_w32(UART_MMIO_BASE + UART_TX, (uint32_t)(uint8_t)ch);
  1019c0:	0ffefe93          	zext.b	t4,t4
    *(volatile uint32_t*)addr = v;
  1019c4:	01d4a023          	sw	t4,0(s1)
    while (*s) {
  1019c8:	000f4e83          	lbu	t4,0(t5)
  1019cc:	00c00f13          	li	t5,12
  1019d0:	fde29ce3          	bne	t0,t5,1019a8 <sd_load_image+0xbf0>
  1019d4:	00700e93          	li	t4,7
  1019d8:	000e8293          	mv	t0,t4
        uint8_t n = (v >> (i * 4)) & 0xF;
  1019dc:	002e9e93          	slli	t4,t4,0x2
  1019e0:	01d75eb3          	srl	t4,a4,t4
  1019e4:	00fefe93          	andi	t4,t4,15
  1019e8:	010ee663          	bltu	t4,a6,1019f4 <sd_load_image+0xc3c>
  1019ec:	037e8e93          	addi	t4,t4,55
  1019f0:	0100006f          	j	101a00 <sd_load_image+0xc48>
  1019f4:	030e8e93          	addi	t4,t4,48
  1019f8:	0080006f          	j	101a00 <sd_load_image+0xc48>
        __asm__ __volatile__("nop");
  1019fc:	00000013          	nop
    return *(volatile uint32_t*)addr;
  101a00:	0084af03          	lw	t5,8(s1)
    while (mmio_r32(UART_MMIO_BASE + UART_ST) & ST_TX_BUSY) {
  101a04:	001f7f13          	andi	t5,t5,1
  101a08:	fe0f1ae3          	bnez	t5,1019fc <sd_load_image+0xc44>
    *(volatile uint32_t*)addr = v;
  101a0c:	01d4a023          	sw	t4,0(s1)
    for (int i = 7; i >= 0; i--) {
  101a10:	fff28e93          	addi	t4,t0,-1
  101a14:	fc0292e3          	bnez	t0,1019d8 <sd_load_image+0xc20>
  101a18:	0080006f          	j	101a20 <sd_load_image+0xc68>
        __asm__ __volatile__("nop");
  101a1c:	00000013          	nop
    return *(volatile uint32_t*)addr;
  101a20:	0084a283          	lw	t0,8(s1)
    while (mmio_r32(UART_MMIO_BASE + UART_ST) & ST_TX_BUSY) {
  101a24:	0012f293          	andi	t0,t0,1
  101a28:	fe029ae3          	bnez	t0,101a1c <sd_load_image+0xc64>
    *(volatile uint32_t*)addr = v;
  101a2c:	0164a023          	sw	s6,0(s1)
    return *(volatile uint32_t*)addr;
  101a30:	0084a283          	lw	t0,8(s1)
  101a34:	0012f293          	andi	t0,t0,1
  101a38:	00028663          	beqz	t0,101a44 <sd_load_image+0xc8c>
        __asm__ __volatile__("nop");
  101a3c:	00000013          	nop
  101a40:	ff1ff06f          	j	101a30 <sd_load_image+0xc78>
    *(volatile uint32_t*)addr = v;
  101a44:	0084a023          	sw	s0,0(s1)
    return *(volatile uint32_t*)addr;
  101a48:	0084a283          	lw	t0,8(s1)
    while (mmio_r32(UART_MMIO_BASE + UART_ST) & ST_TX_BUSY) {
  101a4c:	0012f293          	andi	t0,t0,1
  101a50:	00028663          	beqz	t0,101a5c <sd_load_image+0xca4>
        __asm__ __volatile__("nop");
  101a54:	00000013          	nop
  101a58:	ff1ff06f          	j	101a48 <sd_load_image+0xc90>
    *(volatile uint32_t*)addr = v;
  101a5c:	0124a023          	sw	s2,0(s1)
    return *(volatile uint32_t*)addr;
  101a60:	0084a283          	lw	t0,8(s1)
    while (mmio_r32(UART_MMIO_BASE + UART_ST) & ST_TX_BUSY) {
  101a64:	0012f293          	andi	t0,t0,1
  101a68:	00028663          	beqz	t0,101a74 <sd_load_image+0xcbc>
        __asm__ __volatile__("nop");
  101a6c:	00000013          	nop
  101a70:	ff1ff06f          	j	101a60 <sd_load_image+0xca8>
    *(volatile uint32_t*)addr = v;
  101a74:	0134a023          	sw	s3,0(s1)
    return *(volatile uint32_t*)addr;
  101a78:	0084a283          	lw	t0,8(s1)
    while (mmio_r32(UART_MMIO_BASE + UART_ST) & ST_TX_BUSY) {
  101a7c:	0012f293          	andi	t0,t0,1
  101a80:	00028663          	beqz	t0,101a8c <sd_load_image+0xcd4>
        __asm__ __volatile__("nop");
  101a84:	00000013          	nop
  101a88:	ff1ff06f          	j	101a78 <sd_load_image+0xcc0>
    *(volatile uint32_t*)addr = v;
  101a8c:	0084a023          	sw	s0,0(s1)
    return *(volatile uint32_t*)addr;
  101a90:	0084a283          	lw	t0,8(s1)
    while (mmio_r32(UART_MMIO_BASE + UART_ST) & ST_TX_BUSY) {
  101a94:	0012f293          	andi	t0,t0,1
  101a98:	07900e93          	li	t4,121
  101a9c:	07300413          	li	s0,115
  101aa0:	07700913          	li	s2,119
  101aa4:	06800993          	li	s3,104
  101aa8:	00028a63          	beqz	t0,101abc <sd_load_image+0xd04>
        __asm__ __volatile__("nop");
  101aac:	00000013          	nop
  101ab0:	0084a283          	lw	t0,8(s1)
    while (mmio_r32(UART_MMIO_BASE + UART_ST) & ST_TX_BUSY) {
  101ab4:	0012f293          	andi	t0,t0,1
  101ab8:	fe029ae3          	bnez	t0,101aac <sd_load_image+0xcf4>
    *(volatile uint32_t*)addr = v;
  101abc:	01d4a023          	sw	t4,0(s1)
    return *(volatile uint32_t*)addr;
  101ac0:	0084a283          	lw	t0,8(s1)
  101ac4:	0012f293          	andi	t0,t0,1
  101ac8:	00028663          	beqz	t0,101ad4 <sd_load_image+0xd1c>
        __asm__ __volatile__("nop");
  101acc:	00000013          	nop
  101ad0:	ff1ff06f          	j	101ac0 <sd_load_image+0xd08>
    *(volatile uint32_t*)addr = v;
  101ad4:	0174a023          	sw	s7,0(s1)
  101ad8:	00700e93          	li	t4,7
  101adc:	000e8293          	mv	t0,t4
        uint8_t n = (v >> (i * 4)) & 0xF;
  101ae0:	002e9e93          	slli	t4,t4,0x2
  101ae4:	01d7deb3          	srl	t4,a5,t4
        putchar(n < 10 ? '0' + n : 'A' + n - 10);
  101ae8:	010ee663          	bltu	t4,a6,101af4 <sd_load_image+0xd3c>
  101aec:	037e8e93          	addi	t4,t4,55
  101af0:	0100006f          	j	101b00 <sd_load_image+0xd48>
  101af4:	030eee93          	ori	t4,t4,48
  101af8:	0080006f          	j	101b00 <sd_load_image+0xd48>
        __asm__ __volatile__("nop");
  101afc:	00000013          	nop
    return *(volatile uint32_t*)addr;
  101b00:	0084af03          	lw	t5,8(s1)
    while (mmio_r32(UART_MMIO_BASE + UART_ST) & ST_TX_BUSY) {
  101b04:	001f7f13          	andi	t5,t5,1
  101b08:	fe0f1ae3          	bnez	t5,101afc <sd_load_image+0xd44>
    *(volatile uint32_t*)addr = v;
  101b0c:	01d4a023          	sw	t4,0(s1)
    for (int i = 7; i >= 0; i--) {
  101b10:	fff28e93          	addi	t4,t0,-1
  101b14:	fc0294e3          	bnez	t0,101adc <sd_load_image+0xd24>
  101b18:	0080006f          	j	101b20 <sd_load_image+0xd68>
        __asm__ __volatile__("nop");
  101b1c:	00000013          	nop
    return *(volatile uint32_t*)addr;
  101b20:	0084a283          	lw	t0,8(s1)
    while (mmio_r32(UART_MMIO_BASE + UART_ST) & ST_TX_BUSY) {
  101b24:	0012f293          	andi	t0,t0,1
  101b28:	fe029ae3          	bnez	t0,101b1c <sd_load_image+0xd64>
    *(volatile uint32_t*)addr = v;
  101b2c:	0164a023          	sw	s6,0(s1)
    return *(volatile uint32_t*)addr;
  101b30:	0084a283          	lw	t0,8(s1)
  101b34:	0012f293          	andi	t0,t0,1
  101b38:	00028663          	beqz	t0,101b44 <sd_load_image+0xd8c>
        __asm__ __volatile__("nop");
  101b3c:	00000013          	nop
  101b40:	ff1ff06f          	j	101b30 <sd_load_image+0xd78>
    *(volatile uint32_t*)addr = v;
  101b44:	0084a023          	sw	s0,0(s1)
    return *(volatile uint32_t*)addr;
  101b48:	0084a283          	lw	t0,8(s1)
    while (mmio_r32(UART_MMIO_BASE + UART_ST) & ST_TX_BUSY) {
  101b4c:	0012f293          	andi	t0,t0,1
  101b50:	00028663          	beqz	t0,101b5c <sd_load_image+0xda4>
        __asm__ __volatile__("nop");
  101b54:	00000013          	nop
  101b58:	ff1ff06f          	j	101b48 <sd_load_image+0xd90>
    *(volatile uint32_t*)addr = v;
  101b5c:	0124a023          	sw	s2,0(s1)
    return *(volatile uint32_t*)addr;
  101b60:	0084a283          	lw	t0,8(s1)
    while (mmio_r32(UART_MMIO_BASE + UART_ST) & ST_TX_BUSY) {
  101b64:	0012f293          	andi	t0,t0,1
  101b68:	00028663          	beqz	t0,101b74 <sd_load_image+0xdbc>
        __asm__ __volatile__("nop");
  101b6c:	00000013          	nop
  101b70:	ff1ff06f          	j	101b60 <sd_load_image+0xda8>
    *(volatile uint32_t*)addr = v;
  101b74:	0174a023          	sw	s7,0(s1)
  101b78:	00700e93          	li	t4,7
  101b7c:	000e8293          	mv	t0,t4
        uint8_t n = (v >> (i * 4)) & 0xF;
  101b80:	002e9e93          	slli	t4,t4,0x2
  101b84:	01de5eb3          	srl	t4,t3,t4
  101b88:	00fefe93          	andi	t4,t4,15
        putchar(n < 10 ? '0' + n : 'A' + n - 10);
  101b8c:	010ee663          	bltu	t4,a6,101b98 <sd_load_image+0xde0>
  101b90:	037e8e93          	addi	t4,t4,55
  101b94:	0100006f          	j	101ba4 <sd_load_image+0xdec>
  101b98:	030e8e93          	addi	t4,t4,48
  101b9c:	0080006f          	j	101ba4 <sd_load_image+0xdec>
        __asm__ __volatile__("nop");
  101ba0:	00000013          	nop
    return *(volatile uint32_t*)addr;
  101ba4:	0084af03          	lw	t5,8(s1)
    while (mmio_r32(UART_MMIO_BASE + UART_ST) & ST_TX_BUSY) {
  101ba8:	001f7f13          	andi	t5,t5,1
  101bac:	fe0f1ae3          	bnez	t5,101ba0 <sd_load_image+0xde8>
    *(volatile uint32_t*)addr = v;
  101bb0:	01d4a023          	sw	t4,0(s1)
    for (int i = 7; i >= 0; i--) {
  101bb4:	fff28e93          	addi	t4,t0,-1
  101bb8:	fc0292e3          	bnez	t0,101b7c <sd_load_image+0xdc4>
  101bbc:	0080006f          	j	101bc4 <sd_load_image+0xe0c>
        __asm__ __volatile__("nop");
  101bc0:	00000013          	nop
    return *(volatile uint32_t*)addr;
  101bc4:	0084a283          	lw	t0,8(s1)
    while (mmio_r32(UART_MMIO_BASE + UART_ST) & ST_TX_BUSY) {
  101bc8:	0012f293          	andi	t0,t0,1
  101bcc:	fe029ae3          	bnez	t0,101bc0 <sd_load_image+0xe08>
    *(volatile uint32_t*)addr = v;
  101bd0:	0164a023          	sw	s6,0(s1)
    return *(volatile uint32_t*)addr;
  101bd4:	0084a283          	lw	t0,8(s1)
  101bd8:	0012f293          	andi	t0,t0,1
  101bdc:	00028663          	beqz	t0,101be8 <sd_load_image+0xe30>
        __asm__ __volatile__("nop");
  101be0:	00000013          	nop
  101be4:	ff1ff06f          	j	101bd4 <sd_load_image+0xe1c>
    *(volatile uint32_t*)addr = v;
  101be8:	0134a023          	sw	s3,0(s1)
    return *(volatile uint32_t*)addr;
  101bec:	0084a283          	lw	t0,8(s1)
    while (mmio_r32(UART_MMIO_BASE + UART_ST) & ST_TX_BUSY) {
  101bf0:	0012f293          	andi	t0,t0,1
  101bf4:	00028663          	beqz	t0,101c00 <sd_load_image+0xe48>
        __asm__ __volatile__("nop");
  101bf8:	00000013          	nop
  101bfc:	ff1ff06f          	j	101bec <sd_load_image+0xe34>
    *(volatile uint32_t*)addr = v;
  101c00:	0124a023          	sw	s2,0(s1)
    return *(volatile uint32_t*)addr;
  101c04:	0084a283          	lw	t0,8(s1)
    while (mmio_r32(UART_MMIO_BASE + UART_ST) & ST_TX_BUSY) {
  101c08:	0012f293          	andi	t0,t0,1
  101c0c:	00028663          	beqz	t0,101c18 <sd_load_image+0xe60>
        __asm__ __volatile__("nop");
  101c10:	00000013          	nop
  101c14:	ff1ff06f          	j	101c04 <sd_load_image+0xe4c>
    *(volatile uint32_t*)addr = v;
  101c18:	0174a023          	sw	s7,0(s1)
  101c1c:	00700e93          	li	t4,7
  101c20:	000e8293          	mv	t0,t4
        uint8_t n = (v >> (i * 4)) & 0xF;
  101c24:	002e9e93          	slli	t4,t4,0x2
  101c28:	01d3deb3          	srl	t4,t2,t4
  101c2c:	00fefe93          	andi	t4,t4,15
        putchar(n < 10 ? '0' + n : 'A' + n - 10);
  101c30:	010ee663          	bltu	t4,a6,101c3c <sd_load_image+0xe84>
  101c34:	037e8e93          	addi	t4,t4,55
  101c38:	0100006f          	j	101c48 <sd_load_image+0xe90>
  101c3c:	030e8e93          	addi	t4,t4,48
  101c40:	0080006f          	j	101c48 <sd_load_image+0xe90>
        __asm__ __volatile__("nop");
  101c44:	00000013          	nop
    return *(volatile uint32_t*)addr;
  101c48:	0084af03          	lw	t5,8(s1)
    while (mmio_r32(UART_MMIO_BASE + UART_ST) & ST_TX_BUSY) {
  101c4c:	001f7f13          	andi	t5,t5,1
  101c50:	fe0f1ae3          	bnez	t5,101c44 <sd_load_image+0xe8c>
    *(volatile uint32_t*)addr = v;
  101c54:	01d4a023          	sw	t4,0(s1)
    for (int i = 7; i >= 0; i--) {
  101c58:	fff28e93          	addi	t4,t0,-1
  101c5c:	fc0292e3          	bnez	t0,101c20 <sd_load_image+0xe68>
  101c60:	0080006f          	j	101c68 <sd_load_image+0xeb0>
        __asm__ __volatile__("nop");
  101c64:	00000013          	nop
    return *(volatile uint32_t*)addr;
  101c68:	0084a283          	lw	t0,8(s1)
    while (mmio_r32(UART_MMIO_BASE + UART_ST) & ST_TX_BUSY) {
  101c6c:	0012f293          	andi	t0,t0,1
  101c70:	fe029ae3          	bnez	t0,101c64 <sd_load_image+0xeac>
    *(volatile uint32_t*)addr = v;
  101c74:	0104a023          	sw	a6,0(s1)
  101c78:	027e0e63          	beq	t3,t2,101cb4 <sd_load_image+0xefc>
  101c7c:	f9c00293          	li	t0,-100
  101c80:	21c10093          	addi	ra,sp,540
  101c84:	00400393          	li	t2,4
  101c88:	00200e13          	li	t3,2
  101c8c:	ffff4eb7          	lui	t4,0xffff4
  101c90:	20000f13          	li	t5,512
  101c94:	00c12403          	lw	s0,12(sp)
  101c98:	00300913          	li	s2,3
    while (n--) {
  101c9c:	00128293          	addi	t0,t0,1
        __asm__ __volatile__("nop");
  101ca0:	00000013          	nop
    while (n--) {
  101ca4:	fe029ce3          	bnez	t0,101c9c <sd_load_image+0xee4>
    for (uint32_t retry = 0; retry < SD_READ_RETRY_MAX; retry++) {
  101ca8:	00178793          	addi	a5,a5,1
  101cac:	e5279c63          	bne	a5,s2,101304 <sd_load_image+0x54c>
  101cb0:	66c0006f          	j	10231c <sd_load_image+0x1564>
        if ((i & 0x7u) == 0u) {
  101cb4:	0078f693          	andi	a3,a7,7
  101cb8:	21c10093          	addi	ra,sp,540
  101cbc:	00400393          	li	t2,4
  101cc0:	00200e13          	li	t3,2
  101cc4:	ffff4eb7          	lui	t4,0xffff4
  101cc8:	20000f13          	li	t5,512
  101ccc:	00c12403          	lw	s0,12(sp)
  101cd0:	12069063          	bnez	a3,101df0 <sd_load_image+0x1038>
  101cd4:	02000713          	li	a4,32
  101cd8:	0080006f          	j	101ce0 <sd_load_image+0xf28>
        __asm__ __volatile__("nop");
  101cdc:	00000013          	nop
    return *(volatile uint32_t*)addr;
  101ce0:	0084a783          	lw	a5,8(s1)
    while (mmio_r32(UART_MMIO_BASE + UART_ST) & ST_TX_BUSY) {
  101ce4:	0017f793          	andi	a5,a5,1
  101ce8:	fe079ae3          	bnez	a5,101cdc <sd_load_image+0xf24>
        putchar(*s++);
  101cec:	00168693          	addi	a3,a3,1
  101cf0:	00d407b3          	add	a5,s0,a3
    mmio_w32(UART_MMIO_BASE + UART_TX, (uint32_t)(uint8_t)ch);
  101cf4:	0ff77713          	zext.b	a4,a4
    *(volatile uint32_t*)addr = v;
  101cf8:	00e4a023          	sw	a4,0(s1)
    while (*s) {
  101cfc:	0007c703          	lbu	a4,0(a5)
  101d00:	ff8690e3          	bne	a3,s8,101ce0 <sd_load_image+0xf28>
  101d04:	00700713          	li	a4,7
  101d08:	00070693          	mv	a3,a4
        uint8_t n = (v >> (i * 4)) & 0xF;
  101d0c:	00271713          	slli	a4,a4,0x2
  101d10:	00e8d733          	srl	a4,a7,a4
  101d14:	00f77713          	andi	a4,a4,15
        putchar(n < 10 ? '0' + n : 'A' + n - 10);
  101d18:	01076663          	bltu	a4,a6,101d24 <sd_load_image+0xf6c>
  101d1c:	03770713          	addi	a4,a4,55
  101d20:	0100006f          	j	101d30 <sd_load_image+0xf78>
  101d24:	03070713          	addi	a4,a4,48
  101d28:	0080006f          	j	101d30 <sd_load_image+0xf78>
        __asm__ __volatile__("nop");
  101d2c:	00000013          	nop
    return *(volatile uint32_t*)addr;
  101d30:	0084a783          	lw	a5,8(s1)
    while (mmio_r32(UART_MMIO_BASE + UART_ST) & ST_TX_BUSY) {
  101d34:	0017f793          	andi	a5,a5,1
  101d38:	fe079ae3          	bnez	a5,101d2c <sd_load_image+0xf74>
    *(volatile uint32_t*)addr = v;
  101d3c:	00e4a023          	sw	a4,0(s1)
    for (int i = 7; i >= 0; i--) {
  101d40:	fff68713          	addi	a4,a3,-1
  101d44:	fc0692e3          	bnez	a3,101d08 <sd_load_image+0xf50>
  101d48:	0080006f          	j	101d50 <sd_load_image+0xf98>
        __asm__ __volatile__("nop");
  101d4c:	00000013          	nop
    return *(volatile uint32_t*)addr;
  101d50:	0084a683          	lw	a3,8(s1)
    while (mmio_r32(UART_MMIO_BASE + UART_ST) & ST_TX_BUSY) {
  101d54:	0016f693          	andi	a3,a3,1
  101d58:	fe069ae3          	bnez	a3,101d4c <sd_load_image+0xf94>
    *(volatile uint32_t*)addr = v;
  101d5c:	0164a023          	sw	s6,0(s1)
    return *(volatile uint32_t*)addr;
  101d60:	0084a683          	lw	a3,8(s1)
  101d64:	0016f693          	andi	a3,a3,1
  101d68:	00068663          	beqz	a3,101d74 <sd_load_image+0xfbc>
        __asm__ __volatile__("nop");
  101d6c:	00000013          	nop
  101d70:	ff1ff06f          	j	101d60 <sd_load_image+0xfa8>
    *(volatile uint32_t*)addr = v;
  101d74:	02f00693          	li	a3,47
  101d78:	00d4a023          	sw	a3,0(s1)
    return *(volatile uint32_t*)addr;
  101d7c:	0084a683          	lw	a3,8(s1)
    while (mmio_r32(UART_MMIO_BASE + UART_ST) & ST_TX_BUSY) {
  101d80:	0016f693          	andi	a3,a3,1
  101d84:	00068663          	beqz	a3,101d90 <sd_load_image+0xfd8>
        __asm__ __volatile__("nop");
  101d88:	00000013          	nop
  101d8c:	ff1ff06f          	j	101d7c <sd_load_image+0xfc4>
    *(volatile uint32_t*)addr = v;
  101d90:	0164a023          	sw	s6,0(s1)
  101d94:	00700713          	li	a4,7
  101d98:	00070693          	mv	a3,a4
        uint8_t n = (v >> (i * 4)) & 0xF;
  101d9c:	00271713          	slli	a4,a4,0x2
  101da0:	00e5d733          	srl	a4,a1,a4
  101da4:	00f77713          	andi	a4,a4,15
        putchar(n < 10 ? '0' + n : 'A' + n - 10);
  101da8:	01076663          	bltu	a4,a6,101db4 <sd_load_image+0xffc>
  101dac:	03770713          	addi	a4,a4,55
  101db0:	0100006f          	j	101dc0 <sd_load_image+0x1008>
  101db4:	03070713          	addi	a4,a4,48
  101db8:	0080006f          	j	101dc0 <sd_load_image+0x1008>
        __asm__ __volatile__("nop");
  101dbc:	00000013          	nop
    return *(volatile uint32_t*)addr;
  101dc0:	0084a783          	lw	a5,8(s1)
    while (mmio_r32(UART_MMIO_BASE + UART_ST) & ST_TX_BUSY) {
  101dc4:	0017f793          	andi	a5,a5,1
  101dc8:	fe079ae3          	bnez	a5,101dbc <sd_load_image+0x1004>
    *(volatile uint32_t*)addr = v;
  101dcc:	00e4a023          	sw	a4,0(s1)
    for (int i = 7; i >= 0; i--) {
  101dd0:	fff68713          	addi	a4,a3,-1
  101dd4:	fc0692e3          	bnez	a3,101d98 <sd_load_image+0xfe0>
  101dd8:	0080006f          	j	101de0 <sd_load_image+0x1028>
        __asm__ __volatile__("nop");
  101ddc:	00000013          	nop
    return *(volatile uint32_t*)addr;
  101de0:	0084a683          	lw	a3,8(s1)
    while (mmio_r32(UART_MMIO_BASE + UART_ST) & ST_TX_BUSY) {
  101de4:	0016f693          	andi	a3,a3,1
  101de8:	fe069ae3          	bnez	a3,101ddc <sd_load_image+0x1024>
    *(volatile uint32_t*)addr = v;
  101dec:	0104a023          	sw	a6,0(s1)
    for (uint32_t i = 0; i < sector_count; i++) {
  101df0:	00188893          	addi	a7,a7,1
  101df4:	00b8b6b3          	sltu	a3,a7,a1
  101df8:	01012703          	lw	a4,16(sp)
  101dfc:	20070713          	addi	a4,a4,512
  101e00:	00e12823          	sw	a4,16(sp)
  101e04:	ceb89663          	bne	a7,a1,1012f0 <sd_load_image+0x538>
  101e08:	6740006f          	j	10247c <sd_load_image+0x16c4>
  101e0c:	00000513          	li	a0,0
  101e10:	04600613          	li	a2,70
  101e14:	001035b7          	lui	a1,0x103
  101e18:	4bf58593          	addi	a1,a1,1215 # 1034bf <$d.1+0xbc>
  101e1c:	10000837          	lui	a6,0x10000
  101e20:	01800893          	li	a7,24
  101e24:	0080006f          	j	101e2c <sd_load_image+0x1074>
        __asm__ __volatile__("nop");
  101e28:	00000013          	nop
    return *(volatile uint32_t*)addr;
  101e2c:	00882283          	lw	t0,8(a6) # 10000008 <_stack_top+0xfef4a08>
    while (mmio_r32(UART_MMIO_BASE + UART_ST) & ST_TX_BUSY) {
  101e30:	0012f293          	andi	t0,t0,1
  101e34:	fe029ae3          	bnez	t0,101e28 <sd_load_image+0x1070>
        putchar(*s++);
  101e38:	00150513          	addi	a0,a0,1
  101e3c:	00a582b3          	add	t0,a1,a0
    mmio_w32(UART_MMIO_BASE + UART_TX, (uint32_t)(uint8_t)ch);
  101e40:	0ff67613          	zext.b	a2,a2
    *(volatile uint32_t*)addr = v;
  101e44:	00c82023          	sw	a2,0(a6)
    while (*s) {
  101e48:	0002c603          	lbu	a2,0(t0)
  101e4c:	ff1510e3          	bne	a0,a7,101e2c <sd_load_image+0x1074>
  101e50:	00700813          	li	a6,7
  101e54:	00a00513          	li	a0,10
  101e58:	100005b7          	lui	a1,0x10000
  101e5c:	00080613          	mv	a2,a6
        uint8_t n = (v >> (i * 4)) & 0xF;
  101e60:	00281813          	slli	a6,a6,0x2
  101e64:	01075833          	srl	a6,a4,a6
  101e68:	00f87813          	andi	a6,a6,15
        putchar(n < 10 ? '0' + n : 'A' + n - 10);
  101e6c:	00a86663          	bltu	a6,a0,101e78 <sd_load_image+0x10c0>
  101e70:	03780813          	addi	a6,a6,55
  101e74:	0100006f          	j	101e84 <sd_load_image+0x10cc>
  101e78:	03080813          	addi	a6,a6,48
  101e7c:	0080006f          	j	101e84 <sd_load_image+0x10cc>
        __asm__ __volatile__("nop");
  101e80:	00000013          	nop
    return *(volatile uint32_t*)addr;
  101e84:	0085a883          	lw	a7,8(a1) # 10000008 <_stack_top+0xfef4a08>
    while (mmio_r32(UART_MMIO_BASE + UART_ST) & ST_TX_BUSY) {
  101e88:	0018f893          	andi	a7,a7,1
  101e8c:	fe089ae3          	bnez	a7,101e80 <sd_load_image+0x10c8>
    *(volatile uint32_t*)addr = v;
  101e90:	0105a023          	sw	a6,0(a1)
    for (int i = 7; i >= 0; i--) {
  101e94:	fff60813          	addi	a6,a2,-1 # 3fffff <_stack_top+0x2f49ff>
  101e98:	fc0612e3          	bnez	a2,101e5c <sd_load_image+0x10a4>
  101e9c:	10000537          	lui	a0,0x10000
    return *(volatile uint32_t*)addr;
  101ea0:	00852583          	lw	a1,8(a0) # 10000008 <_stack_top+0xfef4a08>
    while (mmio_r32(UART_MMIO_BASE + UART_ST) & ST_TX_BUSY) {
  101ea4:	0015f593          	andi	a1,a1,1
  101ea8:	00058663          	beqz	a1,101eb4 <sd_load_image+0x10fc>
        __asm__ __volatile__("nop");
  101eac:	00000013          	nop
  101eb0:	ff1ff06f          	j	101ea0 <sd_load_image+0x10e8>
  101eb4:	02000593          	li	a1,32
    *(volatile uint32_t*)addr = v;
  101eb8:	00b52023          	sw	a1,0(a0)
    return *(volatile uint32_t*)addr;
  101ebc:	00852503          	lw	a0,8(a0)
    while (mmio_r32(UART_MMIO_BASE + UART_ST) & ST_TX_BUSY) {
  101ec0:	00157513          	andi	a0,a0,1
  101ec4:	00050c63          	beqz	a0,101edc <sd_load_image+0x1124>
  101ec8:	10000537          	lui	a0,0x10000
        __asm__ __volatile__("nop");
  101ecc:	00000013          	nop
  101ed0:	00852583          	lw	a1,8(a0) # 10000008 <_stack_top+0xfef4a08>
    while (mmio_r32(UART_MMIO_BASE + UART_ST) & ST_TX_BUSY) {
  101ed4:	0015f593          	andi	a1,a1,1
  101ed8:	fe059ae3          	bnez	a1,101ecc <sd_load_image+0x1114>
  101edc:	10000537          	lui	a0,0x10000
  101ee0:	06900593          	li	a1,105
    *(volatile uint32_t*)addr = v;
  101ee4:	00b52023          	sw	a1,0(a0) # 10000000 <_stack_top+0xfef4a00>
    return *(volatile uint32_t*)addr;
  101ee8:	00852583          	lw	a1,8(a0)
  101eec:	0015f593          	andi	a1,a1,1
  101ef0:	00058663          	beqz	a1,101efc <sd_load_image+0x1144>
        __asm__ __volatile__("nop");
  101ef4:	00000013          	nop
  101ef8:	ff1ff06f          	j	101ee8 <sd_load_image+0x1130>
  101efc:	06e00593          	li	a1,110
    *(volatile uint32_t*)addr = v;
  101f00:	00b52023          	sw	a1,0(a0)
    return *(volatile uint32_t*)addr;
  101f04:	00852503          	lw	a0,8(a0)
    while (mmio_r32(UART_MMIO_BASE + UART_ST) & ST_TX_BUSY) {
  101f08:	00157513          	andi	a0,a0,1
  101f0c:	00050c63          	beqz	a0,101f24 <sd_load_image+0x116c>
  101f10:	10000537          	lui	a0,0x10000
        __asm__ __volatile__("nop");
  101f14:	00000013          	nop
  101f18:	00852583          	lw	a1,8(a0) # 10000008 <_stack_top+0xfef4a08>
    while (mmio_r32(UART_MMIO_BASE + UART_ST) & ST_TX_BUSY) {
  101f1c:	0015f593          	andi	a1,a1,1
  101f20:	fe059ae3          	bnez	a1,101f14 <sd_load_image+0x115c>
  101f24:	10000537          	lui	a0,0x10000
  101f28:	06400593          	li	a1,100
    *(volatile uint32_t*)addr = v;
  101f2c:	00b52023          	sw	a1,0(a0) # 10000000 <_stack_top+0xfef4a00>
    return *(volatile uint32_t*)addr;
  101f30:	00852583          	lw	a1,8(a0)
  101f34:	0015f593          	andi	a1,a1,1
  101f38:	00058663          	beqz	a1,101f44 <sd_load_image+0x118c>
        __asm__ __volatile__("nop");
  101f3c:	00000013          	nop
  101f40:	ff1ff06f          	j	101f30 <sd_load_image+0x1178>
  101f44:	06500593          	li	a1,101
    *(volatile uint32_t*)addr = v;
  101f48:	00b52023          	sw	a1,0(a0)
    return *(volatile uint32_t*)addr;
  101f4c:	00852503          	lw	a0,8(a0)
    while (mmio_r32(UART_MMIO_BASE + UART_ST) & ST_TX_BUSY) {
  101f50:	00157513          	andi	a0,a0,1
  101f54:	00050c63          	beqz	a0,101f6c <sd_load_image+0x11b4>
  101f58:	10000537          	lui	a0,0x10000
        __asm__ __volatile__("nop");
  101f5c:	00000013          	nop
  101f60:	00852583          	lw	a1,8(a0) # 10000008 <_stack_top+0xfef4a08>
    while (mmio_r32(UART_MMIO_BASE + UART_ST) & ST_TX_BUSY) {
  101f64:	0015f593          	andi	a1,a1,1
  101f68:	fe059ae3          	bnez	a1,101f5c <sd_load_image+0x11a4>
  101f6c:	10000537          	lui	a0,0x10000
  101f70:	07800593          	li	a1,120
    *(volatile uint32_t*)addr = v;
  101f74:	00b52023          	sw	a1,0(a0) # 10000000 <_stack_top+0xfef4a00>
    return *(volatile uint32_t*)addr;
  101f78:	00852583          	lw	a1,8(a0)
  101f7c:	0015f593          	andi	a1,a1,1
  101f80:	00058663          	beqz	a1,101f8c <sd_load_image+0x11d4>
        __asm__ __volatile__("nop");
  101f84:	00000013          	nop
  101f88:	ff1ff06f          	j	101f78 <sd_load_image+0x11c0>
  101f8c:	03d00593          	li	a1,61
    *(volatile uint32_t*)addr = v;
  101f90:	00b52023          	sw	a1,0(a0)
  101f94:	00700813          	li	a6,7
  101f98:	00a00593          	li	a1,10
  101f9c:	00080613          	mv	a2,a6
        uint8_t n = (v >> (i * 4)) & 0xF;
  101fa0:	00281813          	slli	a6,a6,0x2
  101fa4:	0103d833          	srl	a6,t2,a6
  101fa8:	00f87813          	andi	a6,a6,15
        putchar(n < 10 ? '0' + n : 'A' + n - 10);
  101fac:	00b86663          	bltu	a6,a1,101fb8 <sd_load_image+0x1200>
  101fb0:	03780813          	addi	a6,a6,55
  101fb4:	0100006f          	j	101fc4 <sd_load_image+0x120c>
  101fb8:	03080813          	addi	a6,a6,48
  101fbc:	0080006f          	j	101fc4 <sd_load_image+0x120c>
        __asm__ __volatile__("nop");
  101fc0:	00000013          	nop
    return *(volatile uint32_t*)addr;
  101fc4:	00852883          	lw	a7,8(a0)
    while (mmio_r32(UART_MMIO_BASE + UART_ST) & ST_TX_BUSY) {
  101fc8:	0018f893          	andi	a7,a7,1
  101fcc:	fe089ae3          	bnez	a7,101fc0 <sd_load_image+0x1208>
    *(volatile uint32_t*)addr = v;
  101fd0:	01052023          	sw	a6,0(a0)
    for (int i = 7; i >= 0; i--) {
  101fd4:	fff60813          	addi	a6,a2,-1
  101fd8:	fc0612e3          	bnez	a2,101f9c <sd_load_image+0x11e4>
  101fdc:	10000537          	lui	a0,0x10000
    return *(volatile uint32_t*)addr;
  101fe0:	00852583          	lw	a1,8(a0) # 10000008 <_stack_top+0xfef4a08>
    while (mmio_r32(UART_MMIO_BASE + UART_ST) & ST_TX_BUSY) {
  101fe4:	0015f593          	andi	a1,a1,1
  101fe8:	00058663          	beqz	a1,101ff4 <sd_load_image+0x123c>
        __asm__ __volatile__("nop");
  101fec:	00000013          	nop
  101ff0:	ff1ff06f          	j	101fe0 <sd_load_image+0x1228>
  101ff4:	02000593          	li	a1,32
    *(volatile uint32_t*)addr = v;
  101ff8:	00b52023          	sw	a1,0(a0)
    return *(volatile uint32_t*)addr;
  101ffc:	00852503          	lw	a0,8(a0)
    while (mmio_r32(UART_MMIO_BASE + UART_ST) & ST_TX_BUSY) {
  102000:	00157513          	andi	a0,a0,1
  102004:	00050c63          	beqz	a0,10201c <sd_load_image+0x1264>
  102008:	10000537          	lui	a0,0x10000
        __asm__ __volatile__("nop");
  10200c:	00000013          	nop
  102010:	00852583          	lw	a1,8(a0) # 10000008 <_stack_top+0xfef4a08>
    while (mmio_r32(UART_MMIO_BASE + UART_ST) & ST_TX_BUSY) {
  102014:	0015f593          	andi	a1,a1,1
  102018:	fe059ae3          	bnez	a1,10200c <sd_load_image+0x1254>
  10201c:	10000537          	lui	a0,0x10000
  102020:	07200593          	li	a1,114
    *(volatile uint32_t*)addr = v;
  102024:	00b52023          	sw	a1,0(a0) # 10000000 <_stack_top+0xfef4a00>
    return *(volatile uint32_t*)addr;
  102028:	00852583          	lw	a1,8(a0)
  10202c:	0015f593          	andi	a1,a1,1
  102030:	00058663          	beqz	a1,10203c <sd_load_image+0x1284>
        __asm__ __volatile__("nop");
  102034:	00000013          	nop
  102038:	ff1ff06f          	j	102028 <sd_load_image+0x1270>
  10203c:	06500593          	li	a1,101
    *(volatile uint32_t*)addr = v;
  102040:	00b52023          	sw	a1,0(a0)
    return *(volatile uint32_t*)addr;
  102044:	00852503          	lw	a0,8(a0)
    while (mmio_r32(UART_MMIO_BASE + UART_ST) & ST_TX_BUSY) {
  102048:	00157513          	andi	a0,a0,1
  10204c:	00050c63          	beqz	a0,102064 <sd_load_image+0x12ac>
  102050:	10000537          	lui	a0,0x10000
        __asm__ __volatile__("nop");
  102054:	00000013          	nop
  102058:	00852583          	lw	a1,8(a0) # 10000008 <_stack_top+0xfef4a08>
    while (mmio_r32(UART_MMIO_BASE + UART_ST) & ST_TX_BUSY) {
  10205c:	0015f593          	andi	a1,a1,1
  102060:	fe059ae3          	bnez	a1,102054 <sd_load_image+0x129c>
  102064:	10000537          	lui	a0,0x10000
  102068:	07400593          	li	a1,116
    *(volatile uint32_t*)addr = v;
  10206c:	00b52023          	sw	a1,0(a0) # 10000000 <_stack_top+0xfef4a00>
    return *(volatile uint32_t*)addr;
  102070:	00852583          	lw	a1,8(a0)
  102074:	0015f593          	andi	a1,a1,1
  102078:	00058663          	beqz	a1,102084 <sd_load_image+0x12cc>
        __asm__ __volatile__("nop");
  10207c:	00000013          	nop
  102080:	ff1ff06f          	j	102070 <sd_load_image+0x12b8>
  102084:	07200593          	li	a1,114
    *(volatile uint32_t*)addr = v;
  102088:	00b52023          	sw	a1,0(a0)
    return *(volatile uint32_t*)addr;
  10208c:	00852503          	lw	a0,8(a0)
    while (mmio_r32(UART_MMIO_BASE + UART_ST) & ST_TX_BUSY) {
  102090:	00157513          	andi	a0,a0,1
  102094:	00050c63          	beqz	a0,1020ac <sd_load_image+0x12f4>
  102098:	10000537          	lui	a0,0x10000
        __asm__ __volatile__("nop");
  10209c:	00000013          	nop
  1020a0:	00852583          	lw	a1,8(a0) # 10000008 <_stack_top+0xfef4a08>
    while (mmio_r32(UART_MMIO_BASE + UART_ST) & ST_TX_BUSY) {
  1020a4:	0015f593          	andi	a1,a1,1
  1020a8:	fe059ae3          	bnez	a1,10209c <sd_load_image+0x12e4>
  1020ac:	10000537          	lui	a0,0x10000
  1020b0:	07900593          	li	a1,121
    *(volatile uint32_t*)addr = v;
  1020b4:	00b52023          	sw	a1,0(a0) # 10000000 <_stack_top+0xfef4a00>
    return *(volatile uint32_t*)addr;
  1020b8:	00852583          	lw	a1,8(a0)
  1020bc:	0015f593          	andi	a1,a1,1
  1020c0:	00058663          	beqz	a1,1020cc <sd_load_image+0x1314>
        __asm__ __volatile__("nop");
  1020c4:	00000013          	nop
  1020c8:	ff1ff06f          	j	1020b8 <sd_load_image+0x1300>
  1020cc:	03d00593          	li	a1,61
    *(volatile uint32_t*)addr = v;
  1020d0:	00b52023          	sw	a1,0(a0)
  1020d4:	00700813          	li	a6,7
  1020d8:	00a00593          	li	a1,10
  1020dc:	00080613          	mv	a2,a6
        uint8_t n = (v >> (i * 4)) & 0xF;
  1020e0:	00281813          	slli	a6,a6,0x2
  1020e4:	0107d833          	srl	a6,a5,a6
        putchar(n < 10 ? '0' + n : 'A' + n - 10);
  1020e8:	00b86663          	bltu	a6,a1,1020f4 <sd_load_image+0x133c>
  1020ec:	03780813          	addi	a6,a6,55
  1020f0:	0100006f          	j	102100 <sd_load_image+0x1348>
  1020f4:	03086813          	ori	a6,a6,48
  1020f8:	0080006f          	j	102100 <sd_load_image+0x1348>
        __asm__ __volatile__("nop");
  1020fc:	00000013          	nop
    return *(volatile uint32_t*)addr;
  102100:	00852883          	lw	a7,8(a0)
    while (mmio_r32(UART_MMIO_BASE + UART_ST) & ST_TX_BUSY) {
  102104:	0018f893          	andi	a7,a7,1
  102108:	fe089ae3          	bnez	a7,1020fc <sd_load_image+0x1344>
    *(volatile uint32_t*)addr = v;
  10210c:	01052023          	sw	a6,0(a0)
    for (int i = 7; i >= 0; i--) {
  102110:	fff60813          	addi	a6,a2,-1
  102114:	fc0614e3          	bnez	a2,1020dc <sd_load_image+0x1324>
  102118:	10000537          	lui	a0,0x10000
    return *(volatile uint32_t*)addr;
  10211c:	00852583          	lw	a1,8(a0) # 10000008 <_stack_top+0xfef4a08>
    while (mmio_r32(UART_MMIO_BASE + UART_ST) & ST_TX_BUSY) {
  102120:	0015f593          	andi	a1,a1,1
  102124:	2a058063          	beqz	a1,1023c4 <sd_load_image+0x160c>
        __asm__ __volatile__("nop");
  102128:	00000013          	nop
  10212c:	ff1ff06f          	j	10211c <sd_load_image+0x1364>
  102130:	00000693          	li	a3,0
  102134:	3480006f          	j	10247c <sd_load_image+0x16c4>
  102138:	00000513          	li	a0,0
  10213c:	05300613          	li	a2,83
  102140:	001035b7          	lui	a1,0x103
  102144:	4a958593          	addi	a1,a1,1193 # 1034a9 <$d.1+0xa6>
  102148:	10000837          	lui	a6,0x10000
  10214c:	01500893          	li	a7,21
  102150:	0080006f          	j	102158 <sd_load_image+0x13a0>
  102154:	00000013          	nop
  102158:	00882283          	lw	t0,8(a6) # 10000008 <_stack_top+0xfef4a08>
    while (mmio_r32(UART_MMIO_BASE + UART_ST) & ST_TX_BUSY) {
  10215c:	0012f293          	andi	t0,t0,1
  102160:	fe029ae3          	bnez	t0,102154 <sd_load_image+0x139c>
        putchar(*s++);
  102164:	00150513          	addi	a0,a0,1
  102168:	00a582b3          	add	t0,a1,a0
    mmio_w32(UART_MMIO_BASE + UART_TX, (uint32_t)(uint8_t)ch);
  10216c:	0ff67613          	zext.b	a2,a2
    *(volatile uint32_t*)addr = v;
  102170:	00c82023          	sw	a2,0(a6)
    while (*s) {
  102174:	0002c603          	lbu	a2,0(t0)
  102178:	ff1510e3          	bne	a0,a7,102158 <sd_load_image+0x13a0>
  10217c:	00700813          	li	a6,7
  102180:	00a00513          	li	a0,10
  102184:	100005b7          	lui	a1,0x10000
  102188:	00080613          	mv	a2,a6
        uint8_t n = (v >> (i * 4)) & 0xF;
  10218c:	00281813          	slli	a6,a6,0x2
  102190:	01075833          	srl	a6,a4,a6
  102194:	00f87813          	andi	a6,a6,15
        putchar(n < 10 ? '0' + n : 'A' + n - 10);
  102198:	00a86663          	bltu	a6,a0,1021a4 <sd_load_image+0x13ec>
  10219c:	03780813          	addi	a6,a6,55
  1021a0:	0100006f          	j	1021b0 <sd_load_image+0x13f8>
  1021a4:	03080813          	addi	a6,a6,48
  1021a8:	0080006f          	j	1021b0 <sd_load_image+0x13f8>
        __asm__ __volatile__("nop");
  1021ac:	00000013          	nop
    return *(volatile uint32_t*)addr;
  1021b0:	0085a883          	lw	a7,8(a1) # 10000008 <_stack_top+0xfef4a08>
    while (mmio_r32(UART_MMIO_BASE + UART_ST) & ST_TX_BUSY) {
  1021b4:	0018f893          	andi	a7,a7,1
  1021b8:	fe089ae3          	bnez	a7,1021ac <sd_load_image+0x13f4>
    *(volatile uint32_t*)addr = v;
  1021bc:	0105a023          	sw	a6,0(a1)
    for (int i = 7; i >= 0; i--) {
  1021c0:	fff60813          	addi	a6,a2,-1
  1021c4:	fc0612e3          	bnez	a2,102188 <sd_load_image+0x13d0>
  1021c8:	10000537          	lui	a0,0x10000
    return *(volatile uint32_t*)addr;
  1021cc:	00852583          	lw	a1,8(a0) # 10000008 <_stack_top+0xfef4a08>
    while (mmio_r32(UART_MMIO_BASE + UART_ST) & ST_TX_BUSY) {
  1021d0:	0015f593          	andi	a1,a1,1
  1021d4:	00058663          	beqz	a1,1021e0 <sd_load_image+0x1428>
        __asm__ __volatile__("nop");
  1021d8:	00000013          	nop
  1021dc:	ff1ff06f          	j	1021cc <sd_load_image+0x1414>
  1021e0:	02000593          	li	a1,32
    *(volatile uint32_t*)addr = v;
  1021e4:	00b52023          	sw	a1,0(a0)
    return *(volatile uint32_t*)addr;
  1021e8:	00852503          	lw	a0,8(a0)
    while (mmio_r32(UART_MMIO_BASE + UART_ST) & ST_TX_BUSY) {
  1021ec:	00157513          	andi	a0,a0,1
  1021f0:	00050c63          	beqz	a0,102208 <sd_load_image+0x1450>
  1021f4:	10000537          	lui	a0,0x10000
        __asm__ __volatile__("nop");
  1021f8:	00000013          	nop
  1021fc:	00852583          	lw	a1,8(a0) # 10000008 <_stack_top+0xfef4a08>
    while (mmio_r32(UART_MMIO_BASE + UART_ST) & ST_TX_BUSY) {
  102200:	0015f593          	andi	a1,a1,1
  102204:	fe059ae3          	bnez	a1,1021f8 <sd_load_image+0x1440>
  102208:	10000537          	lui	a0,0x10000
  10220c:	07200593          	li	a1,114
    *(volatile uint32_t*)addr = v;
  102210:	00b52023          	sw	a1,0(a0) # 10000000 <_stack_top+0xfef4a00>
    return *(volatile uint32_t*)addr;
  102214:	00852583          	lw	a1,8(a0)
  102218:	0015f593          	andi	a1,a1,1
  10221c:	00058663          	beqz	a1,102228 <sd_load_image+0x1470>
        __asm__ __volatile__("nop");
  102220:	00000013          	nop
  102224:	ff1ff06f          	j	102214 <sd_load_image+0x145c>
  102228:	06500593          	li	a1,101
    *(volatile uint32_t*)addr = v;
  10222c:	00b52023          	sw	a1,0(a0)
    return *(volatile uint32_t*)addr;
  102230:	00852503          	lw	a0,8(a0)
    while (mmio_r32(UART_MMIO_BASE + UART_ST) & ST_TX_BUSY) {
  102234:	00157513          	andi	a0,a0,1
  102238:	00050c63          	beqz	a0,102250 <sd_load_image+0x1498>
  10223c:	10000537          	lui	a0,0x10000
        __asm__ __volatile__("nop");
  102240:	00000013          	nop
  102244:	00852583          	lw	a1,8(a0) # 10000008 <_stack_top+0xfef4a08>
    while (mmio_r32(UART_MMIO_BASE + UART_ST) & ST_TX_BUSY) {
  102248:	0015f593          	andi	a1,a1,1
  10224c:	fe059ae3          	bnez	a1,102240 <sd_load_image+0x1488>
  102250:	10000537          	lui	a0,0x10000
  102254:	07400593          	li	a1,116
    *(volatile uint32_t*)addr = v;
  102258:	00b52023          	sw	a1,0(a0) # 10000000 <_stack_top+0xfef4a00>
    return *(volatile uint32_t*)addr;
  10225c:	00852583          	lw	a1,8(a0)
  102260:	0015f593          	andi	a1,a1,1
  102264:	00058663          	beqz	a1,102270 <sd_load_image+0x14b8>
        __asm__ __volatile__("nop");
  102268:	00000013          	nop
  10226c:	ff1ff06f          	j	10225c <sd_load_image+0x14a4>
  102270:	07200593          	li	a1,114
    *(volatile uint32_t*)addr = v;
  102274:	00b52023          	sw	a1,0(a0)
    return *(volatile uint32_t*)addr;
  102278:	00852503          	lw	a0,8(a0)
    while (mmio_r32(UART_MMIO_BASE + UART_ST) & ST_TX_BUSY) {
  10227c:	00157513          	andi	a0,a0,1
  102280:	00050c63          	beqz	a0,102298 <sd_load_image+0x14e0>
  102284:	10000537          	lui	a0,0x10000
        __asm__ __volatile__("nop");
  102288:	00000013          	nop
  10228c:	00852583          	lw	a1,8(a0) # 10000008 <_stack_top+0xfef4a08>
    while (mmio_r32(UART_MMIO_BASE + UART_ST) & ST_TX_BUSY) {
  102290:	0015f593          	andi	a1,a1,1
  102294:	fe059ae3          	bnez	a1,102288 <sd_load_image+0x14d0>
  102298:	10000537          	lui	a0,0x10000
  10229c:	07900593          	li	a1,121
    *(volatile uint32_t*)addr = v;
  1022a0:	00b52023          	sw	a1,0(a0) # 10000000 <_stack_top+0xfef4a00>
    return *(volatile uint32_t*)addr;
  1022a4:	00852583          	lw	a1,8(a0)
  1022a8:	0015f593          	andi	a1,a1,1
  1022ac:	00058663          	beqz	a1,1022b8 <sd_load_image+0x1500>
        __asm__ __volatile__("nop");
  1022b0:	00000013          	nop
  1022b4:	ff1ff06f          	j	1022a4 <sd_load_image+0x14ec>
  1022b8:	03d00593          	li	a1,61
    *(volatile uint32_t*)addr = v;
  1022bc:	00b52023          	sw	a1,0(a0)
  1022c0:	00700813          	li	a6,7
  1022c4:	00a00593          	li	a1,10
  1022c8:	00080613          	mv	a2,a6
        uint8_t n = (v >> (i * 4)) & 0xF;
  1022cc:	00281813          	slli	a6,a6,0x2
  1022d0:	0107d833          	srl	a6,a5,a6
        putchar(n < 10 ? '0' + n : 'A' + n - 10);
  1022d4:	00b86663          	bltu	a6,a1,1022e0 <sd_load_image+0x1528>
  1022d8:	03780813          	addi	a6,a6,55
  1022dc:	0100006f          	j	1022ec <sd_load_image+0x1534>
  1022e0:	03086813          	ori	a6,a6,48
  1022e4:	0080006f          	j	1022ec <sd_load_image+0x1534>
        __asm__ __volatile__("nop");
  1022e8:	00000013          	nop
    return *(volatile uint32_t*)addr;
  1022ec:	00852883          	lw	a7,8(a0)
    while (mmio_r32(UART_MMIO_BASE + UART_ST) & ST_TX_BUSY) {
  1022f0:	0018f893          	andi	a7,a7,1
  1022f4:	fe089ae3          	bnez	a7,1022e8 <sd_load_image+0x1530>
    *(volatile uint32_t*)addr = v;
  1022f8:	01052023          	sw	a6,0(a0)
    for (int i = 7; i >= 0; i--) {
  1022fc:	fff60813          	addi	a6,a2,-1
  102300:	fc0614e3          	bnez	a2,1022c8 <sd_load_image+0x1510>
  102304:	10000537          	lui	a0,0x10000
    return *(volatile uint32_t*)addr;
  102308:	00852583          	lw	a1,8(a0) # 10000008 <_stack_top+0xfef4a08>
    while (mmio_r32(UART_MMIO_BASE + UART_ST) & ST_TX_BUSY) {
  10230c:	0015f593          	andi	a1,a1,1
  102310:	0a058a63          	beqz	a1,1023c4 <sd_load_image+0x160c>
        __asm__ __volatile__("nop");
  102314:	00000013          	nop
  102318:	ff1ff06f          	j	102308 <sd_load_image+0x1550>
  10231c:	00000513          	li	a0,0
  102320:	04300613          	li	a2,67
  102324:	001035b7          	lui	a1,0x103
  102328:	59358593          	addi	a1,a1,1427 # 103593 <$d.1+0x2b>
  10232c:	100007b7          	lui	a5,0x10000
  102330:	01000813          	li	a6,16
  102334:	0080006f          	j	10233c <sd_load_image+0x1584>
  102338:	00000013          	nop
  10233c:	0087a883          	lw	a7,8(a5) # 10000008 <_stack_top+0xfef4a08>
    while (mmio_r32(UART_MMIO_BASE + UART_ST) & ST_TX_BUSY) {
  102340:	0018f893          	andi	a7,a7,1
  102344:	fe089ae3          	bnez	a7,102338 <sd_load_image+0x1580>
        putchar(*s++);
  102348:	00150513          	addi	a0,a0,1
  10234c:	00a588b3          	add	a7,a1,a0
    mmio_w32(UART_MMIO_BASE + UART_TX, (uint32_t)(uint8_t)ch);
  102350:	0ff67613          	zext.b	a2,a2
    *(volatile uint32_t*)addr = v;
  102354:	00c7a023          	sw	a2,0(a5)
    while (*s) {
  102358:	0008c603          	lbu	a2,0(a7)
  10235c:	ff0510e3          	bne	a0,a6,10233c <sd_load_image+0x1584>
  102360:	00700793          	li	a5,7
  102364:	00a00513          	li	a0,10
  102368:	100005b7          	lui	a1,0x10000
  10236c:	00078613          	mv	a2,a5
        uint8_t n = (v >> (i * 4)) & 0xF;
  102370:	00279793          	slli	a5,a5,0x2
  102374:	00f757b3          	srl	a5,a4,a5
  102378:	00f7f793          	andi	a5,a5,15
        putchar(n < 10 ? '0' + n : 'A' + n - 10);
  10237c:	00a7e663          	bltu	a5,a0,102388 <sd_load_image+0x15d0>
  102380:	03778793          	addi	a5,a5,55
  102384:	0100006f          	j	102394 <sd_load_image+0x15dc>
  102388:	03078793          	addi	a5,a5,48
  10238c:	0080006f          	j	102394 <sd_load_image+0x15dc>
        __asm__ __volatile__("nop");
  102390:	00000013          	nop
    return *(volatile uint32_t*)addr;
  102394:	0085a803          	lw	a6,8(a1) # 10000008 <_stack_top+0xfef4a08>
    while (mmio_r32(UART_MMIO_BASE + UART_ST) & ST_TX_BUSY) {
  102398:	00187813          	andi	a6,a6,1
  10239c:	fe081ae3          	bnez	a6,102390 <sd_load_image+0x15d8>
    *(volatile uint32_t*)addr = v;
  1023a0:	00f5a023          	sw	a5,0(a1)
    for (int i = 7; i >= 0; i--) {
  1023a4:	fff60793          	addi	a5,a2,-1
  1023a8:	fc0612e3          	bnez	a2,10236c <sd_load_image+0x15b4>
  1023ac:	10000537          	lui	a0,0x10000
    return *(volatile uint32_t*)addr;
  1023b0:	00852583          	lw	a1,8(a0) # 10000008 <_stack_top+0xfef4a08>
    while (mmio_r32(UART_MMIO_BASE + UART_ST) & ST_TX_BUSY) {
  1023b4:	0015f593          	andi	a1,a1,1
  1023b8:	00058663          	beqz	a1,1023c4 <sd_load_image+0x160c>
        __asm__ __volatile__("nop");
  1023bc:	00000013          	nop
  1023c0:	ff1ff06f          	j	1023b0 <sd_load_image+0x15f8>
  1023c4:	00000513          	li	a0,0
  1023c8:	100005b7          	lui	a1,0x10000
  1023cc:	00a00613          	li	a2,10
    *(volatile uint32_t*)addr = v;
  1023d0:	00c5a023          	sw	a2,0(a1) # 10000000 <_stack_top+0xfef4a00>
  1023d4:	04c00793          	li	a5,76
  1023d8:	00103637          	lui	a2,0x103
  1023dc:	3a560613          	addi	a2,a2,933 # 1033a5 <__modsi3+0x95>
  1023e0:	01100813          	li	a6,17
  1023e4:	0080006f          	j	1023ec <sd_load_image+0x1634>
  1023e8:	00000013          	nop
    return *(volatile uint32_t*)addr;
  1023ec:	0085a883          	lw	a7,8(a1)
    while (mmio_r32(UART_MMIO_BASE + UART_ST) & ST_TX_BUSY) {
  1023f0:	0018f893          	andi	a7,a7,1
  1023f4:	fe089ae3          	bnez	a7,1023e8 <sd_load_image+0x1630>
        putchar(*s++);
  1023f8:	00150513          	addi	a0,a0,1
  1023fc:	00a608b3          	add	a7,a2,a0
    mmio_w32(UART_MMIO_BASE + UART_TX, (uint32_t)(uint8_t)ch);
  102400:	0ff7f793          	zext.b	a5,a5
    *(volatile uint32_t*)addr = v;
  102404:	00f5a023          	sw	a5,0(a1)
    while (*s) {
  102408:	0008c783          	lbu	a5,0(a7)
  10240c:	ff0510e3          	bne	a0,a6,1023ec <sd_load_image+0x1634>
  102410:	00700793          	li	a5,7
  102414:	00a00513          	li	a0,10
  102418:	100005b7          	lui	a1,0x10000
  10241c:	00078613          	mv	a2,a5
        uint8_t n = (v >> (i * 4)) & 0xF;
  102420:	00279793          	slli	a5,a5,0x2
  102424:	00f757b3          	srl	a5,a4,a5
  102428:	00f7f793          	andi	a5,a5,15
        putchar(n < 10 ? '0' + n : 'A' + n - 10);
  10242c:	00a7e663          	bltu	a5,a0,102438 <sd_load_image+0x1680>
  102430:	03778793          	addi	a5,a5,55
  102434:	0100006f          	j	102444 <sd_load_image+0x168c>
  102438:	03078793          	addi	a5,a5,48
  10243c:	0080006f          	j	102444 <sd_load_image+0x168c>
        __asm__ __volatile__("nop");
  102440:	00000013          	nop
    return *(volatile uint32_t*)addr;
  102444:	0085a803          	lw	a6,8(a1) # 10000008 <_stack_top+0xfef4a08>
    while (mmio_r32(UART_MMIO_BASE + UART_ST) & ST_TX_BUSY) {
  102448:	00187813          	andi	a6,a6,1
  10244c:	fe081ae3          	bnez	a6,102440 <sd_load_image+0x1688>
    *(volatile uint32_t*)addr = v;
  102450:	00f5a023          	sw	a5,0(a1)
    for (int i = 7; i >= 0; i--) {
  102454:	fff60793          	addi	a5,a2,-1
  102458:	fc0612e3          	bnez	a2,10241c <sd_load_image+0x1664>
  10245c:	10000537          	lui	a0,0x10000
    return *(volatile uint32_t*)addr;
  102460:	00852583          	lw	a1,8(a0) # 10000008 <_stack_top+0xfef4a08>
    while (mmio_r32(UART_MMIO_BASE + UART_ST) & ST_TX_BUSY) {
  102464:	0015f593          	andi	a1,a1,1
  102468:	00058663          	beqz	a1,102474 <sd_load_image+0x16bc>
        __asm__ __volatile__("nop");
  10246c:	00000013          	nop
  102470:	ff1ff06f          	j	102460 <sd_load_image+0x16a8>
  102474:	00a00593          	li	a1,10
    *(volatile uint32_t*)addr = v;
  102478:	00b52023          	sw	a1,0(a0)
  10247c:	01f69513          	slli	a0,a3,0x1f
  102480:	41f55513          	srai	a0,a0,0x1f
  102484:	24c12083          	lw	ra,588(sp)
  102488:	24812403          	lw	s0,584(sp)
  10248c:	24412483          	lw	s1,580(sp)
  102490:	24012903          	lw	s2,576(sp)
  102494:	23c12983          	lw	s3,572(sp)
  102498:	23812a03          	lw	s4,568(sp)
  10249c:	23412a83          	lw	s5,564(sp)
  1024a0:	23012b03          	lw	s6,560(sp)
  1024a4:	22c12b83          	lw	s7,556(sp)
  1024a8:	22812c03          	lw	s8,552(sp)
  1024ac:	22412c83          	lw	s9,548(sp)
  1024b0:	22012d03          	lw	s10,544(sp)
  1024b4:	21c12d83          	lw	s11,540(sp)
}
  1024b8:	25010113          	addi	sp,sp,592
  1024bc:	00008067          	ret

001024c0 <memcpy>:
#include "common.h"

void *memcpy(void *dst, const void *src, size_t n) {
    uint8_t *d = (uint8_t *) dst;
    const uint8_t *s = (const uint8_t *) src;
    while (n--)
  1024c0:	02060263          	beqz	a2,1024e4 <memcpy+0x24>
  1024c4:	00c50633          	add	a2,a0,a2
  1024c8:	00050693          	mv	a3,a0
        *d++ = *s++;
  1024cc:	0005c703          	lbu	a4,0(a1)
  1024d0:	00158593          	addi	a1,a1,1
  1024d4:	00168793          	addi	a5,a3,1
  1024d8:	00e68023          	sb	a4,0(a3)
  1024dc:	00078693          	mv	a3,a5
    while (n--)
  1024e0:	fec796e3          	bne	a5,a2,1024cc <memcpy+0xc>
    return dst;
  1024e4:	00008067          	ret

001024e8 <memset>:
}
*/

void *memset(void *buf, char c, size_t n) {
    uint8_t *p = (uint8_t *) buf;
    while (n--)
  1024e8:	00060e63          	beqz	a2,102504 <memset+0x1c>
  1024ec:	00c50633          	add	a2,a0,a2
  1024f0:	00050693          	mv	a3,a0
        *p++ = c;
  1024f4:	00168713          	addi	a4,a3,1
  1024f8:	00b68023          	sb	a1,0(a3)
  1024fc:	00070693          	mv	a3,a4
    while (n--)
  102500:	fec71ae3          	bne	a4,a2,1024f4 <memset+0xc>
    return buf;
  102504:	00008067          	ret

00102508 <s_print_int>:
    *rem = r;
    return q;
}

void s_print_int(int v)
{
  102508:	fe010113          	addi	sp,sp,-32
  10250c:	00112e23          	sw	ra,28(sp)
  102510:	00812c23          	sw	s0,24(sp)
  102514:	00912a23          	sw	s1,20(sp)
  102518:	01212823          	sw	s2,16(sp)
    uint32_t u;
    char buf[10];
    int idx = 0;

    if (v < 0) {
  10251c:	02054463          	bltz	a0,102544 <s_print_int+0x3c>
        u = (uint32_t)(-(v + 1)) + 1u;
    } else {
        u = (uint32_t)v;
    }

    if (u == 0) {
  102520:	02051e63          	bnez	a0,10255c <s_print_int+0x54>
        uart_putchar('0');
  102524:	03000513          	li	a0,48
  102528:	01c12083          	lw	ra,28(sp)
  10252c:	01812403          	lw	s0,24(sp)
  102530:	01412483          	lw	s1,20(sp)
  102534:	01012903          	lw	s2,16(sp)
  102538:	02010113          	addi	sp,sp,32
  10253c:	ffffe317          	auipc	t1,0xffffe
  102540:	af830067          	jr	-1288(t1) # 100034 <uart_putchar>
  102544:	00050413          	mv	s0,a0
        uart_putchar('-');
  102548:	02d00513          	li	a0,45
  10254c:	ffffe097          	auipc	ra,0xffffe
  102550:	ae8080e7          	jalr	-1304(ra) # 100034 <uart_putchar>
  102554:	00040513          	mv	a0,s0
        u = (uint32_t)(-(v + 1)) + 1u;
  102558:	40800533          	neg	a0,s0
  10255c:	00000793          	li	a5,0
  102560:	00100593          	li	a1,1
  102564:	fff00613          	li	a2,-1
  102568:	00610693          	addi	a3,sp,6
  10256c:	00000813          	li	a6,0
  102570:	00000713          	li	a4,0
  102574:	00078413          	mv	s0,a5
  102578:	01f00793          	li	a5,31
        r = (r << 1) | ((u >> i) & 1u);
  10257c:	00181813          	slli	a6,a6,0x1
  102580:	00f558b3          	srl	a7,a0,a5
  102584:	0018f893          	andi	a7,a7,1
  102588:	0108e833          	or	a6,a7,a6
        if (r >= 10u) {
  10258c:	00a83893          	sltiu	a7,a6,10
  102590:	00f592b3          	sll	t0,a1,a5
  102594:	fff88893          	addi	a7,a7,-1
  102598:	0058f2b3          	and	t0,a7,t0
  10259c:	00e2e733          	or	a4,t0,a4
  1025a0:	ff68f893          	andi	a7,a7,-10
    for (int i = 31; i >= 0; --i) {
  1025a4:	fff78793          	addi	a5,a5,-1
        if (r >= 10u) {
  1025a8:	01180833          	add	a6,a6,a7
    for (int i = 31; i >= 0; --i) {
  1025ac:	fcc798e3          	bne	a5,a2,10257c <s_print_int+0x74>
    }

    while (u != 0) {
        uint32_t rem;
        u = divmod10(u, &rem);
        buf[idx++] = (char)('0' + rem);
  1025b0:	03080513          	addi	a0,a6,48
  1025b4:	00140793          	addi	a5,s0,1
  1025b8:	00868833          	add	a6,a3,s0
  1025bc:	00a80023          	sb	a0,0(a6)
  1025c0:	00070513          	mv	a0,a4
    while (u != 0) {
  1025c4:	fa0714e3          	bnez	a4,10256c <s_print_int+0x64>
  1025c8:	00610493          	addi	s1,sp,6
  1025cc:	00100913          	li	s2,1
    }

    while (idx > 0) {
        uart_putchar(buf[--idx]);
  1025d0:	00848533          	add	a0,s1,s0
  1025d4:	00054503          	lbu	a0,0(a0)
  1025d8:	ffffe097          	auipc	ra,0xffffe
  1025dc:	a5c080e7          	jalr	-1444(ra) # 100034 <uart_putchar>
    while (idx > 0) {
  1025e0:	00140513          	addi	a0,s0,1
  1025e4:	fff40413          	addi	s0,s0,-1
  1025e8:	fea944e3          	blt	s2,a0,1025d0 <s_print_int+0xc8>
  1025ec:	01c12083          	lw	ra,28(sp)
  1025f0:	01812403          	lw	s0,24(sp)
  1025f4:	01412483          	lw	s1,20(sp)
  1025f8:	01012903          	lw	s2,16(sp)
    }
}
  1025fc:	02010113          	addi	sp,sp,32
  102600:	00008067          	ret

00102604 <s_printf>:

void s_printf(const char *fmt, ...) {
  102604:	f9010113          	addi	sp,sp,-112
  102608:	04112623          	sw	ra,76(sp)
  10260c:	04812423          	sw	s0,72(sp)
  102610:	04912223          	sw	s1,68(sp)
  102614:	05212023          	sw	s2,64(sp)
  102618:	03312e23          	sw	s3,60(sp)
  10261c:	03412c23          	sw	s4,56(sp)
  102620:	03512a23          	sw	s5,52(sp)
  102624:	03612823          	sw	s6,48(sp)
  102628:	03712623          	sw	s7,44(sp)
  10262c:	03812423          	sw	s8,40(sp)
  102630:	03912223          	sw	s9,36(sp)
  102634:	03a12023          	sw	s10,32(sp)
  102638:	01b12e23          	sw	s11,28(sp)
  10263c:	00050413          	mv	s0,a0
  102640:	07112623          	sw	a7,108(sp)
  102644:	07012423          	sw	a6,104(sp)
  102648:	06f12223          	sw	a5,100(sp)
  10264c:	06e12023          	sw	a4,96(sp)
  102650:	04d12e23          	sw	a3,92(sp)
  102654:	04c12c23          	sw	a2,88(sp)
  102658:	04b12a23          	sw	a1,84(sp)
  10265c:	05410513          	addi	a0,sp,84
    va_list vargs;
    va_start(vargs, fmt);
  102660:	00a12c23          	sw	a0,24(sp)
  102664:	02500913          	li	s2,37
  102668:	07200993          	li	s3,114
  10266c:	06400493          	li	s1,100
  102670:	00d10a93          	addi	s5,sp,13
  102674:	00900b13          	li	s6,9
  102678:	00100b93          	li	s7,1
  10267c:	07300c13          	li	s8,115
  102680:	07800c93          	li	s9,120
  102684:	00103537          	lui	a0,0x103
  102688:	5a450d13          	addi	s10,a0,1444 # 1035a4 <print_hex8.HEX>
  10268c:	00c0006f          	j	102698 <s_printf+0x94>

    while (*fmt) {
        if (*fmt == '%') {
            fmt++;
            switch (*fmt) {
  102690:	20050263          	beqz	a0,102894 <s_printf+0x290>
            }
        } else {
            uart_putchar(*fmt);
        }

        fmt++;
  102694:	001d8413          	addi	s0,s11,1
    while (*fmt) {
  102698:	00044503          	lbu	a0,0(s0)
  10269c:	01250e63          	beq	a0,s2,1026b8 <s_printf+0xb4>
  1026a0:	20050063          	beqz	a0,1028a0 <s_printf+0x29c>
            uart_putchar(*fmt);
  1026a4:	ffffe097          	auipc	ra,0xffffe
  1026a8:	990080e7          	jalr	-1648(ra) # 100034 <uart_putchar>
  1026ac:	00040d93          	mv	s11,s0
        fmt++;
  1026b0:	00140413          	addi	s0,s0,1
  1026b4:	fe5ff06f          	j	102698 <s_printf+0x94>
            switch (*fmt) {
  1026b8:	00144503          	lbu	a0,1(s0)
            fmt++;
  1026bc:	00140d93          	addi	s11,s0,1
            switch (*fmt) {
  1026c0:	02a9cc63          	blt	s3,a0,1026f8 <s_printf+0xf4>
  1026c4:	11250663          	beq	a0,s2,1027d0 <s_printf+0x1cc>
  1026c8:	fc9514e3          	bne	a0,s1,102690 <s_printf+0x8c>
                    int value = va_arg(vargs, int);
  1026cc:	01812503          	lw	a0,24(sp)
  1026d0:	00450593          	addi	a1,a0,4
  1026d4:	00b12c23          	sw	a1,24(sp)
  1026d8:	00052403          	lw	s0,0(a0)
                    if (value < 0) {
  1026dc:	14044063          	bltz	s0,10281c <s_printf+0x218>
                    if (u == 0) {
  1026e0:	14041663          	bnez	s0,10282c <s_printf+0x228>
                        uart_putchar('0');
  1026e4:	03000513          	li	a0,48
  1026e8:	ffffe097          	auipc	ra,0xffffe
  1026ec:	94c080e7          	jalr	-1716(ra) # 100034 <uart_putchar>
        fmt++;
  1026f0:	001d8413          	addi	s0,s11,1
  1026f4:	fa5ff06f          	j	102698 <s_printf+0x94>
            switch (*fmt) {
  1026f8:	0f850663          	beq	a0,s8,1027e4 <s_printf+0x1e0>
  1026fc:	f9951ce3          	bne	a0,s9,102694 <s_printf+0x90>
                    unsigned value = va_arg(vargs, unsigned);
  102700:	01812503          	lw	a0,24(sp)
  102704:	00450593          	addi	a1,a0,4
  102708:	00b12c23          	sw	a1,24(sp)
  10270c:	00052403          	lw	s0,0(a0)
                        unsigned nibble = (value >> (i * 4)) & 0xf;
  102710:	01c45513          	srli	a0,s0,0x1c
                        uart_putchar("0123456789abcdef"[nibble]);
  102714:	00ad0533          	add	a0,s10,a0
  102718:	00054503          	lbu	a0,0(a0)
  10271c:	ffffe097          	auipc	ra,0xffffe
  102720:	918080e7          	jalr	-1768(ra) # 100034 <uart_putchar>
                        unsigned nibble = (value >> (i * 4)) & 0xf;
  102724:	00441513          	slli	a0,s0,0x4
  102728:	01c55513          	srli	a0,a0,0x1c
                        uart_putchar("0123456789abcdef"[nibble]);
  10272c:	00ad0533          	add	a0,s10,a0
  102730:	00054503          	lbu	a0,0(a0)
  102734:	ffffe097          	auipc	ra,0xffffe
  102738:	900080e7          	jalr	-1792(ra) # 100034 <uart_putchar>
                        unsigned nibble = (value >> (i * 4)) & 0xf;
  10273c:	00841513          	slli	a0,s0,0x8
  102740:	01c55513          	srli	a0,a0,0x1c
                        uart_putchar("0123456789abcdef"[nibble]);
  102744:	00ad0533          	add	a0,s10,a0
  102748:	00054503          	lbu	a0,0(a0)
  10274c:	ffffe097          	auipc	ra,0xffffe
  102750:	8e8080e7          	jalr	-1816(ra) # 100034 <uart_putchar>
                        unsigned nibble = (value >> (i * 4)) & 0xf;
  102754:	00c41513          	slli	a0,s0,0xc
  102758:	01c55513          	srli	a0,a0,0x1c
                        uart_putchar("0123456789abcdef"[nibble]);
  10275c:	00ad0533          	add	a0,s10,a0
  102760:	00054503          	lbu	a0,0(a0)
  102764:	ffffe097          	auipc	ra,0xffffe
  102768:	8d0080e7          	jalr	-1840(ra) # 100034 <uart_putchar>
                        unsigned nibble = (value >> (i * 4)) & 0xf;
  10276c:	01041513          	slli	a0,s0,0x10
  102770:	01c55513          	srli	a0,a0,0x1c
                        uart_putchar("0123456789abcdef"[nibble]);
  102774:	00ad0533          	add	a0,s10,a0
  102778:	00054503          	lbu	a0,0(a0)
  10277c:	ffffe097          	auipc	ra,0xffffe
  102780:	8b8080e7          	jalr	-1864(ra) # 100034 <uart_putchar>
                        unsigned nibble = (value >> (i * 4)) & 0xf;
  102784:	01441513          	slli	a0,s0,0x14
  102788:	01c55513          	srli	a0,a0,0x1c
                        uart_putchar("0123456789abcdef"[nibble]);
  10278c:	00ad0533          	add	a0,s10,a0
  102790:	00054503          	lbu	a0,0(a0)
  102794:	ffffe097          	auipc	ra,0xffffe
  102798:	8a0080e7          	jalr	-1888(ra) # 100034 <uart_putchar>
                        unsigned nibble = (value >> (i * 4)) & 0xf;
  10279c:	01841513          	slli	a0,s0,0x18
  1027a0:	01c55513          	srli	a0,a0,0x1c
                        uart_putchar("0123456789abcdef"[nibble]);
  1027a4:	00ad0533          	add	a0,s10,a0
  1027a8:	00054503          	lbu	a0,0(a0)
  1027ac:	ffffe097          	auipc	ra,0xffffe
  1027b0:	888080e7          	jalr	-1912(ra) # 100034 <uart_putchar>
                        unsigned nibble = (value >> (i * 4)) & 0xf;
  1027b4:	00f47413          	andi	s0,s0,15
                        uart_putchar("0123456789abcdef"[nibble]);
  1027b8:	008d0433          	add	s0,s10,s0
  1027bc:	00044503          	lbu	a0,0(s0)
  1027c0:	ffffe097          	auipc	ra,0xffffe
  1027c4:	874080e7          	jalr	-1932(ra) # 100034 <uart_putchar>
        fmt++;
  1027c8:	001d8413          	addi	s0,s11,1
  1027cc:	ecdff06f          	j	102698 <s_printf+0x94>
                    uart_putchar('%');
  1027d0:	02500513          	li	a0,37
  1027d4:	ffffe097          	auipc	ra,0xffffe
  1027d8:	860080e7          	jalr	-1952(ra) # 100034 <uart_putchar>
        fmt++;
  1027dc:	001d8413          	addi	s0,s11,1
  1027e0:	eb9ff06f          	j	102698 <s_printf+0x94>
                    const char *s = va_arg(vargs, const char *);
  1027e4:	01812503          	lw	a0,24(sp)
  1027e8:	00450593          	addi	a1,a0,4
  1027ec:	00b12c23          	sw	a1,24(sp)
  1027f0:	00052403          	lw	s0,0(a0)
                    while (*s) {
  1027f4:	00044503          	lbu	a0,0(s0)
  1027f8:	e8050ee3          	beqz	a0,102694 <s_printf+0x90>
  1027fc:	00140413          	addi	s0,s0,1
                        uart_putchar(*s);
  102800:	0ff57513          	zext.b	a0,a0
  102804:	ffffe097          	auipc	ra,0xffffe
  102808:	830080e7          	jalr	-2000(ra) # 100034 <uart_putchar>
                    while (*s) {
  10280c:	00044503          	lbu	a0,0(s0)
  102810:	00140413          	addi	s0,s0,1
  102814:	fe0516e3          	bnez	a0,102800 <s_printf+0x1fc>
  102818:	e7dff06f          	j	102694 <s_printf+0x90>
                        uart_putchar('-');
  10281c:	02d00513          	li	a0,45
  102820:	ffffe097          	auipc	ra,0xffffe
  102824:	814080e7          	jalr	-2028(ra) # 100034 <uart_putchar>
                        u = (unsigned int)(-(value + 1)) + 1;
  102828:	40800433          	neg	s0,s0
  10282c:	00000513          	li	a0,0
  102830:	00040493          	mv	s1,s0
  102834:	00050a13          	mv	s4,a0
                        u /= 10;
  102838:	00a00593          	li	a1,10
  10283c:	00040513          	mv	a0,s0
  102840:	00001097          	auipc	ra,0x1
  102844:	a80080e7          	jalr	-1408(ra) # 1032c0 <__hidden___udivsi3>
  102848:	00050413          	mv	s0,a0
  10284c:	00a00593          	li	a1,10
  102850:	00001097          	auipc	ra,0x1
  102854:	a54080e7          	jalr	-1452(ra) # 1032a4 <__mulsi3>
  102858:	40a48533          	sub	a0,s1,a0
                        buf[i++] = '0' + (u % 10);
  10285c:	03056593          	ori	a1,a0,48
  102860:	001a0513          	addi	a0,s4,1
  102864:	014a8633          	add	a2,s5,s4
  102868:	00b60023          	sb	a1,0(a2)
                    while (u > 0) {
  10286c:	fc9b62e3          	bltu	s6,s1,102830 <s_printf+0x22c>
  102870:	06400493          	li	s1,100
                        uart_putchar(buf[--i]);
  102874:	014a8533          	add	a0,s5,s4
  102878:	00054503          	lbu	a0,0(a0)
  10287c:	ffffd097          	auipc	ra,0xffffd
  102880:	7b8080e7          	jalr	1976(ra) # 100034 <uart_putchar>
                    while (i > 0) {
  102884:	001a0513          	addi	a0,s4,1
  102888:	fffa0a13          	addi	s4,s4,-1
  10288c:	feabc4e3          	blt	s7,a0,102874 <s_printf+0x270>
  102890:	e05ff06f          	j	102694 <s_printf+0x90>
                    uart_putchar('%');
  102894:	02500513          	li	a0,37
  102898:	ffffd097          	auipc	ra,0xffffd
  10289c:	79c080e7          	jalr	1948(ra) # 100034 <uart_putchar>
  1028a0:	04c12083          	lw	ra,76(sp)
  1028a4:	04812403          	lw	s0,72(sp)
  1028a8:	04412483          	lw	s1,68(sp)
  1028ac:	04012903          	lw	s2,64(sp)
  1028b0:	03c12983          	lw	s3,60(sp)
  1028b4:	03812a03          	lw	s4,56(sp)
  1028b8:	03412a83          	lw	s5,52(sp)
  1028bc:	03012b03          	lw	s6,48(sp)
  1028c0:	02c12b83          	lw	s7,44(sp)
  1028c4:	02812c03          	lw	s8,40(sp)
  1028c8:	02412c83          	lw	s9,36(sp)
  1028cc:	02012d03          	lw	s10,32(sp)
  1028d0:	01c12d83          	lw	s11,28(sp)
    }

end:
    va_end(vargs);
}
  1028d4:	07010113          	addi	sp,sp,112
  1028d8:	00008067          	ret

001028dc <parse_hex>:
/* 簡易16進パーサ（"  0x1234" / "1234" 形式どちらも可） */
int parse_hex(const char *s, uintptr_t *out) {
    uintptr_t v = 0;

    /* skip leading spaces */
    while (*s == ' ' || *s == '\t') s++;
  1028dc:	00250613          	addi	a2,a0,2
  1028e0:	00900693          	li	a3,9
  1028e4:	02000713          	li	a4,32
  1028e8:	0080006f          	j	1028f0 <parse_hex+0x14>
  1028ec:	00160613          	addi	a2,a2,1
  1028f0:	ffe64503          	lbu	a0,-2(a2)
  1028f4:	fed50ce3          	beq	a0,a3,1028ec <parse_hex+0x10>
  1028f8:	fee50ae3          	beq	a0,a4,1028ec <parse_hex+0x10>
  1028fc:	03000693          	li	a3,48
  102900:	02d51063          	bne	a0,a3,102920 <parse_hex+0x44>

    /* optional 0x / 0X */
    if (s[0] == '0' && (s[1] == 'x' || s[1] == 'X')) s += 2;
  102904:	fff64503          	lbu	a0,-1(a2)
  102908:	02056513          	ori	a0,a0,32
  10290c:	07800693          	li	a3,120
  102910:	02d51063          	bne	a0,a3,102930 <parse_hex+0x54>
    if (!*s) return -1;
  102914:	00064503          	lbu	a0,0(a2)
  102918:	02051063          	bnez	a0,102938 <parse_hex+0x5c>
  10291c:	00c0006f          	j	102928 <parse_hex+0x4c>
  102920:	ffe60613          	addi	a2,a2,-2
  102924:	00051a63          	bnez	a0,102938 <parse_hex+0x5c>
  102928:	fff00513          	li	a0,-1
        else break;
        v = (v << 4) | d;
    }
    *out = v;
    return 0;
}
  10292c:	00008067          	ret
  102930:	ffe60613          	addi	a2,a2,-2
  102934:	03000513          	li	a0,48
  102938:	00000693          	li	a3,0
        if (c >= '0' && c <= '9') d = (uint32_t)(c - '0');
  10293c:	00160613          	addi	a2,a2,1
  102940:	00a00713          	li	a4,10
  102944:	00600793          	li	a5,6
  102948:	00500813          	li	a6,5
  10294c:	0200006f          	j	10296c <parse_hex+0x90>
  102950:	0ff57293          	zext.b	t0,a0
    while (*s) {
  102954:	00064503          	lbu	a0,0(a2)
  102958:	005888b3          	add	a7,a7,t0
        v = (v << 4) | d;
  10295c:	00469693          	slli	a3,a3,0x4
  102960:	00d8e6b3          	or	a3,a7,a3
    while (*s) {
  102964:	00160613          	addi	a2,a2,1
  102968:	02050a63          	beqz	a0,10299c <parse_hex+0xc0>
        if (c >= '0' && c <= '9') d = (uint32_t)(c - '0');
  10296c:	fd050893          	addi	a7,a0,-48
  102970:	0ff8f293          	zext.b	t0,a7
  102974:	fd000893          	li	a7,-48
  102978:	fce2ece3          	bltu	t0,a4,102950 <parse_hex+0x74>
        else if (c >= 'a' && c <= 'f') d = 10u + (uint32_t)(c - 'a');
  10297c:	f9f50893          	addi	a7,a0,-97
  102980:	0ff8f293          	zext.b	t0,a7
  102984:	fa900893          	li	a7,-87
  102988:	fcf2e4e3          	bltu	t0,a5,102950 <parse_hex+0x74>
        else if (c >= 'A' && c <= 'F') d = 10u + (uint32_t)(c - 'A');
  10298c:	fbf50893          	addi	a7,a0,-65
  102990:	0ff8f293          	zext.b	t0,a7
  102994:	fc900893          	li	a7,-55
  102998:	fa587ce3          	bgeu	a6,t0,102950 <parse_hex+0x74>
  10299c:	00000513          	li	a0,0
    *out = v;
  1029a0:	00d5a023          	sw	a3,0(a1)
}
  1029a4:	00008067          	ret

001029a8 <hexdump>:
/* 汎用hexdump本体：
 *  - addr: 先頭アドレス（今のページテーブルで有効な仮想アドレス）
 *  - len : ダンプ長
 *  - base_addr_label: 行頭に表示するベースアドレス（通常は addr と同じ）
 */
void hexdump(const void *addr, size_t len, uintptr_t base_addr_label) {
  1029a8:	fc010113          	addi	sp,sp,-64
  1029ac:	02112e23          	sw	ra,60(sp)
  1029b0:	02812c23          	sw	s0,56(sp)
  1029b4:	02912a23          	sw	s1,52(sp)
  1029b8:	03212823          	sw	s2,48(sp)
  1029bc:	03312623          	sw	s3,44(sp)
  1029c0:	03412423          	sw	s4,40(sp)
  1029c4:	03512223          	sw	s5,36(sp)
  1029c8:	03612023          	sw	s6,32(sp)
  1029cc:	01712e23          	sw	s7,28(sp)
  1029d0:	01812c23          	sw	s8,24(sp)
  1029d4:	01912a23          	sw	s9,20(sp)
  1029d8:	01a12823          	sw	s10,16(sp)
  1029dc:	01b12623          	sw	s11,12(sp)
  1029e0:	00c12423          	sw	a2,8(sp)
    const uint8_t *p = (const uint8_t *)addr;
    size_t off = 0;

    while (off < len) {
  1029e4:	20058463          	beqz	a1,102bec <hexdump+0x244>
  1029e8:	00058493          	mv	s1,a1
  1029ec:	00050913          	mv	s2,a0
  1029f0:	00000a93          	li	s5,0
  1029f4:	00103537          	lui	a0,0x103
  1029f8:	5a450b13          	addi	s6,a0,1444 # 1035a4 <print_hex8.HEX>
  1029fc:	00103537          	lui	a0,0x103
  102a00:	5df50993          	addi	s3,a0,1503 # 1035df <$d.1>
  102a04:	00700b93          	li	s7,7
  102a08:	01000c13          	li	s8,16
  102a0c:	05f00c93          	li	s9,95
  102a10:	0240006f          	j	102a34 <hexdump+0x8c>
        uart_putchar('|');
        for (size_t i = 0; i < line; i++) {
            uint8_t c = p[off + i];
            uart_putchar((c >= 0x20 && c <= 0x7e) ? (char)c : '.');
        }
        uart_putchar('|');
  102a14:	07c00513          	li	a0,124
  102a18:	ffffd097          	auipc	ra,0xffffd
  102a1c:	61c080e7          	jalr	1564(ra) # 100034 <uart_putchar>
        uart_putchar('\n');
  102a20:	00a00513          	li	a0,10
  102a24:	ffffd097          	auipc	ra,0xffffd
  102a28:	610080e7          	jalr	1552(ra) # 100034 <uart_putchar>

        off += line;
  102a2c:	015d0ab3          	add	s5,s10,s5
  102a30:	1a9afe63          	bgeu	s5,s1,102bec <hexdump+0x244>
  102a34:	00812a03          	lw	s4,8(sp)
        print_hex32((uint32_t)(base_addr_label + off));
  102a38:	014a8a33          	add	s4,s5,s4
        uint8_t nib = (v >> (i * 4)) & 0x0F;
  102a3c:	01ca5513          	srli	a0,s4,0x1c
        uart_putchar(HEX[nib]);
  102a40:	00ab0533          	add	a0,s6,a0
  102a44:	00054503          	lbu	a0,0(a0)
        size_t line = (len - off > 16) ? 16 : (len - off);
  102a48:	41548d33          	sub	s10,s1,s5
        uart_putchar(HEX[nib]);
  102a4c:	ffffd097          	auipc	ra,0xffffd
  102a50:	5e8080e7          	jalr	1512(ra) # 100034 <uart_putchar>
        uint8_t nib = (v >> (i * 4)) & 0x0F;
  102a54:	004a1513          	slli	a0,s4,0x4
  102a58:	01c55513          	srli	a0,a0,0x1c
        uart_putchar(HEX[nib]);
  102a5c:	00ab0533          	add	a0,s6,a0
  102a60:	00054503          	lbu	a0,0(a0)
  102a64:	ffffd097          	auipc	ra,0xffffd
  102a68:	5d0080e7          	jalr	1488(ra) # 100034 <uart_putchar>
        uint8_t nib = (v >> (i * 4)) & 0x0F;
  102a6c:	008a1513          	slli	a0,s4,0x8
  102a70:	01c55513          	srli	a0,a0,0x1c
        uart_putchar(HEX[nib]);
  102a74:	00ab0533          	add	a0,s6,a0
  102a78:	00054503          	lbu	a0,0(a0)
  102a7c:	ffffd097          	auipc	ra,0xffffd
  102a80:	5b8080e7          	jalr	1464(ra) # 100034 <uart_putchar>
        uint8_t nib = (v >> (i * 4)) & 0x0F;
  102a84:	00ca1513          	slli	a0,s4,0xc
  102a88:	01c55513          	srli	a0,a0,0x1c
        uart_putchar(HEX[nib]);
  102a8c:	00ab0533          	add	a0,s6,a0
  102a90:	00054503          	lbu	a0,0(a0)
  102a94:	ffffd097          	auipc	ra,0xffffd
  102a98:	5a0080e7          	jalr	1440(ra) # 100034 <uart_putchar>
        uint8_t nib = (v >> (i * 4)) & 0x0F;
  102a9c:	010a1513          	slli	a0,s4,0x10
  102aa0:	01c55513          	srli	a0,a0,0x1c
        uart_putchar(HEX[nib]);
  102aa4:	00ab0533          	add	a0,s6,a0
  102aa8:	00054503          	lbu	a0,0(a0)
  102aac:	ffffd097          	auipc	ra,0xffffd
  102ab0:	588080e7          	jalr	1416(ra) # 100034 <uart_putchar>
        uint8_t nib = (v >> (i * 4)) & 0x0F;
  102ab4:	014a1513          	slli	a0,s4,0x14
  102ab8:	01c55513          	srli	a0,a0,0x1c
        uart_putchar(HEX[nib]);
  102abc:	00ab0533          	add	a0,s6,a0
  102ac0:	00054503          	lbu	a0,0(a0)
  102ac4:	ffffd097          	auipc	ra,0xffffd
  102ac8:	570080e7          	jalr	1392(ra) # 100034 <uart_putchar>
        uint8_t nib = (v >> (i * 4)) & 0x0F;
  102acc:	018a1513          	slli	a0,s4,0x18
  102ad0:	01c55513          	srli	a0,a0,0x1c
        uart_putchar(HEX[nib]);
  102ad4:	00ab0533          	add	a0,s6,a0
  102ad8:	00054503          	lbu	a0,0(a0)
  102adc:	ffffd097          	auipc	ra,0xffffd
  102ae0:	558080e7          	jalr	1368(ra) # 100034 <uart_putchar>
        uint8_t nib = (v >> (i * 4)) & 0x0F;
  102ae4:	00fa7513          	andi	a0,s4,15
        uart_putchar(HEX[nib]);
  102ae8:	00ab0533          	add	a0,s6,a0
  102aec:	00054503          	lbu	a0,0(a0)
  102af0:	ffffd097          	auipc	ra,0xffffd
  102af4:	544080e7          	jalr	1348(ra) # 100034 <uart_putchar>
        s_printf(": ");
  102af8:	00098513          	mv	a0,s3
  102afc:	00000097          	auipc	ra,0x0
  102b00:	b08080e7          	jalr	-1272(ra) # 102604 <s_printf>
  102b04:	00000413          	li	s0,0
  102b08:	01590db3          	add	s11,s2,s5
  102b0c:	00c0006f          	j	102b18 <hexdump+0x170>
        for (size_t i = 0; i < 16; i++) {
  102b10:	00140413          	addi	s0,s0,1
  102b14:	07840863          	beq	s0,s8,102b84 <hexdump+0x1dc>
  102b18:	03a47863          	bgeu	s0,s10,102b48 <hexdump+0x1a0>
                print_hex8(p[off + i]);
  102b1c:	008d8533          	add	a0,s11,s0
  102b20:	00054a03          	lbu	s4,0(a0)
  102b24:	004a5513          	srli	a0,s4,0x4
    uart_putchar(HEX[v >> 4]);
  102b28:	00ab0533          	add	a0,s6,a0
  102b2c:	00054503          	lbu	a0,0(a0)
  102b30:	ffffd097          	auipc	ra,0xffffd
  102b34:	504080e7          	jalr	1284(ra) # 100034 <uart_putchar>
    uart_putchar(HEX[v & 0x0F]);
  102b38:	00fa7513          	andi	a0,s4,15
  102b3c:	00ab0533          	add	a0,s6,a0
  102b40:	00054a03          	lbu	s4,0(a0)
  102b44:	0140006f          	j	102b58 <hexdump+0x1b0>
                uart_putchar(' ');
  102b48:	02000513          	li	a0,32
  102b4c:	02000a13          	li	s4,32
  102b50:	ffffd097          	auipc	ra,0xffffd
  102b54:	4e4080e7          	jalr	1252(ra) # 100034 <uart_putchar>
  102b58:	000a0513          	mv	a0,s4
  102b5c:	ffffd097          	auipc	ra,0xffffd
  102b60:	4d8080e7          	jalr	1240(ra) # 100034 <uart_putchar>
            uart_putchar(' ');
  102b64:	02000513          	li	a0,32
  102b68:	ffffd097          	auipc	ra,0xffffd
  102b6c:	4cc080e7          	jalr	1228(ra) # 100034 <uart_putchar>
            if (i == 7) uart_putchar(' '); /* 8バイト境界でスペース追加 */
  102b70:	fb7410e3          	bne	s0,s7,102b10 <hexdump+0x168>
  102b74:	02000513          	li	a0,32
  102b78:	ffffd097          	auipc	ra,0xffffd
  102b7c:	4bc080e7          	jalr	1212(ra) # 100034 <uart_putchar>
  102b80:	f91ff06f          	j	102b10 <hexdump+0x168>
  102b84:	01000513          	li	a0,16
        size_t line = (len - off > 16) ? 16 : (len - off);
  102b88:	00ad6463          	bltu	s10,a0,102b90 <hexdump+0x1e8>
  102b8c:	01000d13          	li	s10,16
        uart_putchar(' ');
  102b90:	02000513          	li	a0,32
  102b94:	ffffd097          	auipc	ra,0xffffd
  102b98:	4a0080e7          	jalr	1184(ra) # 100034 <uart_putchar>
        uart_putchar('|');
  102b9c:	07c00513          	li	a0,124
  102ba0:	ffffd097          	auipc	ra,0xffffd
  102ba4:	494080e7          	jalr	1172(ra) # 100034 <uart_putchar>
        for (size_t i = 0; i < line; i++) {
  102ba8:	e75486e3          	beq	s1,s5,102a14 <hexdump+0x6c>
  102bac:	001d3513          	seqz	a0,s10
  102bb0:	01aa85b3          	add	a1,s5,s10
  102bb4:	00a58533          	add	a0,a1,a0
  102bb8:	00a90433          	add	s0,s2,a0
  102bbc:	0180006f          	j	102bd4 <hexdump+0x22c>
            uart_putchar((c >= 0x20 && c <= 0x7e) ? (char)c : '.');
  102bc0:	0ff57513          	zext.b	a0,a0
  102bc4:	ffffd097          	auipc	ra,0xffffd
  102bc8:	470080e7          	jalr	1136(ra) # 100034 <uart_putchar>
        for (size_t i = 0; i < line; i++) {
  102bcc:	001d8d93          	addi	s11,s11,1
  102bd0:	e48d82e3          	beq	s11,s0,102a14 <hexdump+0x6c>
            uint8_t c = p[off + i];
  102bd4:	000dc503          	lbu	a0,0(s11)
            uart_putchar((c >= 0x20 && c <= 0x7e) ? (char)c : '.');
  102bd8:	fe050593          	addi	a1,a0,-32
  102bdc:	0ff5f593          	zext.b	a1,a1
  102be0:	ff95e0e3          	bltu	a1,s9,102bc0 <hexdump+0x218>
  102be4:	02e00513          	li	a0,46
  102be8:	fd9ff06f          	j	102bc0 <hexdump+0x218>
  102bec:	03c12083          	lw	ra,60(sp)
  102bf0:	03812403          	lw	s0,56(sp)
  102bf4:	03412483          	lw	s1,52(sp)
  102bf8:	03012903          	lw	s2,48(sp)
  102bfc:	02c12983          	lw	s3,44(sp)
  102c00:	02812a03          	lw	s4,40(sp)
  102c04:	02412a83          	lw	s5,36(sp)
  102c08:	02012b03          	lw	s6,32(sp)
  102c0c:	01c12b83          	lw	s7,28(sp)
  102c10:	01812c03          	lw	s8,24(sp)
  102c14:	01412c83          	lw	s9,20(sp)
  102c18:	01012d03          	lw	s10,16(sp)
  102c1c:	00c12d83          	lw	s11,12(sp)
    }
}
  102c20:	04010113          	addi	sp,sp,64
  102c24:	00008067          	ret

00102c28 <cmd_dump>:

void cmd_dump(int argc, const char **argv) {
  102c28:	ff010113          	addi	sp,sp,-16
  102c2c:	00112623          	sw	ra,12(sp)
  102c30:	00812423          	sw	s0,8(sp)
  102c34:	00000413          	li	s0,0
    const size_t    MAX_LEN      = 0x1000u;      /* 誤爆防止の上限 */

    uintptr_t addr = DEFAULT_BASE;
    size_t    len  = DEFAULT_LEN;

    if (argc >= 1 && argv && argv[0] && argv[0][0]) {
  102c38:	06a05463          	blez	a0,102ca0 <cmd_dump+0x78>
  102c3c:	06058263          	beqz	a1,102ca0 <cmd_dump+0x78>
  102c40:	0005a683          	lw	a3,0(a1)
  102c44:	04068c63          	beqz	a3,102c9c <cmd_dump+0x74>
  102c48:	0006c603          	lbu	a2,0(a3)
  102c4c:	04060863          	beqz	a2,102c9c <cmd_dump+0x74>
    while (*s == ' ' || *s == '\t') s++;
  102c50:	00268693          	addi	a3,a3,2
  102c54:	00900713          	li	a4,9
  102c58:	02000793          	li	a5,32
  102c5c:	00c0006f          	j	102c68 <cmd_dump+0x40>
  102c60:	fff6c603          	lbu	a2,-1(a3)
  102c64:	00168693          	addi	a3,a3,1
  102c68:	0ff67813          	zext.b	a6,a2
  102c6c:	fee80ae3          	beq	a6,a4,102c60 <cmd_dump+0x38>
  102c70:	fef808e3          	beq	a6,a5,102c60 <cmd_dump+0x38>
  102c74:	03000713          	li	a4,48
  102c78:	08e81a63          	bne	a6,a4,102d0c <cmd_dump+0xe4>
    if (s[0] == '0' && (s[1] == 'x' || s[1] == 'X')) s += 2;
  102c7c:	fff6c603          	lbu	a2,-1(a3)
  102c80:	02066613          	ori	a2,a2,32
  102c84:	07800713          	li	a4,120
  102c88:	0ce61263          	bne	a2,a4,102d4c <cmd_dump+0x124>
    if (!*s) return -1;
  102c8c:	0006c603          	lbu	a2,0(a3)
  102c90:	0ff67713          	zext.b	a4,a2
  102c94:	0c071063          	bnez	a4,102d54 <cmd_dump+0x12c>
  102c98:	0800006f          	j	102d18 <cmd_dump+0xf0>
  102c9c:	00000413          	li	s0,0
  102ca0:	00200693          	li	a3,2
  102ca4:	10000613          	li	a2,256
  102ca8:	1ad54863          	blt	a0,a3,102e58 <cmd_dump+0x230>
  102cac:	1a058663          	beqz	a1,102e58 <cmd_dump+0x230>
            s_printf("usage: dmp [offset_hex] [len_hex]\n");
            return;
        }
        addr = DEFAULT_BASE + offset;
    }
    if (argc >= 2 && argv && argv[1] && argv[1][0]) {
  102cb0:	0045a583          	lw	a1,4(a1)
  102cb4:	1a058263          	beqz	a1,102e58 <cmd_dump+0x230>
  102cb8:	0005c503          	lbu	a0,0(a1)
  102cbc:	18050e63          	beqz	a0,102e58 <cmd_dump+0x230>
    while (*s == ' ' || *s == '\t') s++;
  102cc0:	00258593          	addi	a1,a1,2
  102cc4:	00900693          	li	a3,9
  102cc8:	02000713          	li	a4,32
  102ccc:	00c0006f          	j	102cd8 <cmd_dump+0xb0>
  102cd0:	fff5c503          	lbu	a0,-1(a1)
  102cd4:	00158593          	addi	a1,a1,1
  102cd8:	0ff57793          	zext.b	a5,a0
  102cdc:	fed78ae3          	beq	a5,a3,102cd0 <cmd_dump+0xa8>
  102ce0:	fee788e3          	beq	a5,a4,102cd0 <cmd_dump+0xa8>
  102ce4:	03000693          	li	a3,48
  102ce8:	02d79e63          	bne	a5,a3,102d24 <cmd_dump+0xfc>
    if (s[0] == '0' && (s[1] == 'x' || s[1] == 'X')) s += 2;
  102cec:	fff5c503          	lbu	a0,-1(a1)
  102cf0:	02056513          	ori	a0,a0,32
  102cf4:	07800693          	li	a3,120
  102cf8:	0cd51263          	bne	a0,a3,102dbc <cmd_dump+0x194>
    if (!*s) return -1;
  102cfc:	0005c503          	lbu	a0,0(a1)
  102d00:	0ff57693          	zext.b	a3,a0
  102d04:	0c069063          	bnez	a3,102dc4 <cmd_dump+0x19c>
  102d08:	0280006f          	j	102d30 <cmd_dump+0x108>
  102d0c:	ffe68693          	addi	a3,a3,-2
  102d10:	0ff67713          	zext.b	a4,a2
  102d14:	04071063          	bnez	a4,102d54 <cmd_dump+0x12c>
            s_printf("usage: dmp [offset_hex] [len_hex]\n");
  102d18:	00103537          	lui	a0,0x103
  102d1c:	54550513          	addi	a0,a0,1349 # 103545 <$d.1+0x142>
  102d20:	0180006f          	j	102d38 <cmd_dump+0x110>
    if (!*s) return -1;
  102d24:	ffe58593          	addi	a1,a1,-2
  102d28:	0ff57693          	zext.b	a3,a0
  102d2c:	08069c63          	bnez	a3,102dc4 <cmd_dump+0x19c>
        uintptr_t lhex = 0;
        if (parse_hex(argv[1], &lhex) != 0) {
            s_printf("usage: dump [offset_hex] [len_hex]\n");
  102d30:	00103537          	lui	a0,0x103
  102d34:	3b750513          	addi	a0,a0,951 # 1033b7 <__modsi3+0xa7>
  102d38:	00c12083          	lw	ra,12(sp)
  102d3c:	00812403          	lw	s0,8(sp)
  102d40:	01010113          	addi	sp,sp,16
  102d44:	00000317          	auipc	t1,0x0
  102d48:	8c030067          	jr	-1856(t1) # 102604 <s_printf>
  102d4c:	ffe68693          	addi	a3,a3,-2
  102d50:	03000613          	li	a2,48
  102d54:	00000413          	li	s0,0
        if (c >= '0' && c <= '9') d = (uint32_t)(c - '0');
  102d58:	00168693          	addi	a3,a3,1
  102d5c:	00a00713          	li	a4,10
  102d60:	00600793          	li	a5,6
  102d64:	00500813          	li	a6,5
  102d68:	0200006f          	j	102d88 <cmd_dump+0x160>
  102d6c:	0ff67293          	zext.b	t0,a2
    while (*s) {
  102d70:	0006c603          	lbu	a2,0(a3)
  102d74:	005888b3          	add	a7,a7,t0
        v = (v << 4) | d;
  102d78:	00441413          	slli	s0,s0,0x4
  102d7c:	0088e433          	or	s0,a7,s0
    while (*s) {
  102d80:	00168693          	addi	a3,a3,1
  102d84:	f0060ee3          	beqz	a2,102ca0 <cmd_dump+0x78>
        if (c >= '0' && c <= '9') d = (uint32_t)(c - '0');
  102d88:	fd060893          	addi	a7,a2,-48
  102d8c:	0ff8f293          	zext.b	t0,a7
  102d90:	fd000893          	li	a7,-48
  102d94:	fce2ece3          	bltu	t0,a4,102d6c <cmd_dump+0x144>
        else if (c >= 'a' && c <= 'f') d = 10u + (uint32_t)(c - 'a');
  102d98:	f9f60893          	addi	a7,a2,-97
  102d9c:	0ff8f293          	zext.b	t0,a7
  102da0:	fa900893          	li	a7,-87
  102da4:	fcf2e4e3          	bltu	t0,a5,102d6c <cmd_dump+0x144>
        else if (c >= 'A' && c <= 'F') d = 10u + (uint32_t)(c - 'A');
  102da8:	fbf60893          	addi	a7,a2,-65
  102dac:	0ff8f293          	zext.b	t0,a7
  102db0:	fc900893          	li	a7,-55
  102db4:	fa587ce3          	bgeu	a6,t0,102d6c <cmd_dump+0x144>
  102db8:	ee9ff06f          	j	102ca0 <cmd_dump+0x78>
  102dbc:	ffe58593          	addi	a1,a1,-2
  102dc0:	03000513          	li	a0,48
  102dc4:	00000693          	li	a3,0
        if (c >= '0' && c <= '9') d = (uint32_t)(c - '0');
  102dc8:	00158593          	addi	a1,a1,1
  102dcc:	00a00713          	li	a4,10
  102dd0:	00600793          	li	a5,6
  102dd4:	00500813          	li	a6,5
  102dd8:	0200006f          	j	102df8 <cmd_dump+0x1d0>
  102ddc:	0ff57293          	zext.b	t0,a0
    while (*s) {
  102de0:	0005c503          	lbu	a0,0(a1)
  102de4:	005888b3          	add	a7,a7,t0
        v = (v << 4) | d;
  102de8:	00469693          	slli	a3,a3,0x4
  102dec:	00d8e6b3          	or	a3,a7,a3
    while (*s) {
  102df0:	00158593          	addi	a1,a1,1
  102df4:	02050a63          	beqz	a0,102e28 <cmd_dump+0x200>
        if (c >= '0' && c <= '9') d = (uint32_t)(c - '0');
  102df8:	fd050893          	addi	a7,a0,-48
  102dfc:	0ff8f293          	zext.b	t0,a7
  102e00:	fd000893          	li	a7,-48
  102e04:	fce2ece3          	bltu	t0,a4,102ddc <cmd_dump+0x1b4>
        else if (c >= 'a' && c <= 'f') d = 10u + (uint32_t)(c - 'a');
  102e08:	f9f50893          	addi	a7,a0,-97
  102e0c:	0ff8f293          	zext.b	t0,a7
  102e10:	fa900893          	li	a7,-87
  102e14:	fcf2e4e3          	bltu	t0,a5,102ddc <cmd_dump+0x1b4>
        else if (c >= 'A' && c <= 'F') d = 10u + (uint32_t)(c - 'A');
  102e18:	fbf50893          	addi	a7,a0,-65
  102e1c:	0ff8f293          	zext.b	t0,a7
  102e20:	fc900893          	li	a7,-55
  102e24:	fa587ce3          	bgeu	a6,t0,102ddc <cmd_dump+0x1b4>
            return;
        }
        len = (size_t)lhex;
    }

    if (len == 0) {
  102e28:	02068863          	beqz	a3,102e58 <cmd_dump+0x230>
  102e2c:	00001537          	lui	a0,0x1
  102e30:	00150513          	addi	a0,a0,1 # 1001 <$d.5+0x149>
  102e34:	00068613          	mv	a2,a3
        len = DEFAULT_LEN;
    } else if (len > MAX_LEN) {
  102e38:	02a6e063          	bltu	a3,a0,102e58 <cmd_dump+0x230>
        s_printf("[info] len too big (>0x%X), round down to 0x%X\n",
  102e3c:	00103537          	lui	a0,0x103
  102e40:	4d850513          	addi	a0,a0,1240 # 1034d8 <$d.1+0xd5>
  102e44:	000015b7          	lui	a1,0x1
  102e48:	00001637          	lui	a2,0x1
  102e4c:	fffff097          	auipc	ra,0xfffff
  102e50:	7b8080e7          	jalr	1976(ra) # 102604 <s_printf>
  102e54:	00001637          	lui	a2,0x1
               (unsigned)MAX_LEN, (unsigned)MAX_LEN);
        len = MAX_LEN;
    }

    hexdump((const void *)addr, len, addr);
  102e58:	00040513          	mv	a0,s0
  102e5c:	00060593          	mv	a1,a2
  102e60:	00040613          	mv	a2,s0
  102e64:	00c12083          	lw	ra,12(sp)
  102e68:	00812403          	lw	s0,8(sp)
  102e6c:	01010113          	addi	sp,sp,16
  102e70:	00000317          	auipc	t1,0x0
  102e74:	b3830067          	jr	-1224(t1) # 1029a8 <hexdump>

00102e78 <sd_read_sector>:
}

// -------------------------------------------------------
int sd_read_sector(uint32_t sector, uint8_t *buf)
{
    return sd_read_once(sector, buf);
  102e78:	00000317          	auipc	t1,0x0
  102e7c:	00830067          	jr	8(t1) # 102e80 <sd_read_once>

00102e80 <sd_read_once>:
{
  102e80:	10006637          	lui	a2,0x10006
  102e84:	00400693          	li	a3,4
    PSC_SD_IF_CTRL = 0x04;
  102e88:	00d62423          	sw	a3,8(a2) # 10006008 <_stack_top+0xfefaa08>
  102e8c:	f9c00613          	li	a2,-100
    while (n--) {
  102e90:	00160613          	addi	a2,a2,1
        __asm__ __volatile__("nop");
  102e94:	00000013          	nop
    while (n--) {
  102e98:	fe061ce3          	bnez	a2,102e90 <sd_read_once+0x10>
  102e9c:	10006637          	lui	a2,0x10006
    if ((PSC_SD_IF_CTRL & 0x04) == 0x00) {
  102ea0:	00862683          	lw	a3,8(a2) # 10006008 <_stack_top+0xfefaa08>
  102ea4:	0046f693          	andi	a3,a3,4
  102ea8:	00069663          	bnez	a3,102eb4 <sd_read_once+0x34>
  102eac:	00100693          	li	a3,1
        PSC_SD_IF_CTRL = 0x01;
  102eb0:	00d62423          	sw	a3,8(a2)
  102eb4:	ffff46b7          	lui	a3,0xffff4
  102eb8:	cb068693          	addi	a3,a3,-848 # ffff3cb0 <_stack_top+0xffee86b0>
    while (PSC_SD_IF_CTRL & 0x02) {
  102ebc:	00862703          	lw	a4,8(a2)
  102ec0:	00277713          	andi	a4,a4,2
  102ec4:	00070a63          	beqz	a4,102ed8 <sd_read_once+0x58>
        if (--timeout == 0) return -1;
  102ec8:	00168693          	addi	a3,a3,1
  102ecc:	fe0698e3          	bnez	a3,102ebc <sd_read_once+0x3c>
  102ed0:	fff00513          	li	a0,-1
}
  102ed4:	00008067          	ret
  102ed8:	f9c00613          	li	a2,-100
    while (n--) {
  102edc:	00160613          	addi	a2,a2,1
        __asm__ __volatile__("nop");
  102ee0:	00000013          	nop
  102ee4:	fe061ce3          	bnez	a2,102edc <sd_read_once+0x5c>
  102ee8:	10006637          	lui	a2,0x10006
    PSC_SD_SECTOR = sd_sector_address;
  102eec:	00a62223          	sw	a0,4(a2) # 10006004 <_stack_top+0xfefaa04>
  102ef0:	00200513          	li	a0,2
    PSC_SD_IF_CTRL = 0x02;
  102ef4:	00a62423          	sw	a0,8(a2)
  102ef8:	f9c00513          	li	a0,-100
    while (n--) {
  102efc:	00150513          	addi	a0,a0,1
        __asm__ __volatile__("nop");
  102f00:	00000013          	nop
  102f04:	fe051ce3          	bnez	a0,102efc <sd_read_once+0x7c>
  102f08:	ffff4537          	lui	a0,0xffff4
  102f0c:	cb050513          	addi	a0,a0,-848 # ffff3cb0 <_stack_top+0xffee86b0>
  102f10:	10006637          	lui	a2,0x10006
    while ((PSC_SD_IF_CTRL & 0x04) == 0) {
  102f14:	00862683          	lw	a3,8(a2) # 10006008 <_stack_top+0xfefaa08>
  102f18:	0046f693          	andi	a3,a3,4
  102f1c:	00069a63          	bnez	a3,102f30 <sd_read_once+0xb0>
        if (--timeout == 0) return -2;
  102f20:	00150513          	addi	a0,a0,1
  102f24:	fe0518e3          	bnez	a0,102f14 <sd_read_once+0x94>
  102f28:	ffe00513          	li	a0,-2
}
  102f2c:	00008067          	ret
  102f30:	00000613          	li	a2,0
        __asm__ __volatile__("nop");
  102f34:	00000013          	nop
  102f38:	00000013          	nop
  102f3c:	00000013          	nop
  102f40:	00000013          	nop
  102f44:	00000013          	nop
  102f48:	00000013          	nop
  102f4c:	00000013          	nop
  102f50:	00000013          	nop
  102f54:	00000013          	nop
  102f58:	00000013          	nop
  102f5c:	00000013          	nop
  102f60:	00000013          	nop
  102f64:	00000013          	nop
  102f68:	00000013          	nop
  102f6c:	00000013          	nop
  102f70:	00000013          	nop
  102f74:	00000013          	nop
  102f78:	00000013          	nop
  102f7c:	00000013          	nop
  102f80:	00000013          	nop
  102f84:	00000013          	nop
  102f88:	00000013          	nop
  102f8c:	00000013          	nop
  102f90:	00000013          	nop
  102f94:	00000013          	nop
  102f98:	00000013          	nop
  102f9c:	00000013          	nop
  102fa0:	00000013          	nop
  102fa4:	00000013          	nop
  102fa8:	00000013          	nop
  102fac:	00000013          	nop
  102fb0:	00000013          	nop
  102fb4:	00000013          	nop
  102fb8:	00000013          	nop
  102fbc:	00000013          	nop
  102fc0:	00000013          	nop
  102fc4:	00000013          	nop
  102fc8:	00000013          	nop
  102fcc:	00000013          	nop
  102fd0:	00000013          	nop
  102fd4:	00000013          	nop
  102fd8:	00000013          	nop
  102fdc:	00000013          	nop
  102fe0:	00000013          	nop
  102fe4:	00000013          	nop
  102fe8:	00000013          	nop
  102fec:	00000013          	nop
  102ff0:	00000013          	nop
  102ff4:	00000013          	nop
  102ff8:	00000013          	nop
  102ffc:	ffff4537          	lui	a0,0xffff4
  103000:	cb050693          	addi	a3,a0,-848 # ffff3cb0 <_stack_top+0xffee86b0>
  103004:	10006737          	lui	a4,0x10006
  103008:	20000793          	li	a5,512
  10300c:	00068513          	mv	a0,a3
        while (PSC_SD_IF_CTRL & (1 << 3)) {
  103010:	00872803          	lw	a6,8(a4) # 10006008 <_stack_top+0xfefaa08>
  103014:	00887813          	andi	a6,a6,8
  103018:	00080863          	beqz	a6,103028 <sd_read_once+0x1a8>
            if (--timeout == 0) return -3;
  10301c:	00150513          	addi	a0,a0,1
  103020:	fe0518e3          	bnez	a0,103010 <sd_read_once+0x190>
  103024:	0200006f          	j	103044 <sd_read_once+0x1c4>
        buf[i] = (unsigned char)(PSC_SD_ADDR & 0xFF);
  103028:	00072803          	lw	a6,0(a4)
  10302c:	00000513          	li	a0,0
  103030:	00c588b3          	add	a7,a1,a2
    for (int i = 0; i < 512; i++) {
  103034:	00160613          	addi	a2,a2,1
        buf[i] = (unsigned char)(PSC_SD_ADDR & 0xFF);
  103038:	01088023          	sb	a6,0(a7)
    for (int i = 0; i < 512; i++) {
  10303c:	fcf618e3          	bne	a2,a5,10300c <sd_read_once+0x18c>
}
  103040:	00008067          	ret
  103044:	ffd00513          	li	a0,-3
  103048:	00008067          	ret

0010304c <s_call_sdcard_read_api>:
}

// -------------------------------------------------------
// SDカードREAD実行関数
void s_call_sdcard_read_api(uint32_t sd_sector_address)
{
  10304c:	dd010113          	addi	sp,sp,-560
  103050:	22112623          	sw	ra,556(sp)
  103054:	22812423          	sw	s0,552(sp)
  103058:	22912223          	sw	s1,548(sp)
  10305c:	23212023          	sw	s2,544(sp)
  103060:	21312e23          	sw	s3,540(sp)
  103064:	21412c23          	sw	s4,536(sp)
  103068:	21512a23          	sw	s5,532(sp)
  10306c:	21612823          	sw	s6,528(sp)
  103070:	21712623          	sw	s7,524(sp)
  103074:	00050413          	mv	s0,a0
  103078:	00000493          	li	s1,0
  10307c:	00001537          	lui	a0,0x1
  103080:	02150a13          	addi	s4,a0,33 # 1021 <$d.5+0x169>
    unsigned char buf[512];

    int retry_max = 3;
    int success = 0;

    for (int retry = 0; retry < retry_max; retry++) {
  103084:	20c10a93          	addi	s5,sp,524
  103088:	10006b37          	lui	s6,0x10006
  10308c:	00103537          	lui	a0,0x103
  103090:	48850913          	addi	s2,a0,1160 # 103488 <$d.1+0x85>
  103094:	00300b93          	li	s7,3
  103098:	00103537          	lui	a0,0x103
  10309c:	40350993          	addi	s3,a0,1027 # 103403 <$d.1>
  1030a0:	01c0006f          	j	1030bc <s_call_sdcard_read_api+0x70>

        if (sd_read_once(sd_sector_address, buf) != 0) {
            s_printf("READ FAIL retry=%d\n", retry);
  1030a4:	00098513          	mv	a0,s3
  1030a8:	00048593          	mv	a1,s1
  1030ac:	fffff097          	auipc	ra,0xfffff
  1030b0:	558080e7          	jalr	1368(ra) # 102604 <s_printf>
    for (int retry = 0; retry < retry_max; retry++) {
  1030b4:	00148493          	addi	s1,s1,1
  1030b8:	13748063          	beq	s1,s7,1031d8 <s_call_sdcard_read_api+0x18c>
        if (sd_read_once(sd_sector_address, buf) != 0) {
  1030bc:	00c10593          	addi	a1,sp,12
  1030c0:	00040513          	mv	a0,s0
  1030c4:	00000097          	auipc	ra,0x0
  1030c8:	dbc080e7          	jalr	-580(ra) # 102e80 <sd_read_once>
  1030cc:	fc051ce3          	bnez	a0,1030a4 <s_call_sdcard_read_api+0x58>
            continue;
        }

        // CRC HW
        uint32_t ctrl = PSC_SD_IF_CTRL;
  1030d0:	008b2683          	lw	a3,8(s6) # 10006008 <_stack_top+0xfefaa08>
  1030d4:	00000593          	li	a1,0
  1030d8:	00c10513          	addi	a0,sp,12
        crc ^= (uint16_t)buf[i] << 8;
  1030dc:	00054603          	lbu	a2,0(a0)
  1030e0:	00861613          	slli	a2,a2,0x8
  1030e4:	00b645b3          	xor	a1,a2,a1
  1030e8:	01059613          	slli	a2,a1,0x10
  1030ec:	41065613          	srai	a2,a2,0x10
            crc = (crc & 0x8000) ? (crc << 1) ^ 0x1021 : (crc << 1);
  1030f0:	01159713          	slli	a4,a1,0x11
  1030f4:	41075713          	srai	a4,a4,0x10
  1030f8:	00159793          	slli	a5,a1,0x1
  1030fc:	00f65613          	srli	a2,a2,0xf
  103100:	01467633          	and	a2,a2,s4
  103104:	00c7c633          	xor	a2,a5,a2
  103108:	00161793          	slli	a5,a2,0x1
  10310c:	01259813          	slli	a6,a1,0x12
  103110:	41085813          	srai	a6,a6,0x10
  103114:	00f75713          	srli	a4,a4,0xf
  103118:	01477733          	and	a4,a4,s4
  10311c:	00e7c733          	xor	a4,a5,a4
  103120:	00171793          	slli	a5,a4,0x1
  103124:	01359593          	slli	a1,a1,0x13
  103128:	4105d593          	srai	a1,a1,0x10
  10312c:	00f85813          	srli	a6,a6,0xf
  103130:	01487833          	and	a6,a6,s4
  103134:	0107c7b3          	xor	a5,a5,a6
  103138:	01361613          	slli	a2,a2,0x13
  10313c:	41065613          	srai	a2,a2,0x10
  103140:	00179813          	slli	a6,a5,0x1
  103144:	00f5d593          	srli	a1,a1,0xf
  103148:	0145f5b3          	and	a1,a1,s4
  10314c:	00b845b3          	xor	a1,a6,a1
  103150:	01371713          	slli	a4,a4,0x13
  103154:	41075713          	srai	a4,a4,0x10
  103158:	00f65613          	srli	a2,a2,0xf
  10315c:	01467633          	and	a2,a2,s4
  103160:	00161613          	slli	a2,a2,0x1
  103164:	00259813          	slli	a6,a1,0x2
  103168:	01379793          	slli	a5,a5,0x13
  10316c:	4107d793          	srai	a5,a5,0x10
  103170:	00f75713          	srli	a4,a4,0xf
  103174:	01477733          	and	a4,a4,s4
  103178:	00e64633          	xor	a2,a2,a4
  10317c:	00c84633          	xor	a2,a6,a2
  103180:	01359593          	slli	a1,a1,0x13
  103184:	4105d593          	srai	a1,a1,0x10
  103188:	00f7d793          	srli	a5,a5,0xf
  10318c:	0147f733          	and	a4,a5,s4
  103190:	00261613          	slli	a2,a2,0x2
  103194:	00171713          	slli	a4,a4,0x1
  103198:	00e64633          	xor	a2,a2,a4
  10319c:	00f5d593          	srli	a1,a1,0xf
  1031a0:	0145f5b3          	and	a1,a1,s4
    for (int i = 0; i < 512; i++) {
  1031a4:	00150513          	addi	a0,a0,1
            crc = (crc & 0x8000) ? (crc << 1) ^ 0x1021 : (crc << 1);
  1031a8:	00b645b3          	xor	a1,a2,a1
    for (int i = 0; i < 512; i++) {
  1031ac:	f35518e3          	bne	a0,s5,1030dc <s_call_sdcard_read_api+0x90>
        uint16_t crc_hw = ((ctrl >> 24) & 0xFF) << 8 |
  1031b0:	0106d693          	srli	a3,a3,0x10
                          ((ctrl >> 16) & 0xFF);

        // CRC SW
        uint16_t crc = sd_crc16(buf);

        if (crc == crc_hw) {
  1031b4:	01059593          	slli	a1,a1,0x10
  1031b8:	0105d613          	srli	a2,a1,0x10
  1031bc:	02c68863          	beq	a3,a2,1031ec <s_call_sdcard_read_api+0x1a0>
            s_printf("CRC OK (retry=%d)\n", retry);
            success = 1;
            break;
        } else {
            s_printf("CRC NG retry=%d (calc=%x hw=%x)\n",
  1031c0:	00090513          	mv	a0,s2
  1031c4:	00048593          	mv	a1,s1
  1031c8:	fffff097          	auipc	ra,0xfffff
  1031cc:	43c080e7          	jalr	1084(ra) # 102604 <s_printf>
    for (int retry = 0; retry < retry_max; retry++) {
  1031d0:	00148493          	addi	s1,s1,1
  1031d4:	ef7494e3          	bne	s1,s7,1030bc <s_call_sdcard_read_api+0x70>
                     retry, crc, crc_hw);
        }
    }

    if (!success) {
        s_printf("CRC FAILED (final)\n");
  1031d8:	00103537          	lui	a0,0x103
  1031dc:	39150513          	addi	a0,a0,913 # 103391 <__modsi3+0x81>
  1031e0:	fffff097          	auipc	ra,0xfffff
  1031e4:	424080e7          	jalr	1060(ra) # 102604 <s_printf>
  1031e8:	0180006f          	j	103200 <s_call_sdcard_read_api+0x1b4>
            s_printf("CRC OK (retry=%d)\n", retry);
  1031ec:	00103537          	lui	a0,0x103
  1031f0:	44450513          	addi	a0,a0,1092 # 103444 <$d.1+0x41>
  1031f4:	00048593          	mv	a1,s1
  1031f8:	fffff097          	auipc	ra,0xfffff
  1031fc:	40c080e7          	jalr	1036(ra) # 102604 <s_printf>
  103200:	00000413          	li	s0,0
  103204:	00c10493          	addi	s1,sp,12
  103208:	00103537          	lui	a0,0x103
  10320c:	3db50913          	addi	s2,a0,987 # 1033db <__modsi3+0xcb>
  103210:	00f00993          	li	s3,15
  103214:	20000a13          	li	s4,512
  103218:	00c0006f          	j	103224 <s_call_sdcard_read_api+0x1d8>
    }

    // ---- dump（常に実行）----
    const char hex[] = "0123456789ABCDEF";

    for (int i = 0; i < 512; i++) {
  10321c:	00140413          	addi	s0,s0,1
  103220:	05440c63          	beq	s0,s4,103278 <s_call_sdcard_read_api+0x22c>
        unsigned char d = buf[i];
  103224:	00848533          	add	a0,s1,s0
  103228:	00054a83          	lbu	s5,0(a0)
  10322c:	004ad513          	srli	a0,s5,0x4
        putchar(hex[(d >> 4) & 0xF]);
  103230:	00a90533          	add	a0,s2,a0
  103234:	00054503          	lbu	a0,0(a0)
  103238:	ffffd097          	auipc	ra,0xffffd
  10323c:	ddc080e7          	jalr	-548(ra) # 100014 <putchar>
        putchar(hex[d & 0xF]);
  103240:	00faf513          	andi	a0,s5,15
  103244:	00a90533          	add	a0,s2,a0
  103248:	00054503          	lbu	a0,0(a0)
  10324c:	ffffd097          	auipc	ra,0xffffd
  103250:	dc8080e7          	jalr	-568(ra) # 100014 <putchar>
        putchar(' ');
  103254:	02000513          	li	a0,32
  103258:	ffffd097          	auipc	ra,0xffffd
  10325c:	dbc080e7          	jalr	-580(ra) # 100014 <putchar>
        if ((i & 15) == 15) putchar('\n');
  103260:	00f47513          	andi	a0,s0,15
  103264:	fb351ce3          	bne	a0,s3,10321c <s_call_sdcard_read_api+0x1d0>
  103268:	00a00513          	li	a0,10
  10326c:	ffffd097          	auipc	ra,0xffffd
  103270:	da8080e7          	jalr	-600(ra) # 100014 <putchar>
  103274:	fa9ff06f          	j	10321c <s_call_sdcard_read_api+0x1d0>
  103278:	22c12083          	lw	ra,556(sp)
  10327c:	22812403          	lw	s0,552(sp)
  103280:	22412483          	lw	s1,548(sp)
  103284:	22012903          	lw	s2,544(sp)
  103288:	21c12983          	lw	s3,540(sp)
  10328c:	21812a03          	lw	s4,536(sp)
  103290:	21412a83          	lw	s5,532(sp)
  103294:	21012b03          	lw	s6,528(sp)
  103298:	20c12b83          	lw	s7,524(sp)
    }
  10329c:	23010113          	addi	sp,sp,560
  1032a0:	00008067          	ret

001032a4 <__mulsi3>:
/* Our RV64 64-bit routine is equivalent to our RV32 32-bit routine.  */
# define __muldi3 __mulsi3
#endif

FUNC_BEGIN (__muldi3)
  mv     a2, a0
  1032a4:	862a                	mv	a2,a0
  li     a0, 0
  1032a6:	4501                	li	a0,0
.L1:
  andi   a3, a1, 1
  1032a8:	0015f693          	andi	a3,a1,1
  beqz   a3, .L2
  1032ac:	c291                	beqz	a3,1032b0 <__mulsi3+0xc>
  add    a0, a0, a2
  1032ae:	9532                	add	a0,a0,a2
.L2:
  srli   a1, a1, 1
  1032b0:	8185                	srli	a1,a1,0x1
  slli   a2, a2, 1
  1032b2:	0606                	slli	a2,a2,0x1
  bnez   a1, .L1
  1032b4:	f9f5                	bnez	a1,1032a8 <__mulsi3+0x4>
  ret
  1032b6:	8082                	ret

001032b8 <__divsi3>:
  li    t0, -1
  beq   a1, t0, .L20
#endif

FUNC_BEGIN (__divdi3)
  bltz  a0, .L10
  1032b8:	02054e63          	bltz	a0,1032f4 <__umodsi3+0x8>
  bltz  a1, .L11
  1032bc:	0405c363          	bltz	a1,103302 <__umodsi3+0x16>

001032c0 <__hidden___udivsi3>:
  /* Since the quotient is positive, fall into __udivdi3.  */

FUNC_BEGIN (__udivdi3)
  mv    a2, a1
  1032c0:	862e                	mv	a2,a1
  mv    a1, a0
  1032c2:	85aa                	mv	a1,a0
  li    a0, -1
  1032c4:	557d                	li	a0,-1
  beqz  a2, .L5
  1032c6:	c215                	beqz	a2,1032ea <__hidden___udivsi3+0x2a>
  li    a3, 1
  1032c8:	4685                	li	a3,1
  bgeu  a2, a1, .L2
  1032ca:	00b67863          	bgeu	a2,a1,1032da <__hidden___udivsi3+0x1a>
.L1:
  blez  a2, .L2
  1032ce:	00c05663          	blez	a2,1032da <__hidden___udivsi3+0x1a>
  slli  a2, a2, 1
  1032d2:	0606                	slli	a2,a2,0x1
  slli  a3, a3, 1
  1032d4:	0686                	slli	a3,a3,0x1
  bgtu  a1, a2, .L1
  1032d6:	feb66ce3          	bltu	a2,a1,1032ce <__hidden___udivsi3+0xe>
.L2:
  li    a0, 0
  1032da:	4501                	li	a0,0
.L3:
  bltu  a1, a2, .L4
  1032dc:	00c5e463          	bltu	a1,a2,1032e4 <__hidden___udivsi3+0x24>
  sub   a1, a1, a2
  1032e0:	8d91                	sub	a1,a1,a2
  or    a0, a0, a3
  1032e2:	8d55                	or	a0,a0,a3
.L4:
  srli  a3, a3, 1
  1032e4:	8285                	srli	a3,a3,0x1
  srli  a2, a2, 1
  1032e6:	8205                	srli	a2,a2,0x1
  bnez  a3, .L3
  1032e8:	faf5                	bnez	a3,1032dc <__hidden___udivsi3+0x1c>
.L5:
  ret
  1032ea:	8082                	ret

001032ec <__umodsi3>:
FUNC_END (__udivdi3)
HIDDEN_DEF (__udivdi3)

FUNC_BEGIN (__umoddi3)
  /* Call __udivdi3(a0, a1), then return the remainder, which is in a1.  */
  move  t0, ra
  1032ec:	8286                	mv	t0,ra
  jal   HIDDEN_JUMPTARGET(__udivdi3)
  1032ee:	3fc9                	jal	1032c0 <__hidden___udivsi3>
  move  a0, a1
  1032f0:	852e                	mv	a0,a1
  jr    t0
  1032f2:	8282                	jr	t0
FUNC_END (__umoddi3)

  /* Handle negative arguments to __divdi3.  */
.L10:
  neg   a0, a0
  1032f4:	40a00533          	neg	a0,a0
  /* Zero is handled as a negative so that the result will not be inverted.  */
  bgtz  a1, .L12     /* Compute __udivdi3(-a0, a1), then negate the result.  */
  1032f8:	00b04763          	bgtz	a1,103306 <__umodsi3+0x1a>

  neg   a1, a1
  1032fc:	40b005b3          	neg	a1,a1
  j     HIDDEN_JUMPTARGET(__udivdi3)     /* Compute __udivdi3(-a0, -a1).  */
  103300:	b7c1                	j	1032c0 <__hidden___udivsi3>
.L11:                /* Compute __udivdi3(a0, -a1), then negate the result.  */
  neg   a1, a1
  103302:	40b005b3          	neg	a1,a1
.L12:
  move  t0, ra
  103306:	8286                	mv	t0,ra
  jal   HIDDEN_JUMPTARGET(__udivdi3)
  103308:	3f65                	jal	1032c0 <__hidden___udivsi3>
  neg   a0, a0
  10330a:	40a00533          	neg	a0,a0
  jr    t0
  10330e:	8282                	jr	t0

00103310 <__modsi3>:
FUNC_END (__divdi3)

FUNC_BEGIN (__moddi3)
  move   t0, ra
  103310:	8286                	mv	t0,ra
  bltz   a1, .L31
  103312:	0005c763          	bltz	a1,103320 <__modsi3+0x10>
  bltz   a0, .L32
  103316:	00054963          	bltz	a0,103328 <__modsi3+0x18>
.L30:
  jal    HIDDEN_JUMPTARGET(__udivdi3)    /* The dividend is not negative.  */
  10331a:	375d                	jal	1032c0 <__hidden___udivsi3>
  move   a0, a1
  10331c:	852e                	mv	a0,a1
  jr     t0
  10331e:	8282                	jr	t0
.L31:
  neg    a1, a1
  103320:	40b005b3          	neg	a1,a1
  bgez   a0, .L30
  103324:	fe055be3          	bgez	a0,10331a <__modsi3+0xa>
.L32:
  neg    a0, a0
  103328:	40a00533          	neg	a0,a0
  jal    HIDDEN_JUMPTARGET(__udivdi3)    /* The dividend is hella negative.  */
  10332c:	3f51                	jal	1032c0 <__hidden___udivsi3>
  neg    a0, a1
  10332e:	40b00533          	neg	a0,a1
  jr     t0
  103332:	8282                	jr	t0
  103334:	0001                	nop

セクション .rodata の逆アセンブル:

00103338 <$d.1-0xcb>:
  103338:	6f62                	.insn	2, 0x6f62
  10333a:	6f6c746f          	jal	s0,1caa30 <_stack_top+0xbf430>
  10333e:	6461                	lui	s0,0x18
  103340:	7265                	lui	tp,0xffff9
  103342:	203a                	.insn	2, 0x203a
  103344:	69204453          	.insn	4, 0x69204453
  103348:	696e                	.insn	2, 0x696e
  10334a:	2074                	.insn	2, 0x2074
  10334c:	6166                	.insn	2, 0x6166
  10334e:	6c69                	lui	s8,0x1a
  103350:	6465                	lui	s0,0x19
  103352:	000a                	c.slli	zero,0x2
  103354:	6f62                	.insn	2, 0x6f62
  103356:	6f6c746f          	jal	s0,1caa4c <_stack_top+0xbf44c>
  10335a:	6461                	lui	s0,0x18
  10335c:	7265                	lui	tp,0xffff9
  10335e:	203a                	.insn	2, 0x203a
  103360:	7375                	lui	t1,0xffffd
  103362:	7265                	lui	tp,0xffff9
  103364:	6c20                	.insn	2, 0x6c20
  103366:	2064616f          	jal	sp,14956c <_stack_top+0x3df6c>
  10336a:	6166                	.insn	2, 0x6166
  10336c:	6c69                	lui	s8,0x1a
  10336e:	6465                	lui	s0,0x19
  103370:	000a                	c.slli	zero,0x2
  103372:	3d0a                	.insn	2, 0x3d0a
  103374:	3d3d                	jal	1031b2 <s_call_sdcard_read_api+0x166>
  103376:	5020                	lw	s0,96(s0)
  103378:	62204353          	.insn	4, 0x62204353
  10337c:	6c746f6f          	jal	t5,14a242 <_stack_top+0x3ec42>
  103380:	6564616f          	jal	sp,1499d6 <_stack_top+0x3e3d6>
  103384:	2072                	.insn	2, 0x2072
  103386:	72617473          	.insn	4, 0x72617473
  10338a:	2074                	.insn	2, 0x2074
  10338c:	3d3d                	jal	1031ca <s_call_sdcard_read_api+0x17e>
  10338e:	0a3d                	addi	s4,s4,15
  103390:	4300                	lw	s0,0(a4)
  103392:	4352                	lw	t1,20(sp)
  103394:	4620                	lw	s0,72(a2)
  103396:	4941                	li	s2,16
  103398:	454c                	lw	a1,12(a0)
  10339a:	2044                	.insn	2, 0x2044
  10339c:	6628                	.insn	2, 0x6628
  10339e:	6e69                	lui	t3,0x1a
  1033a0:	6c61                	lui	s8,0x18
  1033a2:	0a29                	addi	s4,s4,10
  1033a4:	4c00                	lw	s0,24(s0)
  1033a6:	2044414f          	.insn	4, 0x2044414f
  1033aa:	4146                	lw	sp,80(sp)
  1033ac:	4c49                	li	s8,18
  1033ae:	4445                	li	s0,17
  1033b0:	203a                	.insn	2, 0x203a
  1033b2:	626c                	.insn	2, 0x626c
  1033b4:	3d61                	jal	10324c <s_call_sdcard_read_api+0x200>
  1033b6:	7500                	.insn	2, 0x7500
  1033b8:	65676173          	.insn	4, 0x65676173
  1033bc:	203a                	.insn	2, 0x203a
  1033be:	7564                	.insn	2, 0x7564
  1033c0:	706d                	c.lui	zero,0xffffb
  1033c2:	5b20                	lw	s0,112(a4)
  1033c4:	7366666f          	jal	a2,169afa <_stack_top+0x5e4fa>
  1033c8:	7465                	lui	s0,0xffff9
  1033ca:	685f 7865 205d      	.insn	6, 0x205d7865685f
  1033d0:	6e656c5b          	.insn	4, 0x6e656c5b
  1033d4:	685f 7865 0a5d      	.insn	6, 0x0a5d7865685f
  1033da:	3000                	.insn	2, 0x3000
  1033dc:	3231                	jal	102ce8 <cmd_dump+0xc0>
  1033de:	36353433          	.insn	4, 0x36353433
  1033e2:	41393837          	lui	a6,0x41393
  1033e6:	4342                	lw	t1,16(sp)
  1033e8:	4544                	lw	s1,12(a0)
  1033ea:	0046                	c.slli	zero,0x11
  1033ec:	6f62                	.insn	2, 0x6f62
  1033ee:	6f6c746f          	jal	s0,1caae4 <_stack_top+0xbf4e4>
  1033f2:	6461                	lui	s0,0x18
  1033f4:	7265                	lui	tp,0xffff9
  1033f6:	203a                	.insn	2, 0x203a
  1033f8:	6f6c                	.insn	2, 0x6f6c
  1033fa:	6461                	lui	s0,0x18
  1033fc:	6420                	.insn	2, 0x6420
  1033fe:	0a656e6f          	jal	t3,1594a4 <_stack_top+0x4dea4>
	...

00103403 <$d.1>:
  103403:	4552                	lw	a0,20(sp)
  103405:	4441                	li	s0,16
  103407:	4620                	lw	s0,72(a2)
  103409:	4941                	li	s2,16
  10340b:	204c                	.insn	2, 0x204c
  10340d:	6572                	.insn	2, 0x6572
  10340f:	7274                	.insn	2, 0x7274
  103411:	3d79                	jal	1032af <__mulsi3+0xb>
  103413:	6425                	lui	s0,0x9
  103415:	000a                	c.slli	zero,0x2
  103417:	6d656d5b          	.insn	4, 0x6d656d5b
  10341b:	635f 6568 6b63      	.insn	6, 0x6b636568635f
  103421:	205d                	jal	1034c7 <$d.1+0xc4>
  103423:	6361                	lui	t1,0x18
  103425:	73736563          	bltu	t1,s7,103b4f <$d.1+0x54f>
  103429:	6320                	.insn	2, 0x6320
  10342b:	746e756f          	jal	a0,1eab71 <_stack_top+0xdf571>
  10342f:	253d                	jal	103a5d <$d.1+0x45d>
  103431:	0a78                	addi	a4,sp,284
  103433:	5b00                	lw	s0,48(a4)
  103435:	656d                	lui	a0,0x1b
  103437:	5f6d                	li	t5,-5
  103439:	63656863          	bltu	a0,s6,103a69 <$d.1+0x469>
  10343d:	4e205d6b          	.insn	4, 0x4e205d6b
  103441:	43000a47          	.insn	4, 0x43000a47
  103445:	4352                	lw	t1,20(sp)
  103447:	4f20                	lw	s0,88(a4)
  103449:	7228204b          	.insn	4, 0x7228204b
  10344d:	7465                	lui	s0,0xffff9
  10344f:	7972                	.insn	2, 0x7972
  103451:	253d                	jal	103a7f <$d.1+0x47f>
  103453:	2964                	.insn	2, 0x2964
  103455:	000a                	c.slli	zero,0x2
  103457:	6f62                	.insn	2, 0x6f62
  103459:	6f6c746f          	jal	s0,1cab4f <_stack_top+0xbf54f>
  10345d:	6461                	lui	s0,0x18
  10345f:	7265                	lui	tp,0xffff9
  103461:	203a                	.insn	2, 0x203a
  103463:	6e72656b          	.insn	4, 0x6e72656b
  103467:	6c65                	lui	s8,0x19
  103469:	6c20                	.insn	2, 0x6c20
  10346b:	2064616f          	jal	sp,149671 <_stack_top+0x3e071>
  10346f:	6166                	.insn	2, 0x6166
  103471:	6c69                	lui	s8,0x1a
  103473:	6465                	lui	s0,0x19
  103475:	000a                	c.slli	zero,0x2
  103477:	2020                	.insn	2, 0x2020
  103479:	6f6c                	.insn	2, 0x6f6c
  10347b:	6461                	lui	s0,0x18
  10347d:	6465                	lui	s0,0x19
  10347f:	7320                	.insn	2, 0x7320
  103481:	6365                	lui	t1,0x19
  103483:	6f74                	.insn	2, 0x6f74
  103485:	2072                	.insn	2, 0x2072
  103487:	4300                	lw	s0,0(a4)
  103489:	4352                	lw	t1,20(sp)
  10348b:	4e20                	lw	s0,88(a2)
  10348d:	65722047          	.insn	4, 0x65722047
  103491:	7274                	.insn	2, 0x7274
  103493:	3d79                	jal	103331 <__modsi3+0x21>
  103495:	6425                	lui	s0,0x9
  103497:	2820                	.insn	2, 0x2820
  103499:	636c6163          	bltu	s8,s6,103abb <$d.1+0x4bb>
  10349d:	253d                	jal	103acb <$d.1+0x4cb>
  10349f:	2078                	.insn	2, 0x2078
  1034a1:	7768                	.insn	2, 0x7768
  1034a3:	253d                	jal	103ad1 <$d.1+0x4d1>
  1034a5:	2978                	.insn	2, 0x2978
  1034a7:	000a                	c.slli	zero,0x2
  1034a9:	52204453          	.insn	4, 0x52204453
  1034ad:	4145                	li	sp,17
  1034af:	2044                	.insn	2, 0x2044
  1034b1:	4954                	lw	a3,20(a0)
  1034b3:	454d                	li	a0,19
  1034b5:	3a54554f          	.insn	4, 0x3a54554f
  1034b9:	6c20                	.insn	2, 0x6c20
  1034bb:	6162                	.insn	2, 0x6162
  1034bd:	003d                	c.nop	15
  1034bf:	4946                	lw	s2,80(sp)
  1034c1:	4f46                	lw	t5,80(sp)
  1034c3:	4520                	lw	s0,72(a0)
  1034c5:	504d                	c.li	zero,-13
  1034c7:	5954                	lw	a3,52(a0)
  1034c9:	5420                	lw	s0,104(s0)
  1034cb:	4d49                	li	s10,18
  1034cd:	4f45                	li	t5,17
  1034cf:	5455                	li	s0,-11
  1034d1:	203a                	.insn	2, 0x203a
  1034d3:	626c                	.insn	2, 0x626c
  1034d5:	3d61                	jal	10336d <__modsi3+0x5d>
  1034d7:	5b00                	lw	s0,48(a4)
  1034d9:	6e69                	lui	t3,0x1a
  1034db:	6f66                	.insn	2, 0x6f66
  1034dd:	205d                	jal	103583 <$d.1+0x1b>
  1034df:	656c                	.insn	2, 0x656c
  1034e1:	206e                	.insn	2, 0x206e
  1034e3:	6f74                	.insn	2, 0x6f74
  1034e5:	6962206f          	j	125b7b <_stack_top+0x1a57b>
  1034e9:	3e282067          	.insn	4, 0x3e282067
  1034ed:	7830                	.insn	2, 0x7830
  1034ef:	5825                	li	a6,-23
  1034f1:	2c29                	jal	10370b <$d.1+0x10b>
  1034f3:	7220                	.insn	2, 0x7220
  1034f5:	646e756f          	jal	a0,1eab3b <_stack_top+0xdf53b>
  1034f9:	6420                	.insn	2, 0x6420
  1034fb:	206e776f          	jal	a4,1ea701 <_stack_top+0xdf101>
  1034ff:	6f74                	.insn	2, 0x6f74
  103501:	3020                	.insn	2, 0x3020
  103503:	2578                	.insn	2, 0x2578
  103505:	0a58                	addi	a4,sp,276
  103507:	4d00                	lw	s0,24(a0)
  103509:	4d45                	li	s10,17
  10350b:	4520                	lw	s0,72(a0)
  10350d:	5252                	lw	tp,52(sp)
  10350f:	6120524f          	.insn	4, 0x6120524f
  103513:	6464                	.insn	2, 0x6464
  103515:	3d72                	.insn	2, 0x3d72
  103517:	7825                	lui	a6,0xfffe9
  103519:	7220                	.insn	2, 0x7220
  10351b:	6165                	addi	sp,sp,112
  10351d:	3d64                	.insn	2, 0x3d64
  10351f:	7825                	lui	a6,0xfffe9
  103521:	6520                	.insn	2, 0x6520
  103523:	7078                	.insn	2, 0x7078
  103525:	253d                	jal	103b53 <$d.1+0x553>
  103527:	0a78                	addi	a4,sp,284
  103529:	5300                	lw	s0,32(a4)
  10352b:	2044                	.insn	2, 0x2044
  10352d:	4e49                	li	t3,18
  10352f:	5449                	li	s0,-14
  103531:	7320                	.insn	2, 0x7320
  103533:	6174                	.insn	2, 0x6174
  103535:	7472                	.insn	2, 0x7472
  103537:	000a                	c.slli	zero,0x2
  103539:	6f62                	.insn	2, 0x6f62
  10353b:	7320746f          	jal	s0,10ac6d <_stack_start+0x366d>
  10353f:	6174                	.insn	2, 0x6174
  103541:	7472                	.insn	2, 0x7472
  103543:	000a                	c.slli	zero,0x2
  103545:	7375                	lui	t1,0xffffd
  103547:	6761                	lui	a4,0x18
  103549:	3a65                	jal	102f01 <sd_read_once+0x81>
  10354b:	6420                	.insn	2, 0x6420
  10354d:	706d                	c.lui	zero,0xffffb
  10354f:	5b20                	lw	s0,112(a4)
  103551:	7366666f          	jal	a2,169c87 <_stack_top+0x5e687>
  103555:	7465                	lui	s0,0xffff9
  103557:	685f 7865 205d      	.insn	6, 0x205d7865685f
  10355d:	6e656c5b          	.insn	4, 0x6e656c5b
  103561:	685f 7865 0a5d      	.insn	6, 0x0a5d7865685f
	...

00103568 <$d.1>:
  103568:	6d656d5b          	.insn	4, 0x6d656d5b
  10356c:	635f 6568 6b63      	.insn	6, 0x6b636568635f
  103572:	205d                	jal	103618 <$d.1+0x18>
  103574:	6172                	.insn	2, 0x6172
  103576:	676e                	.insn	2, 0x676e
  103578:	2065                	jal	103620 <$d.1+0x20>
  10357a:	7825                	lui	a6,0xfffe9
  10357c:	2d20                	.insn	2, 0x2d20
  10357e:	2520                	.insn	2, 0x2520
  103580:	0a78                	addi	a4,sp,284
  103582:	5b00                	lw	s0,48(a4)
  103584:	656d                	lui	a0,0x1b
  103586:	5f6d                	li	t5,-5
  103588:	63656863          	bltu	a0,s6,103bb8 <$d.1+0x5b8>
  10358c:	4f205d6b          	.insn	4, 0x4f205d6b
  103590:	43000a4b          	.insn	4, 0x43000a4b
  103594:	4352                	lw	t1,20(sp)
  103596:	4620                	lw	s0,72(a2)
  103598:	4941                	li	s2,16
  10359a:	454c                	lw	a1,12(a0)
  10359c:	3a44                	.insn	2, 0x3a44
  10359e:	6c20                	.insn	2, 0x6c20
  1035a0:	6162                	.insn	2, 0x6162
  1035a2:	003d                	c.nop	15

001035a4 <print_hex8.HEX>:
    static const char HEX[] = "0123456789abcdef";
  1035a4:	3130                	.insn	2, 0x3130
  1035a6:	3332                	.insn	2, 0x3332
  1035a8:	3534                	.insn	2, 0x3534
  1035aa:	3736                	.insn	2, 0x3736
  1035ac:	3938                	.insn	2, 0x3938
  1035ae:	6261                	lui	tp,0x18
  1035b0:	66656463          	bltu	a0,t1,103c18 <$d.1+0x618>
  1035b4:	0a00                	addi	s0,sp,272
  1035b6:	3d3d                	jal	1033f4 <__modsi3+0xe4>
  1035b8:	203d                	jal	1035e6 <$d.1+0x7>
  1035ba:	5350                	lw	a2,36(a4)
  1035bc:	61722043          	.insn	4, 0x61722043
  1035c0:	646e                	.insn	2, 0x646e
  1035c2:	6d206d6f          	jal	s10,109c94 <_stack_start+0x2694>
  1035c6:	6d65                	lui	s10,0x19
  1035c8:	2079726f          	jal	tp,19afce <_stack_top+0x8f9ce>
  1035cc:	5752                	lw	a4,52(sp)
  1035ce:	7420                	.insn	2, 0x7420
  1035d0:	7365                	lui	t1,0xffff9
  1035d2:	2074                	.insn	2, 0x2074
  1035d4:	72617473          	.insn	4, 0x72617473
  1035d8:	2074                	.insn	2, 0x2074
  1035da:	3d3d                	jal	103418 <$d.1+0x15>
  1035dc:	0a3d                	addi	s4,s4,15
	...

001035df <$d.1>:
  1035df:	203a                	.insn	2, 0x203a
  1035e1:	4300                	lw	s0,0(a4)
  1035e3:	4352                	lw	t1,20(sp)
  1035e5:	4e20                	lw	s0,88(a2)
  1035e7:	6c203a47          	.insn	4, 0x6c203a47
  1035eb:	6162                	.insn	2, 0x6162
  1035ed:	003d                	c.nop	15
  1035ef:	49204453          	.insn	4, 0x49204453
  1035f3:	494e                	lw	s2,208(sp)
  1035f5:	2054                	.insn	2, 0x2054
  1035f7:	4954                	lw	a3,20(a0)
  1035f9:	454d                	li	a0,19
  1035fb:	0a54554f          	.insn	4, 0x0a54554f
	...

セクション .riscv.attributes の逆アセンブル:

00000000 <.riscv.attributes>:
   0:	5641                	li	a2,-16
   2:	0000                	unimp
   4:	7200                	.insn	2, 0x7200
   6:	7369                	lui	t1,0xffffa
   8:	01007663          	bgeu	zero,a6,14 <$d.2+0x14>
   c:	004c                	addi	a1,sp,4
   e:	0000                	unimp
  10:	1004                	addi	s1,sp,32
  12:	7205                	lui	tp,0xfffe1
  14:	3376                	.insn	2, 0x3376
  16:	6932                	.insn	2, 0x6932
  18:	7032                	.insn	2, 0x7032
  1a:	5f31                	li	t5,-20
  1c:	326d                	jal	fffff9c6 <_stack_top+0xffef43c6>
  1e:	3070                	.insn	2, 0x3070
  20:	615f 7032 5f31      	.insn	6, 0x5f317032615f
  26:	30703263          	.insn	4, 0x30703263
  2a:	7a5f 6369 7273      	.insn	6, 0x727363697a5f
  30:	7032                	.insn	2, 0x7032
  32:	5f30                	lw	a2,120(a4)
  34:	6d7a                	.insn	2, 0x6d7a
  36:	756d                	lui	a0,0xffffb
  38:	316c                	.insn	2, 0x316c
  3a:	3070                	.insn	2, 0x3070
  3c:	7a5f 6161 6f6d      	.insn	6, 0x6f6d61617a5f
  42:	7031                	c.lui	zero,0xfffec
  44:	5f30                	lw	a2,120(a4)
  46:	617a                	.insn	2, 0x617a
  48:	726c                	.insn	2, 0x726c
  4a:	70316373          	.insn	4, 0x70316373
  4e:	5f30                	lw	a2,120(a4)
  50:	637a                	.insn	2, 0x637a
  52:	3161                	jal	fffffcda <_stack_top+0xffef46da>
  54:	3070                	.insn	2, 0x3070
	...

セクション .debug_info の逆アセンブル:

00000000 <$d.5>:
       0:	009f 0000 0004      	.insn	6, 0x00040000009f
       6:	0000                	unimp
       8:	0000                	unimp
       a:	0104                	addi	s1,sp,128
       c:	0000                	unimp
       e:	0000                	unimp
      10:	0000                	unimp
      12:	0010                	.insn	2, 0x0010
      14:	0014                	.insn	2, 0x0014
      16:	0010                	.insn	2, 0x0010
      18:	2f2e                	.insn	2, 0x2f2e
      1a:	2f637273          	.insn	4, 0x2f637273
      1e:	6f62                	.insn	2, 0x6f62
      20:	6f6c746f          	jal	s0,c7716 <$d.10+0xc335e>
      24:	6461                	lui	s0,0x18
      26:	7265                	lui	tp,0xffff9
      28:	655f 746e 7972      	.insn	6, 0x7972746e655f
      2e:	532e                	lw	t1,232(sp)
      30:	2f00                	.insn	2, 0x2f00
      32:	6f68                	.insn	2, 0x6f68
      34:	656d                	lui	a0,0x1b
      36:	7261682f          	.insn	4, 0x7261682f
      3a:	6875                	lui	a6,0x1d
      3c:	6b69                	lui	s6,0x1a
      3e:	72502f6f          	jal	t5,2f62 <$d.4+0x3ca>
      42:	6172676f          	jal	a4,26e58 <$d.10+0x22aa0>
      46:	2f6d                	jal	800 <$d.3+0x29d>
      48:	5350                	lw	a2,36(a4)
      4a:	56525f43          	.insn	4, 0x56525f43
      4e:	2f493233          	.insn	4, 0x2f493233
      52:	5350                	lw	a2,36(a4)
      54:	4e4f2d43          	.insn	4, 0x4e4f2d43
      58:	2f45                	jal	808 <$d.3+0x2a5>
      5a:	74666f73          	.insn	4, 0x74666f73
      5e:	65726177          	.insn	4, 0x65726177
      62:	00736f2f          	.insn	4, 0x00736f2f
      66:	6255                	lui	tp,0x15
      68:	6e75                	lui	t3,0x1d
      6a:	7574                	.insn	2, 0x7574
      6c:	6320                	.insn	2, 0x6320
      6e:	616c                	.insn	2, 0x616c
      70:	676e                	.insn	2, 0x676e
      72:	7620                	.insn	2, 0x7620
      74:	7265                	lui	tp,0xffff9
      76:	6e6f6973          	.insn	4, 0x6e6f6973
      7a:	3120                	.insn	2, 0x3120
      7c:	2e38                	.insn	2, 0x2e38
      7e:	2e31                	jal	39a <$d.3+0x99>
      80:	31282033          	.insn	4, 0x31282033
      84:	6275                	lui	tp,0x1d
      86:	6e75                	lui	t3,0x1d
      88:	7574                	.insn	2, 0x7574
      8a:	2931                	jal	4a6 <$d.3+0x1a5>
      8c:	0100                	addi	s0,sp,128
      8e:	0280                	addi	s0,sp,320
      90:	72617473          	.insn	4, 0x72617473
      94:	0074                	addi	a3,sp,12
      96:	0001                	nop
      98:	0000                	unimp
      9a:	000a                	c.slli	zero,0x2
      9c:	0000                	unimp
      9e:	0000                	unimp
      a0:	0010                	.insn	2, 0x0010
	...

000000a3 <$d.4>:
      a3:	2af1                	jal	27f <$d.6+0x7c>
      a5:	0000                	unimp
      a7:	0004                	.insn	2, 0x0004
      a9:	0021                	c.nop	8
      ab:	0000                	unimp
      ad:	0104                	addi	s1,sp,128
      af:	00000203          	lb	tp,0(zero) # 0 <$d.5>
      b3:	001d                	c.nop	7
      b5:	00000527          	.insn	4, 0x0527
      b9:	0054                	addi	a3,sp,4
      bb:	0000                	unimp
      bd:	036c                	addi	a1,sp,396
      bf:	0000                	unimp
      c1:	0014                	.insn	2, 0x0014
      c3:	0010                	.insn	2, 0x0010
      c5:	24ac                	.insn	2, 0x24ac
      c7:	0000                	unimp
      c9:	3402                	.insn	2, 0x3402
      cb:	0000                	unimp
      cd:	0100                	addi	s0,sp,128
      cf:	01ea                	slli	gp,gp,0x1a
      d1:	0305                	addi	t1,t1,1 # ffffa001 <_stack_top+0xffeeea01>
      d3:	3568                	.insn	2, 0x3568
      d5:	0010                	.insn	2, 0x0010
      d7:	00004003          	lbu	zero,0(zero) # 0 <$d.5>
      db:	0400                	addi	s0,sp,512
      dd:	00000047          	.insn	4, 0x0047
      e1:	3c05001b          	.insn	4, 0x3c05001b
      e5:	08000003          	lb	zero,128(zero) # 80 <$d.10+0x2c>
      e9:	0601                	addi	a2,a2,0
      eb:	046a                	slli	s0,s0,0x1a
      ed:	0000                	unimp
      ef:	0708                	addi	a0,sp,896
      f1:	5c02                	lw	s8,32(sp)
      f3:	0000                	unimp
      f5:	0100                	addi	s0,sp,128
      f7:	01ed                	addi	gp,gp,27
      f9:	0305                	addi	t1,t1,1
      fb:	00103417          	auipc	s0,0x103
      ff:	00004003          	lbu	zero,0(zero) # 0 <$d.5>
     103:	0400                	addi	s0,sp,512
     105:	00000047          	.insn	4, 0x0047
     109:	001d                	c.nop	7
     10b:	7602                	.insn	2, 0x7602
     10d:	0000                	unimp
     10f:	0100                	addi	s0,sp,128
     111:	0211                	addi	tp,tp,4 # 1d004 <$d.10+0x18c4c>
     113:	0305                	addi	t1,t1,1
     115:	3508                	.insn	2, 0x3508
     117:	0010                	.insn	2, 0x0010
     119:	00004003          	lbu	zero,0(zero) # 0 <$d.5>
     11d:	0400                	addi	s0,sp,512
     11f:	00000047          	.insn	4, 0x0047
     123:	0022                	c.slli	zero,0x8
     125:	9002                	ebreak
     127:	0000                	unimp
     129:	0100                	addi	s0,sp,128
     12b:	021d                	addi	tp,tp,7 # 7 <$d.5+0x7>
     12d:	0305                	addi	t1,t1,1
     12f:	00103583          	.insn	4, 0x00103583
     133:	00004003          	lbu	zero,0(zero) # 0 <$d.5>
     137:	0400                	addi	s0,sp,512
     139:	00000047          	.insn	4, 0x0047
     13d:	0010                	.insn	2, 0x0010
     13f:	9002                	ebreak
     141:	0000                	unimp
     143:	0100                	addi	s0,sp,128
     145:	021f 0305 3434      	.insn	6, 0x34340305021f
     14b:	0010                	.insn	2, 0x0010
     14d:	b802                	.insn	2, 0xb802
     14f:	0000                	unimp
     151:	0100                	addi	s0,sp,128
     153:	0228                	addi	a0,sp,264
     155:	0305                	addi	t1,t1,1
     157:	3539                	jal	ffffff65 <_stack_top+0xffef4965>
     159:	0010                	.insn	2, 0x0010
     15b:	00004003          	lbu	zero,0(zero) # 0 <$d.5>
     15f:	0400                	addi	s0,sp,512
     161:	00000047          	.insn	4, 0x0047
     165:	000c                	.insn	2, 0x000c
     167:	d202                	sw	zero,36(sp)
     169:	0000                	unimp
     16b:	0100                	addi	s0,sp,128
     16d:	0305022b          	.insn	4, 0x0305022b
     171:	35b5                	jal	ffffffdd <_stack_top+0xffef49dd>
     173:	0010                	.insn	2, 0x0010
     175:	00004003          	lbu	zero,0(zero) # 0 <$d.5>
     179:	0400                	addi	s0,sp,512
     17b:	00000047          	.insn	4, 0x0047
     17f:	002a                	c.slli	zero,0xa
     181:	ec02                	.insn	2, 0xec02
     183:	0000                	unimp
     185:	0100                	addi	s0,sp,128
     187:	022e                	slli	tp,tp,0xb
     189:	0305                	addi	t1,t1,1
     18b:	3372                	.insn	2, 0x3372
     18d:	0010                	.insn	2, 0x0010
     18f:	00004003          	lbu	zero,0(zero) # 0 <$d.5>
     193:	0400                	addi	s0,sp,512
     195:	00000047          	.insn	4, 0x0047
     199:	001f 0007 0001      	.insn	6, 0x00010007001f
     19f:	0100                	addi	s0,sp,128
     1a1:	4003022f          	.insn	4, 0x4003022f
     1a5:	0000                	unimp
     1a7:	0400                	addi	s0,sp,512
     1a9:	00000047          	.insn	4, 0x0047
     1ad:	0006                	c.slli	zero,0x1
     1af:	1a02                	slli	s4,s4,0x20
     1b1:	0001                	nop
     1b3:	0100                	addi	s0,sp,128
     1b5:	0232                	slli	tp,tp,0xc
     1b7:	0305                	addi	t1,t1,1
     1b9:	3338                	.insn	2, 0x3338
     1bb:	0010                	.insn	2, 0x0010
     1bd:	00004003          	lbu	zero,0(zero) # 0 <$d.5>
     1c1:	0400                	addi	s0,sp,512
     1c3:	00000047          	.insn	4, 0x0047
     1c7:	001c                	.insn	2, 0x001c
     1c9:	3402                	.insn	2, 0x3402
     1cb:	0001                	nop
     1cd:	0100                	addi	s0,sp,128
     1cf:	0238                	addi	a4,sp,264
     1d1:	0305                	addi	t1,t1,1
     1d3:	00103457          	.insn	4, 0x00103457
     1d7:	00004003          	lbu	zero,0(zero) # 0 <$d.5>
     1db:	0400                	addi	s0,sp,512
     1dd:	00000047          	.insn	4, 0x0047
     1e1:	0020                	addi	s0,sp,8
     1e3:	4e02                	lw	t3,0(sp)
     1e5:	0001                	nop
     1e7:	0100                	addi	s0,sp,128
     1e9:	023e                	slli	tp,tp,0xf
     1eb:	0305                	addi	t1,t1,1
     1ed:	3354                	.insn	2, 0x3354
     1ef:	0010                	.insn	2, 0x0010
     1f1:	00004003          	lbu	zero,0(zero) # 0 <$d.5>
     1f5:	0400                	addi	s0,sp,512
     1f7:	00000047          	.insn	4, 0x0047
     1fb:	001e                	c.slli	zero,0x7
     1fd:	6802                	.insn	2, 0x6802
     1ff:	0001                	nop
     201:	0100                	addi	s0,sp,128
     203:	03050243          	.insn	4, 0x03050243
     207:	33ec                	.insn	2, 0x33ec
     209:	0010                	.insn	2, 0x0010
     20b:	00004003          	lbu	zero,0(zero) # 0 <$d.5>
     20f:	0400                	addi	s0,sp,512
     211:	00000047          	.insn	4, 0x0047
     215:	7c070017          	auipc	zero,0x7c070
     219:	0001                	nop
     21b:	0100                	addi	s0,sp,128
     21d:	0245                	addi	tp,tp,17 # 11 <$d.5+0x11>
     21f:	00004003          	lbu	zero,0(zero) # 0 <$d.5>
     223:	0400                	addi	s0,sp,512
     225:	00000047          	.insn	4, 0x0047
     229:	9007000b          	.insn	4, 0x9007000b
     22d:	0001                	nop
     22f:	0100                	addi	s0,sp,128
     231:	40030247          	.insn	4, 0x40030247
     235:	0000                	unimp
     237:	0400                	addi	s0,sp,512
     239:	00000047          	.insn	4, 0x0047
     23d:	0002                	c.slli64	zero
     23f:	00017c07          	.insn	4, 0x00017c07
     243:	0100                	addi	s0,sp,128
     245:	0249                	addi	tp,tp,18 # 12 <$d.5+0x12>
     247:	b202                	.insn	2, 0xb202
     249:	0001                	nop
     24b:	0100                	addi	s0,sp,128
     24d:	03050123          	sb	a6,34(a0) # 1b022 <$d.10+0x16c6a>
     251:	352a                	.insn	2, 0x352a
     253:	0010                	.insn	2, 0x0010
     255:	00004003          	lbu	zero,0(zero) # 0 <$d.5>
     259:	0400                	addi	s0,sp,512
     25b:	00000047          	.insn	4, 0x0047
     25f:	cc02000f          	.insn	4, 0xcc02000f
     263:	0001                	nop
     265:	0100                	addi	s0,sp,128
     267:	0305012b          	.insn	4, 0x0305012b
     26b:	001035ef          	jal	a1,3a6b <$d.10+0x25>
     26f:	00004003          	lbu	zero,0(zero) # 0 <$d.5>
     273:	0400                	addi	s0,sp,512
     275:	00000047          	.insn	4, 0x0047
     279:	0011                	c.nop	4
     27b:	00017c07          	.insn	4, 0x00017c07
     27f:	0100                	addi	s0,sp,128
     281:	e807019b          	.insn	4, 0xe807019b
     285:	0001                	nop
     287:	0100                	addi	s0,sp,128
     289:	019d                	addi	gp,gp,7
     28b:	00004003          	lbu	zero,0(zero) # 0 <$d.5>
     28f:	0400                	addi	s0,sp,512
     291:	00000047          	.insn	4, 0x0047
     295:	0008                	.insn	2, 0x0008
     297:	0001fc07          	.insn	4, 0x0001fc07
     29b:	0100                	addi	s0,sp,128
     29d:	019f 4003 0000      	.insn	6, 0x4003019f
     2a3:	0400                	addi	s0,sp,512
     2a5:	00000047          	.insn	4, 0x0047
     2a9:	000a                	c.slli	zero,0x2
     2ab:	1602                	slli	a2,a2,0x20
     2ad:	0002                	c.slli64	zero
     2af:	0100                	addi	s0,sp,128
     2b1:	01a5                	addi	gp,gp,9
     2b3:	0305                	addi	t1,t1,1
     2b5:	33a5                	jal	1d <$d.5+0x1d>
     2b7:	0010                	.insn	2, 0x0010
     2b9:	00004003          	lbu	zero,0(zero) # 0 <$d.5>
     2bd:	0400                	addi	s0,sp,512
     2bf:	00000047          	.insn	4, 0x0047
     2c3:	0012                	c.slli	zero,0x4
     2c5:	cc02                	sw	zero,24(sp)
     2c7:	0001                	nop
     2c9:	0100                	addi	s0,sp,128
     2cb:	01ac                	addi	a1,sp,200
     2cd:	0305                	addi	t1,t1,1
     2cf:	00103477          	.insn	4, 0x00103477
     2d3:	00023807          	.insn	4, 0x00023807
     2d7:	0100                	addi	s0,sp,128
     2d9:	01ae                	slli	gp,gp,0xb
     2db:	00004003          	lbu	zero,0(zero) # 0 <$d.5>
     2df:	0400                	addi	s0,sp,512
     2e1:	00000047          	.insn	4, 0x0047
     2e5:	0004                	.insn	2, 0x0004
     2e7:	5202                	lw	tp,32(sp)
     2e9:	0002                	c.slli64	zero
     2eb:	0100                	addi	s0,sp,128
     2ed:	014e                	slli	sp,sp,0x13
     2ef:	0305                	addi	t1,t1,1
     2f1:	34a9                	jal	fffffd3b <_stack_top+0xffef473b>
     2f3:	0010                	.insn	2, 0x0010
     2f5:	00004003          	lbu	zero,0(zero) # 0 <$d.5>
     2f9:	0400                	addi	s0,sp,512
     2fb:	00000047          	.insn	4, 0x0047
     2ff:	0016                	c.slli	zero,0x5
     301:	0001e807          	.insn	4, 0x0001e807
     305:	0100                	addi	s0,sp,128
     307:	0150                	addi	a2,sp,132
     309:	7402                	.insn	2, 0x7402
     30b:	0002                	c.slli64	zero
     30d:	0100                	addi	s0,sp,128
     30f:	015e                	slli	sp,sp,0x17
     311:	0305                	addi	t1,t1,1
     313:	001034bf 00004003 	.insn	8, 0x4003001034bf
     31b:	0400                	addi	s0,sp,512
     31d:	00000047          	.insn	4, 0x0047
     321:	0019                	c.nop	6
     323:	0001e807          	.insn	4, 0x0001e807
     327:	0100                	addi	s0,sp,128
     329:	0160                	addi	s0,sp,140
     32b:	00029007          	.insn	4, 0x00029007
     32f:	0100                	addi	s0,sp,128
     331:	016e                	slli	sp,sp,0x1b
     333:	00004003          	lbu	zero,0(zero) # 0 <$d.5>
     337:	0400                	addi	s0,sp,512
     339:	00000047          	.insn	4, 0x0047
     33d:	90070003          	lb	zero,-1792(a4) # 17900 <$d.10+0x13548>
     341:	0002                	c.slli64	zero
     343:	0100                	addi	s0,sp,128
     345:	b202017b          	.insn	4, 0xb202017b
     349:	0002                	c.slli64	zero
     34b:	0100                	addi	s0,sp,128
     34d:	0180                	addi	s0,sp,192
     34f:	0305                	addi	t1,t1,1
     351:	35e2                	.insn	2, 0x35e2
     353:	0010                	.insn	2, 0x0010
     355:	00004003          	lbu	zero,0(zero) # 0 <$d.5>
     359:	0400                	addi	s0,sp,512
     35b:	00000047          	.insn	4, 0x0047
     35f:	000d                	c.nop	3
     361:	0002c607          	.insn	4, 0x0002c607
     365:	0100                	addi	s0,sp,128
     367:	0184                	addi	s1,sp,192
     369:	00004003          	lbu	zero,0(zero) # 0 <$d.5>
     36d:	0400                	addi	s0,sp,512
     36f:	00000047          	.insn	4, 0x0047
     373:	0005                	c.nop	1
     375:	0002c607          	.insn	4, 0x0002c607
     379:	0100                	addi	s0,sp,128
     37b:	0186                	slli	gp,gp,0x1
     37d:	cc02                	sw	zero,24(sp)
     37f:	0001                	nop
     381:	0100                	addi	s0,sp,128
     383:	018e                	slli	gp,gp,0x3
     385:	0305                	addi	t1,t1,1
     387:	00103593          	seqz	a1,zero
     38b:	9008                	.insn	2, 0x9008
     38d:	0001                	nop
     38f:	0100                	addi	s0,sp,128
     391:	08d1                	addi	a7,a7,20
     393:	02c6                	slli	t0,t0,0x11
     395:	0000                	unimp
     397:	d301                	beqz	a4,297 <$d.6+0x94>
     399:	0002fe07          	.insn	4, 0x0002fe07
     39d:	0100                	addi	s0,sp,128
     39f:	01c0                	addi	s0,sp,196
     3a1:	00004003          	lbu	zero,0(zero) # 0 <$d.5>
     3a5:	0400                	addi	s0,sp,512
     3a7:	00000047          	.insn	4, 0x0047
     3ab:	0009                	c.nop	2
     3ad:	1509                	addi	a0,a0,-30
     3af:	5c000003          	lb	zero,1472(zero) # 5c0 <$d.3+0x5d>
     3b3:	0002                	c.slli64	zero
     3b5:	0200                	addi	s0,sp,256
     3b7:	05c6                	slli	a1,a1,0x11
     3b9:	0400                	addi	s0,sp,512
     3bb:	0000                	unimp
     3bd:	280a0407          	.insn	4, 0x280a0407
     3c1:	a3000003          	lb	zero,-1488(zero) # fffffa30 <_stack_top+0xffef4430>
     3c5:	0004                	.insn	2, 0x0004
     3c7:	0200                	addi	s0,sp,256
     3c9:	010a                	slli	sp,sp,0x2
     3cb:	a405                	j	5eb <$d.3+0x88>
     3cd:	0002                	c.slli64	zero
     3cf:	0800                	addi	s0,sp,16
     3d1:	0b01                	addi	s6,s6,0 # 1a000 <$d.10+0x15c48>
     3d3:	0334                	addi	a3,sp,392
     3d5:	0000                	unimp
     3d7:	0a0c                	addi	a1,sp,272
     3d9:	0b000003          	lb	zero,176(zero) # b0 <$d.4+0xd>
     3dd:	033e                	slli	t1,t1,0xf
     3df:	0000                	unimp
     3e1:	430c                	lw	a1,0(a4)
     3e3:	09000003          	lb	zero,144(zero) # 90 <$d.10+0x3c>
     3e7:	0315                	addi	t1,t1,5
     3e9:	0000                	unimp
     3eb:	025c                	addi	a5,sp,260
     3ed:	0000                	unimp
     3ef:	530b0903          	lb	s2,1328(s6)
     3f3:	0c000003          	lb	zero,192(zero) # c0 <$d.4+0x1d>
     3f7:	031c                	addi	a5,sp,384
     3f9:	0000                	unimp
     3fb:	6309                	lui	t1,0x2
     3fd:	82000003          	lb	zero,-2016(zero) # fffff820 <_stack_top+0xffef4220>
     401:	0000                	unimp
     403:	0200                	addi	s0,sp,256
     405:	000005f3          	.insn	4, 0x05f3
     409:	0000                	unimp
     40b:	6f0b0207          	.insn	4, 0x6f0b0207
     40f:	0d000003          	lb	zero,208(zero) # d0 <$d.4+0x2d>
     413:	f40e                	.insn	2, 0xf40e
     415:	0000                	unimp
     417:	0300                	addi	s0,sp,384
     419:	4320                	lw	s0,64(a4)
     41b:	01000003          	lb	zero,16(zero) # 10 <$d.5+0x10>
     41f:	00008f0f          	.insn	4, 0x8f0f
     423:	0300                	addi	s0,sp,384
     425:	4320                	lw	s0,64(a4)
     427:	00000003          	lb	zero,0(zero) # 0 <$d.5>
     42b:	6510                	.insn	2, 0x6510
     42d:	0002                	c.slli64	zero
     42f:	0300                	addi	s0,sp,384
     431:	011d                	addi	sp,sp,7
     433:	00008f0f          	.insn	4, 0x8f0f
     437:	0300                	addi	s0,sp,384
     439:	431d                	li	t1,7
     43b:	0f000003          	lb	zero,240(zero) # f0 <$d.9+0xc>
     43f:	015e                	slli	sp,sp,0x17
     441:	0000                	unimp
     443:	03431d03          	lh	s10,52(t1) # 2034 <$d.5+0x117c>
     447:	0000                	unimp
     449:	1100                	addi	s0,sp,160
     44b:	0014                	.insn	2, 0x0014
     44d:	0010                	.insn	2, 0x0010
     44f:	0020                	addi	s0,sp,8
     451:	0000                	unimp
     453:	5201                	li	tp,-32
     455:	000003fb          	.insn	4, 0x03fb
     459:	0112                	slli	sp,sp,0x4
     45b:	035a                	slli	t1,t1,0x16
     45d:	0004                	.insn	2, 0x0004
     45f:	1300                	addi	s0,sp,416
     461:	0370                	addi	a2,sp,396
     463:	0000                	unimp
     465:	0018                	.insn	2, 0x0018
     467:	0010                	.insn	2, 0x0010
     469:	0004                	.insn	2, 0x0004
     46b:	0000                	unimp
     46d:	5b01                	li	s6,-32
     46f:	140c                	addi	a1,sp,544
     471:	8088                	.insn	2, 0x8088
     473:	8080                	.insn	2, 0x8080
     475:	7c01                	lui	s8,0xfffe0
     477:	00000003          	lb	zero,0(zero) # 0 <$d.5>
     47b:	00038813          	mv	a6,t2
     47f:	2c00                	.insn	2, 0x2c00
     481:	1000                	addi	s0,sp,32
     483:	0400                	addi	s0,sp,512
     485:	0000                	unimp
     487:	0100                	addi	s0,sp,128
     489:	055e                	slli	a0,a0,0x17
     48b:	8014                	.insn	2, 0x8014
     48d:	8080                	.insn	2, 0x8080
     48f:	0180                	addi	s0,sp,192
     491:	0390                	addi	a2,sp,448
     493:	0000                	unimp
     495:	0112                	slli	sp,sp,0x4
     497:	9b5a                	add	s6,s6,s6
     499:	00000003          	lb	zero,0(zero) # 0 <$d.5>
     49d:	1500                	addi	s0,sp,672
     49f:	0561                	addi	a0,a0,24
     4a1:	0000                	unimp
     4a3:	5901                	li	s2,-32
     4a5:	0f01                	addi	t5,t5,0
     4a7:	0569                	addi	a0,a0,26
     4a9:	0000                	unimp
     4ab:	5901                	li	s2,-32
     4ad:	0040                	addi	s0,sp,4
     4af:	0000                	unimp
     4b1:	1600                	addi	s0,sp,800
     4b3:	0034                	addi	a3,sp,8
     4b5:	0010                	.insn	2, 0x0010
     4b7:	0020                	addi	s0,sp,8
     4b9:	0000                	unimp
     4bb:	5201                	li	tp,-32
     4bd:	0192                	slli	gp,gp,0x4
     4bf:	0000                	unimp
     4c1:	6201                	.insn	2, 0x6201
     4c3:	9f5a0117          	auipc	sp,0x9f5a0
     4c7:	0001                	nop
     4c9:	0100                	addi	s0,sp,128
     4cb:	4062                	.insn	2, 0x4062
     4cd:	0000                	unimp
     4cf:	1300                	addi	s0,sp,416
     4d1:	000003fb          	.insn	4, 0x03fb
     4d5:	0038                	addi	a4,sp,8
     4d7:	0010                	.insn	2, 0x0010
     4d9:	0018                	.insn	2, 0x0018
     4db:	0000                	unimp
     4dd:	6401                	.insn	2, 0x6401
     4df:	1205                	addi	tp,tp,-31 # ffffffe1 <_stack_top+0xffef49e1>
     4e1:	5a01                	li	s4,-32
     4e3:	00000403          	lb	s0,0(zero) # 0 <$d.5>
     4e7:	00037013          	andi	zero,t1,0
     4eb:	3800                	.insn	2, 0x3800
     4ed:	1000                	addi	s0,sp,32
     4ef:	0400                	addi	s0,sp,512
     4f1:	0000                	unimp
     4f3:	0100                	addi	s0,sp,128
     4f5:	88140c5b          	.insn	4, 0x88140c5b
     4f9:	8080                	.insn	2, 0x8080
     4fb:	0180                	addi	s0,sp,192
     4fd:	037c                	addi	a5,sp,396
     4ff:	0000                	unimp
     501:	1300                	addi	s0,sp,416
     503:	0388                	addi	a0,sp,448
     505:	0000                	unimp
     507:	004c                	addi	a1,sp,4
     509:	0010                	.insn	2, 0x0010
     50b:	0004                	.insn	2, 0x0004
     50d:	0000                	unimp
     50f:	5e01                	li	t3,-32
     511:	1405                	addi	s0,s0,-31 # 1030dc <s_call_sdcard_read_api+0x90>
     513:	8080                	.insn	2, 0x8080
     515:	8080                	.insn	2, 0x8080
     517:	9001                	srli	s0,s0,0x20
     519:	12000003          	lb	zero,288(zero) # 120 <$d.9+0x3c>
     51d:	5a01                	li	s4,-32
     51f:	0000039b          	.insn	4, 0x039b
     523:	0000                	unimp
     525:	1100                	addi	s0,sp,160
