
./build/kernel.elf:     ファイル形式 elf32-littleriscv


セクション .text の逆アセンブル:

00200000 <boot>:


__attribute__((section(".text.boot")))
__attribute__((naked))
void boot(void) {
    __asm__ __volatile__(
  200000:	00256537          	lui	a0,0x256
  200004:	b1450513          	addi	a0,a0,-1260 # 255b14 <__kernel_stack_top>
  200008:	00050113          	mv	sp,a0
  20000c:	5000106f          	j	20150c <kernel_main>

00200010 <putchar>:
void putchar(char ch) {
  200010:	100005b7          	lui	a1,0x10000

static inline void mmio_w32(uint32_t addr, uint32_t v) {
    *(volatile uint32_t*)addr = v;
}
static inline uint32_t mmio_r32(uint32_t addr) {
    return *(volatile uint32_t*)addr;
  200014:	0085a603          	lw	a2,8(a1) # 10000008 <__free_ram_end+0xfcaa008>
    while (mmio_r32(UART_MMIO_BASE + UART_ST) & ST_TX_BUSY) {
  200018:	00167613          	andi	a2,a2,1
  20001c:	00060663          	beqz	a2,200028 <putchar+0x18>
        __asm__ __volatile__("nop");
  200020:	00000013          	nop
  200024:	ff1ff06f          	j	200014 <putchar+0x4>
    *(volatile uint32_t*)addr = v;
  200028:	00a5a023          	sw	a0,0(a1)
}
  20002c:	00008067          	ret

00200030 <uart_putchar>:
void uart_putchar(char ch) {
  200030:	100005b7          	lui	a1,0x10000
    return *(volatile uint32_t*)addr;
  200034:	0085a603          	lw	a2,8(a1) # 10000008 <__free_ram_end+0xfcaa008>
    while (mmio_r32(UART_MMIO_BASE + UART_ST) & ST_TX_BUSY) {
  200038:	00167613          	andi	a2,a2,1
  20003c:	00060663          	beqz	a2,200048 <uart_putchar+0x18>
        __asm__ __volatile__("nop");
  200040:	00000013          	nop
  200044:	ff1ff06f          	j	200034 <uart_putchar+0x4>
    *(volatile uint32_t*)addr = v;
  200048:	00a5a023          	sw	a0,0(a1)
}
  20004c:	00008067          	ret

00200050 <uart_getchar>:
long uart_getchar(void) {
  200050:	10000537          	lui	a0,0x10000
    return *(volatile uint32_t*)addr;
  200054:	00852583          	lw	a1,8(a0) # 10000008 <__free_ram_end+0xfcaa008>
    while ((mmio_r32(UART_MMIO_BASE + UART_ST) & ST_RX_AVAIL) == 0) {
  200058:	0025f593          	andi	a1,a1,2
  20005c:	00059663          	bnez	a1,200068 <uart_getchar+0x18>
        __asm__ __volatile__("nop");
  200060:	00000013          	nop
  200064:	ff1ff06f          	j	200054 <uart_getchar+0x4>
  200068:	00452503          	lw	a0,4(a0)
    return (long)(mmio_r32(UART_MMIO_BASE + UART_RX) & 0xFF);
  20006c:	0ff57513          	zext.b	a0,a0
  200070:	00008067          	ret

00200074 <alloc_pages>:
paddr_t alloc_pages(uint32_t n) {
  200074:	ff010113          	addi	sp,sp,-16
  200078:	00112623          	sw	ra,12(sp)
  20007c:	00812423          	sw	s0,8(sp)
    if (!initialized) {
  200080:	002255b7          	lui	a1,0x225
  200084:	7085c603          	lbu	a2,1800(a1) # 225708 <alloc_pages.initialized>
  200088:	00060863          	beqz	a2,200098 <alloc_pages+0x24>
    paddr_t paddr = next_paddr;
  20008c:	002255b7          	lui	a1,0x225
  200090:	70c5a403          	lw	s0,1804(a1) # 22570c <alloc_pages.next_paddr>
  200094:	0140006f          	j	2000a8 <alloc_pages+0x34>
  200098:	00100613          	li	a2,1
        initialized = 1;
  20009c:	70c58423          	sb	a2,1800(a1)
  2000a0:	002565b7          	lui	a1,0x256
  2000a4:	00058413          	mv	s0,a1
    next_paddr += n * PAGE_SIZE;
  2000a8:	00c51613          	slli	a2,a0,0xc
  2000ac:	00c40533          	add	a0,s0,a2
  2000b0:	002255b7          	lui	a1,0x225
    if (next_paddr > (paddr_t)__free_ram_end)
  2000b4:	003566b7          	lui	a3,0x356
  2000b8:	00068693          	mv	a3,a3
    next_paddr += n * PAGE_SIZE;
  2000bc:	70a5a623          	sw	a0,1804(a1) # 22570c <alloc_pages.next_paddr>
    if (next_paddr > (paddr_t)__free_ram_end)
  2000c0:	02a6f263          	bgeu	a3,a0,2000e4 <alloc_pages+0x70>
        PANIC("out of memory");
  2000c4:	00203537          	lui	a0,0x203
  2000c8:	11550513          	addi	a0,a0,277 # 203115 <$d.4>
  2000cc:	002035b7          	lui	a1,0x203
  2000d0:	d2658593          	addi	a1,a1,-730 # 202d26 <$d.1+0x14>
  2000d4:	08900613          	li	a2,137
  2000d8:	00001097          	auipc	ra,0x1
  2000dc:	6d8080e7          	jalr	1752(ra) # 2017b0 <s_printf>
  2000e0:	0000006f          	j	2000e0 <alloc_pages+0x6c>
    memset((void *) paddr, 0, n * PAGE_SIZE);
  2000e4:	00040513          	mv	a0,s0
  2000e8:	00000593          	li	a1,0
  2000ec:	00001097          	auipc	ra,0x1
  2000f0:	5a8080e7          	jalr	1448(ra) # 201694 <memset>
    return paddr;
  2000f4:	00040513          	mv	a0,s0
  2000f8:	00c12083          	lw	ra,12(sp)
  2000fc:	00812403          	lw	s0,8(sp)
  200100:	01010113          	addi	sp,sp,16
  200104:	00008067          	ret

00200108 <user_entry>:
__attribute__((naked)) void user_entry(void) {
  200108:	00500537          	lui	a0,0x500
  20010c:	004005b7          	lui	a1,0x400
    __asm__ __volatile__(
  200110:	00050113          	mv	sp,a0
  200114:	14159073          	csrw	sepc,a1
  200118:	02000293          	li	t0,32
  20011c:	10029073          	csrw	sstatus,t0
  200120:	10200073          	sret

00200124 <kernel_entry>:
    __asm__ __volatile__(
  200124:	14011073          	csrw	sscratch,sp
  200128:	f8410113          	addi	sp,sp,-124
  20012c:	00000013          	nop
  200130:	00112023          	sw	ra,0(sp)
  200134:	00312223          	sw	gp,4(sp)
  200138:	00412423          	sw	tp,8(sp)
  20013c:	00512623          	sw	t0,12(sp)
  200140:	00612823          	sw	t1,16(sp)
  200144:	00712a23          	sw	t2,20(sp)
  200148:	01c12c23          	sw	t3,24(sp)
  20014c:	01d12e23          	sw	t4,28(sp)
  200150:	03e12023          	sw	t5,32(sp)
  200154:	03f12223          	sw	t6,36(sp)
  200158:	02a12423          	sw	a0,40(sp)
  20015c:	02b12623          	sw	a1,44(sp)
  200160:	02c12823          	sw	a2,48(sp)
  200164:	02d12a23          	sw	a3,52(sp)
  200168:	02e12c23          	sw	a4,56(sp)
  20016c:	02f12e23          	sw	a5,60(sp)
  200170:	05012023          	sw	a6,64(sp)
  200174:	05112223          	sw	a7,68(sp)
  200178:	04812423          	sw	s0,72(sp)
  20017c:	04912623          	sw	s1,76(sp)
  200180:	05212823          	sw	s2,80(sp)
  200184:	05312a23          	sw	s3,84(sp)
  200188:	05412c23          	sw	s4,88(sp)
  20018c:	05512e23          	sw	s5,92(sp)
  200190:	07612023          	sw	s6,96(sp)
  200194:	07712223          	sw	s7,100(sp)
  200198:	07812423          	sw	s8,104(sp)
  20019c:	07912623          	sw	s9,108(sp)
  2001a0:	07a12823          	sw	s10,112(sp)
  2001a4:	07b12a23          	sw	s11,116(sp)
  2001a8:	14002573          	csrr	a0,sscratch
  2001ac:	06a12c23          	sw	a0,120(sp)
  2001b0:	00010513          	mv	a0,sp
  2001b4:	00001097          	auipc	ra,0x1
  2001b8:	fac080e7          	jalr	-84(ra) # 201160 <handle_trap>
  2001bc:	00012083          	lw	ra,0(sp)
  2001c0:	00412183          	lw	gp,4(sp)
  2001c4:	00812203          	lw	tp,8(sp)
  2001c8:	00c12283          	lw	t0,12(sp)
  2001cc:	01012303          	lw	t1,16(sp)
  2001d0:	01412383          	lw	t2,20(sp)
  2001d4:	01812e03          	lw	t3,24(sp)
  2001d8:	01c12e83          	lw	t4,28(sp)
  2001dc:	02012f03          	lw	t5,32(sp)
  2001e0:	02412f83          	lw	t6,36(sp)
  2001e4:	02812503          	lw	a0,40(sp)
  2001e8:	02c12583          	lw	a1,44(sp)
  2001ec:	03012603          	lw	a2,48(sp)
  2001f0:	03412683          	lw	a3,52(sp)
  2001f4:	03812703          	lw	a4,56(sp)
  2001f8:	03c12783          	lw	a5,60(sp)
  2001fc:	04012803          	lw	a6,64(sp)
  200200:	04412883          	lw	a7,68(sp)
  200204:	04812403          	lw	s0,72(sp)
  200208:	04c12483          	lw	s1,76(sp)
  20020c:	05012903          	lw	s2,80(sp)
  200210:	05412983          	lw	s3,84(sp)
  200214:	05812a03          	lw	s4,88(sp)
  200218:	05c12a83          	lw	s5,92(sp)
  20021c:	06012b03          	lw	s6,96(sp)
  200220:	06412b83          	lw	s7,100(sp)
  200224:	06812c03          	lw	s8,104(sp)
  200228:	06c12c83          	lw	s9,108(sp)
  20022c:	07012d03          	lw	s10,112(sp)
  200230:	07412d83          	lw	s11,116(sp)
  200234:	07812103          	lw	sp,120(sp)
  200238:	10200073          	sret

0020023c <switch_context>:
    __asm__ __volatile__(
  20023c:	fcc10113          	addi	sp,sp,-52
  200240:	00112023          	sw	ra,0(sp)
  200244:	00812223          	sw	s0,4(sp)
  200248:	00912423          	sw	s1,8(sp)
  20024c:	01212623          	sw	s2,12(sp)
  200250:	01312823          	sw	s3,16(sp)
  200254:	01412a23          	sw	s4,20(sp)
  200258:	01512c23          	sw	s5,24(sp)
  20025c:	01612e23          	sw	s6,28(sp)
  200260:	03712023          	sw	s7,32(sp)
  200264:	03812223          	sw	s8,36(sp)
  200268:	03912423          	sw	s9,40(sp)
  20026c:	03a12623          	sw	s10,44(sp)
  200270:	03b12823          	sw	s11,48(sp)
  200274:	00252023          	sw	sp,0(a0) # 500000 <__free_ram_end+0x1aa000>
  200278:	0005a103          	lw	sp,0(a1) # 400000 <__free_ram_end+0xaa000>
  20027c:	00012083          	lw	ra,0(sp)
  200280:	00412403          	lw	s0,4(sp)
  200284:	00812483          	lw	s1,8(sp)
  200288:	00c12903          	lw	s2,12(sp)
  20028c:	01012983          	lw	s3,16(sp)
  200290:	01412a03          	lw	s4,20(sp)
  200294:	01812a83          	lw	s5,24(sp)
  200298:	01c12b03          	lw	s6,28(sp)
  20029c:	02012b83          	lw	s7,32(sp)
  2002a0:	02412c03          	lw	s8,36(sp)
  2002a4:	02812c83          	lw	s9,40(sp)
  2002a8:	02c12d03          	lw	s10,44(sp)
  2002ac:	03012d83          	lw	s11,48(sp)
  2002b0:	03410113          	addi	sp,sp,52
  2002b4:	00008067          	ret

002002b8 <map_page>:
void map_page(uint32_t *table1, uint32_t vaddr, paddr_t paddr, uint32_t flags) {
  2002b8:	fe010113          	addi	sp,sp,-32
  2002bc:	00112e23          	sw	ra,28(sp)
  2002c0:	00812c23          	sw	s0,24(sp)
  2002c4:	00912a23          	sw	s1,20(sp)
  2002c8:	01212823          	sw	s2,16(sp)
  2002cc:	01312623          	sw	s3,12(sp)
  2002d0:	01412423          	sw	s4,8(sp)
  2002d4:	00058413          	mv	s0,a1
    if (!is_aligned(vaddr, PAGE_SIZE))
  2002d8:	01459593          	slli	a1,a1,0x14
  2002dc:	02058463          	beqz	a1,200304 <map_page+0x4c>
        PANIC("unaligned vaddr %x", vaddr);
  2002e0:	00203537          	lui	a0,0x203
  2002e4:	2e850513          	addi	a0,a0,744 # 2032e8 <$d.4+0x1d3>
  2002e8:	002035b7          	lui	a1,0x203
  2002ec:	d2658593          	addi	a1,a1,-730 # 202d26 <$d.1+0x14>
  2002f0:	13e00613          	li	a2,318
  2002f4:	00040693          	mv	a3,s0
  2002f8:	00001097          	auipc	ra,0x1
  2002fc:	4b8080e7          	jalr	1208(ra) # 2017b0 <s_printf>
  200300:	0000006f          	j	200300 <map_page+0x48>
  200304:	000015b7          	lui	a1,0x1
  200308:	fff58593          	addi	a1,a1,-1 # fff <$d.3+0x879>
    if (!is_aligned(paddr, PAGE_SIZE))
  20030c:	00b675b3          	and	a1,a2,a1
  200310:	02058463          	beqz	a1,200338 <map_page+0x80>
        PANIC("unaligned paddr %x", paddr);
  200314:	00203537          	lui	a0,0x203
  200318:	19250513          	addi	a0,a0,402 # 203192 <$d.4+0x7d>
  20031c:	002035b7          	lui	a1,0x203
  200320:	d2658593          	addi	a1,a1,-730 # 202d26 <$d.1+0x14>
  200324:	00060693          	mv	a3,a2
  200328:	14100613          	li	a2,321
  20032c:	00001097          	auipc	ra,0x1
  200330:	484080e7          	jalr	1156(ra) # 2017b0 <s_printf>
  200334:	0000006f          	j	200334 <map_page+0x7c>
    if ((table1[vpn1] & PAGE_V) == 0) {
  200338:	01445593          	srli	a1,s0,0x14
  20033c:	ffc5f593          	andi	a1,a1,-4
  200340:	00b50933          	add	s2,a0,a1
  200344:	00092503          	lw	a0,0(s2)
  200348:	00157593          	andi	a1,a0,1
  20034c:	08059e63          	bnez	a1,2003e8 <map_page+0x130>
    if (!initialized) {
  200350:	00225537          	lui	a0,0x225
  200354:	70854583          	lbu	a1,1800(a0) # 225708 <alloc_pages.initialized>
  200358:	00058863          	beqz	a1,200368 <map_page+0xb0>
    paddr_t paddr = next_paddr;
  20035c:	00225537          	lui	a0,0x225
  200360:	70c52483          	lw	s1,1804(a0) # 22570c <alloc_pages.next_paddr>
  200364:	0140006f          	j	200378 <map_page+0xc0>
  200368:	00100593          	li	a1,1
        initialized = 1;
  20036c:	70b50423          	sb	a1,1800(a0)
  200370:	00256537          	lui	a0,0x256
  200374:	00050493          	mv	s1,a0
  200378:	00001537          	lui	a0,0x1
    next_paddr += n * PAGE_SIZE;
  20037c:	00a48533          	add	a0,s1,a0
  200380:	002255b7          	lui	a1,0x225
    if (next_paddr > (paddr_t)__free_ram_end)
  200384:	00356737          	lui	a4,0x356
  200388:	00070713          	mv	a4,a4
    next_paddr += n * PAGE_SIZE;
  20038c:	70a5a623          	sw	a0,1804(a1) # 22570c <alloc_pages.next_paddr>
    if (next_paddr > (paddr_t)__free_ram_end)
  200390:	02a77263          	bgeu	a4,a0,2003b4 <map_page+0xfc>
        PANIC("out of memory");
  200394:	00203537          	lui	a0,0x203
  200398:	11550513          	addi	a0,a0,277 # 203115 <$d.4>
  20039c:	002035b7          	lui	a1,0x203
  2003a0:	d2658593          	addi	a1,a1,-730 # 202d26 <$d.1+0x14>
  2003a4:	08900613          	li	a2,137
  2003a8:	00001097          	auipc	ra,0x1
  2003ac:	408080e7          	jalr	1032(ra) # 2017b0 <s_printf>
  2003b0:	0000006f          	j	2003b0 <map_page+0xf8>
  2003b4:	00060993          	mv	s3,a2
    memset((void *) paddr, 0, n * PAGE_SIZE);
  2003b8:	00001637          	lui	a2,0x1
  2003bc:	00048513          	mv	a0,s1
  2003c0:	00000593          	li	a1,0
  2003c4:	00068a13          	mv	s4,a3
  2003c8:	00001097          	auipc	ra,0x1
  2003cc:	2cc080e7          	jalr	716(ra) # 201694 <memset>
  2003d0:	000a0693          	mv	a3,s4
  2003d4:	00098613          	mv	a2,s3
        table1[vpn1] = ((pt_paddr / PAGE_SIZE) << 10) | PAGE_V;
  2003d8:	00c4d493          	srli	s1,s1,0xc
  2003dc:	00a49513          	slli	a0,s1,0xa
  2003e0:	00150513          	addi	a0,a0,1
  2003e4:	00a92023          	sw	a0,0(s2)
    uint32_t *table0 = (uint32_t *) ((table1[vpn1] >> 10) * PAGE_SIZE);
  2003e8:	00a55513          	srli	a0,a0,0xa
  2003ec:	00c51513          	slli	a0,a0,0xc
    table0[vpn0] = ((paddr / PAGE_SIZE) << 10) | flags | PAGE_V;
  2003f0:	00265613          	srli	a2,a2,0x2
  2003f4:	00d66633          	or	a2,a2,a3
  2003f8:	00166593          	ori	a1,a2,1
  2003fc:	00a45413          	srli	s0,s0,0xa
  200400:	00001637          	lui	a2,0x1
  200404:	ffc60613          	addi	a2,a2,-4 # ffc <$d.3+0x876>
  200408:	00c47633          	and	a2,s0,a2
  20040c:	00c56533          	or	a0,a0,a2
  200410:	00b52023          	sw	a1,0(a0)
  200414:	01c12083          	lw	ra,28(sp)
  200418:	01812403          	lw	s0,24(sp)
  20041c:	01412483          	lw	s1,20(sp)
  200420:	01012903          	lw	s2,16(sp)
  200424:	00c12983          	lw	s3,12(sp)
  200428:	00812a03          	lw	s4,8(sp)
}
  20042c:	02010113          	addi	sp,sp,32
  200430:	00008067          	ret

00200434 <idle_entry>:
        __asm__ volatile("nop");
  200434:	00000013          	nop
    while (1) {
  200438:	ffdff06f          	j	200434 <idle_entry>

0020043c <create_process>:
struct process *create_process(const void *image, size_t image_size) {
  20043c:	fc010113          	addi	sp,sp,-64
  200440:	02112e23          	sw	ra,60(sp)
  200444:	02812c23          	sw	s0,56(sp)
  200448:	02912a23          	sw	s1,52(sp)
  20044c:	03212823          	sw	s2,48(sp)
  200450:	03312623          	sw	s3,44(sp)
  200454:	03412423          	sw	s4,40(sp)
  200458:	03512223          	sw	s5,36(sp)
  20045c:	03612023          	sw	s6,32(sp)
  200460:	01712e23          	sw	s7,28(sp)
  200464:	01812c23          	sw	s8,24(sp)
  200468:	01912a23          	sw	s9,20(sp)
  20046c:	01a12823          	sw	s10,16(sp)
  200470:	01b12623          	sw	s11,12(sp)
        if (procs[i].state == PROC_UNUSED) {
  200474:	00225637          	lui	a2,0x225
  200478:	73060613          	addi	a2,a2,1840 # 225730 <procs>
  20047c:	00462683          	lw	a3,4(a2)
  200480:	00058b13          	mv	s6,a1
  200484:	00050a93          	mv	s5,a0
  200488:	0a068663          	beqz	a3,200534 <create_process+0xf8>
  20048c:	00002537          	lui	a0,0x2
  200490:	00a60533          	add	a0,a2,a0
  200494:	01452503          	lw	a0,20(a0) # 2014 <$d.6+0x30>
  200498:	0a050263          	beqz	a0,20053c <create_process+0x100>
  20049c:	00225537          	lui	a0,0x225
  2004a0:	73050513          	addi	a0,a0,1840 # 225730 <procs>
  2004a4:	000045b7          	lui	a1,0x4
  2004a8:	00b505b3          	add	a1,a0,a1
  2004ac:	0245a583          	lw	a1,36(a1) # 4024 <$d.4+0x18b7>
  2004b0:	08058a63          	beqz	a1,200544 <create_process+0x108>
  2004b4:	000065b7          	lui	a1,0x6
  2004b8:	00b50533          	add	a0,a0,a1
  2004bc:	03452503          	lw	a0,52(a0)
  2004c0:	08050663          	beqz	a0,20054c <create_process+0x110>
  2004c4:	00225537          	lui	a0,0x225
  2004c8:	73050513          	addi	a0,a0,1840 # 225730 <procs>
  2004cc:	000085b7          	lui	a1,0x8
  2004d0:	00b505b3          	add	a1,a0,a1
  2004d4:	0445a583          	lw	a1,68(a1) # 8044 <$d.4+0x58d7>
  2004d8:	06058e63          	beqz	a1,200554 <create_process+0x118>
  2004dc:	0000a5b7          	lui	a1,0xa
  2004e0:	00b50533          	add	a0,a0,a1
  2004e4:	05452503          	lw	a0,84(a0)
  2004e8:	06050a63          	beqz	a0,20055c <create_process+0x120>
  2004ec:	00225537          	lui	a0,0x225
  2004f0:	73050513          	addi	a0,a0,1840 # 225730 <procs>
  2004f4:	0000c5b7          	lui	a1,0xc
  2004f8:	00b505b3          	add	a1,a0,a1
  2004fc:	0645a583          	lw	a1,100(a1) # c064 <$d.4+0x98f7>
  200500:	06058263          	beqz	a1,200564 <create_process+0x128>
  200504:	0000e5b7          	lui	a1,0xe
  200508:	00b50533          	add	a0,a0,a1
  20050c:	07452503          	lw	a0,116(a0)
  200510:	04050e63          	beqz	a0,20056c <create_process+0x130>
    if (!proc) PANIC("no free process slots");
  200514:	00203537          	lui	a0,0x203
  200518:	32e50513          	addi	a0,a0,814 # 20332e <print_hex8.HEX+0x11>
  20051c:	002035b7          	lui	a1,0x203
  200520:	d2658593          	addi	a1,a1,-730 # 202d26 <$d.1+0x14>
  200524:	16400613          	li	a2,356
  200528:	00001097          	auipc	ra,0x1
  20052c:	288080e7          	jalr	648(ra) # 2017b0 <s_printf>
  200530:	0000006f          	j	200530 <create_process+0xf4>
  200534:	00000a13          	li	s4,0
  200538:	0380006f          	j	200570 <create_process+0x134>
  20053c:	00100a13          	li	s4,1
  200540:	0300006f          	j	200570 <create_process+0x134>
  200544:	00200a13          	li	s4,2
  200548:	0280006f          	j	200570 <create_process+0x134>
  20054c:	00300a13          	li	s4,3
  200550:	0200006f          	j	200570 <create_process+0x134>
  200554:	00400a13          	li	s4,4
  200558:	0180006f          	j	200570 <create_process+0x134>
  20055c:	00500a13          	li	s4,5
  200560:	0100006f          	j	200570 <create_process+0x134>
  200564:	00600a13          	li	s4,6
  200568:	0080006f          	j	200570 <create_process+0x134>
  20056c:	00700a13          	li	s4,7
    *--sp = 0;  // s11
  200570:	004a1513          	slli	a0,s4,0x4
  200574:	00da1593          	slli	a1,s4,0xd
  200578:	00a5ebb3          	or	s7,a1,a0
  20057c:	01760633          	add	a2,a2,s7
  200580:	00002537          	lui	a0,0x2
  200584:	00a605b3          	add	a1,a2,a0
  200588:	0005a623          	sw	zero,12(a1)
    *--sp = 0;  // s10
  20058c:	0005a423          	sw	zero,8(a1)
    *--sp = 0;  // s9
  200590:	0005a223          	sw	zero,4(a1)
    *--sp = 0;  // s8
  200594:	0005a023          	sw	zero,0(a1)
    *--sp = 0;  // s7
  200598:	fe05ae23          	sw	zero,-4(a1)
    *--sp = 0;  // s6
  20059c:	fe05ac23          	sw	zero,-8(a1)
    *--sp = 0;  // s5
  2005a0:	fe05aa23          	sw	zero,-12(a1)
    *--sp = 0;  // s4
  2005a4:	fe05a823          	sw	zero,-16(a1)
    *--sp = 0;  // s3
  2005a8:	fe05a623          	sw	zero,-20(a1)
    *--sp = 0;  // s2
  2005ac:	fe05a423          	sw	zero,-24(a1)
    *--sp = 0;  // s1
  2005b0:	fe05a223          	sw	zero,-28(a1)
    *--sp = 0;  // s0
  2005b4:	fe05a023          	sw	zero,-32(a1)
  2005b8:	fdc50593          	addi	a1,a0,-36 # 1fdc <$d.2+0x12e>
    if (!initialized) {
  2005bc:	00225537          	lui	a0,0x225
  2005c0:	70854683          	lbu	a3,1800(a0) # 225708 <alloc_pages.initialized>
    *--sp = (uint32_t)user_entry;  // ra
  2005c4:	00b60c33          	add	s8,a2,a1
  2005c8:	002005b7          	lui	a1,0x200
  2005cc:	10858593          	addi	a1,a1,264 # 200108 <user_entry>
  2005d0:	00bc2023          	sw	a1,0(s8)
  2005d4:	00068863          	beqz	a3,2005e4 <create_process+0x1a8>
    paddr_t paddr = next_paddr;
  2005d8:	00225537          	lui	a0,0x225
  2005dc:	70c52903          	lw	s2,1804(a0) # 22570c <alloc_pages.next_paddr>
  2005e0:	0140006f          	j	2005f4 <create_process+0x1b8>
  2005e4:	00100593          	li	a1,1
        initialized = 1;
  2005e8:	70b50423          	sb	a1,1800(a0)
  2005ec:	00256537          	lui	a0,0x256
  2005f0:	00050913          	mv	s2,a0
  2005f4:	00001537          	lui	a0,0x1
    next_paddr += n * PAGE_SIZE;
  2005f8:	00a90533          	add	a0,s2,a0
  2005fc:	002255b7          	lui	a1,0x225
    if (next_paddr > (paddr_t)__free_ram_end)
  200600:	00356637          	lui	a2,0x356
  200604:	00060493          	mv	s1,a2
    next_paddr += n * PAGE_SIZE;
  200608:	70a5a623          	sw	a0,1804(a1) # 22570c <alloc_pages.next_paddr>
    if (next_paddr > (paddr_t)__free_ram_end)
  20060c:	02a4f263          	bgeu	s1,a0,200630 <create_process+0x1f4>
        PANIC("out of memory");
  200610:	00203537          	lui	a0,0x203
  200614:	11550513          	addi	a0,a0,277 # 203115 <$d.4>
  200618:	002035b7          	lui	a1,0x203
  20061c:	d2658593          	addi	a1,a1,-730 # 202d26 <$d.1+0x14>
  200620:	08900613          	li	a2,137
  200624:	00001097          	auipc	ra,0x1
  200628:	18c080e7          	jalr	396(ra) # 2017b0 <s_printf>
  20062c:	0000006f          	j	20062c <create_process+0x1f0>
    memset((void *) paddr, 0, n * PAGE_SIZE);
  200630:	00001637          	lui	a2,0x1
  200634:	00001437          	lui	s0,0x1
  200638:	00090513          	mv	a0,s2
  20063c:	00000593          	li	a1,0
  200640:	00001097          	auipc	ra,0x1
  200644:	054080e7          	jalr	84(ra) # 201694 <memset>
    s_printf("---- kernel map start. ----\n");
  200648:	00203537          	lui	a0,0x203
  20064c:	35650513          	addi	a0,a0,854 # 203356 <$d.1+0x3>
  200650:	00001097          	auipc	ra,0x1
  200654:	160080e7          	jalr	352(ra) # 2017b0 <s_printf>
    for (paddr_t paddr = (paddr_t) __kernel_base;
  200658:	00200537          	lui	a0,0x200
  20065c:	00050993          	mv	s3,a0
  200660:	0299f663          	bgeu	s3,s1,20068c <create_process+0x250>
  200664:	00356537          	lui	a0,0x356
  200668:	00050493          	mv	s1,a0
        map_page(page_table, paddr, paddr, PAGE_R | PAGE_W | PAGE_X);
  20066c:	00e00693          	li	a3,14
  200670:	00090513          	mv	a0,s2
  200674:	00098593          	mv	a1,s3
  200678:	00098613          	mv	a2,s3
  20067c:	00000097          	auipc	ra,0x0
  200680:	c3c080e7          	jalr	-964(ra) # 2002b8 <map_page>
         paddr < (paddr_t) __free_ram_end; paddr += PAGE_SIZE)
  200684:	008989b3          	add	s3,s3,s0
    for (paddr_t paddr = (paddr_t) __kernel_base;
  200688:	fe99e2e3          	bltu	s3,s1,20066c <create_process+0x230>
    s_printf("---- MMIO map start. ----\n");
  20068c:	00203537          	lui	a0,0x203
  200690:	0fa50513          	addi	a0,a0,250 # 2030fa <$d.3+0x345>
  200694:	00001097          	auipc	ra,0x1
  200698:	11c080e7          	jalr	284(ra) # 2017b0 <s_printf>
    if ((table1[vpn1] & PAGE_V) == 0) {
  20069c:	10092503          	lw	a0,256(s2)
  2006a0:	00157593          	andi	a1,a0,1
  2006a4:	08059663          	bnez	a1,200730 <create_process+0x2f4>
    if (!initialized) {
  2006a8:	00225537          	lui	a0,0x225
  2006ac:	70854583          	lbu	a1,1800(a0) # 225708 <alloc_pages.initialized>
  2006b0:	00058863          	beqz	a1,2006c0 <create_process+0x284>
    paddr_t paddr = next_paddr;
  2006b4:	00225537          	lui	a0,0x225
  2006b8:	70c52983          	lw	s3,1804(a0) # 22570c <alloc_pages.next_paddr>
  2006bc:	0140006f          	j	2006d0 <create_process+0x294>
  2006c0:	00100593          	li	a1,1
        initialized = 1;
  2006c4:	70b50423          	sb	a1,1800(a0)
  2006c8:	00256537          	lui	a0,0x256
  2006cc:	00050993          	mv	s3,a0
  2006d0:	00001537          	lui	a0,0x1
    next_paddr += n * PAGE_SIZE;
  2006d4:	00a98533          	add	a0,s3,a0
  2006d8:	002255b7          	lui	a1,0x225
    if (next_paddr > (paddr_t)__free_ram_end)
  2006dc:	00356637          	lui	a2,0x356
  2006e0:	00060613          	mv	a2,a2
    next_paddr += n * PAGE_SIZE;
  2006e4:	70a5a623          	sw	a0,1804(a1) # 22570c <alloc_pages.next_paddr>
    if (next_paddr > (paddr_t)__free_ram_end)
  2006e8:	02a67263          	bgeu	a2,a0,20070c <create_process+0x2d0>
        PANIC("out of memory");
  2006ec:	00203537          	lui	a0,0x203
  2006f0:	11550513          	addi	a0,a0,277 # 203115 <$d.4>
  2006f4:	002035b7          	lui	a1,0x203
  2006f8:	d2658593          	addi	a1,a1,-730 # 202d26 <$d.1+0x14>
  2006fc:	08900613          	li	a2,137
  200700:	00001097          	auipc	ra,0x1
  200704:	0b0080e7          	jalr	176(ra) # 2017b0 <s_printf>
  200708:	0000006f          	j	200708 <create_process+0x2cc>
    memset((void *) paddr, 0, n * PAGE_SIZE);
  20070c:	00001637          	lui	a2,0x1
  200710:	00098513          	mv	a0,s3
  200714:	00000593          	li	a1,0
  200718:	00001097          	auipc	ra,0x1
  20071c:	f7c080e7          	jalr	-132(ra) # 201694 <memset>
        table1[vpn1] = ((pt_paddr / PAGE_SIZE) << 10) | PAGE_V;
  200720:	00c9d513          	srli	a0,s3,0xc
  200724:	00a51513          	slli	a0,a0,0xa
  200728:	00150513          	addi	a0,a0,1
  20072c:	10a92023          	sw	a0,256(s2)
    uint32_t *table0 = (uint32_t *) ((table1[vpn1] >> 10) * PAGE_SIZE);
  200730:	00a55513          	srli	a0,a0,0xa
  200734:	00c51513          	slli	a0,a0,0xc
  200738:	040005b7          	lui	a1,0x4000
  20073c:	00758593          	addi	a1,a1,7 # 4000007 <__free_ram_end+0x3caa007>
    table0[vpn0] = ((paddr / PAGE_SIZE) << 10) | flags | PAGE_V;
  200740:	00b52023          	sw	a1,0(a0)
    s_printf("---- SA core address map start. ----\n");
  200744:	00203537          	lui	a0,0x203
  200748:	dc450513          	addi	a0,a0,-572 # 202dc4 <$d.3+0xf>
  20074c:	00001097          	auipc	ra,0x1
  200750:	064080e7          	jalr	100(ra) # 2017b0 <s_printf>
    if ((table1[vpn1] & PAGE_V) == 0) {
  200754:	10092503          	lw	a0,256(s2)
  200758:	00157593          	andi	a1,a0,1
  20075c:	08059663          	bnez	a1,2007e8 <create_process+0x3ac>
    if (!initialized) {
  200760:	00225537          	lui	a0,0x225
  200764:	70854583          	lbu	a1,1800(a0) # 225708 <alloc_pages.initialized>
  200768:	00058863          	beqz	a1,200778 <create_process+0x33c>
    paddr_t paddr = next_paddr;
  20076c:	00225537          	lui	a0,0x225
  200770:	70c52983          	lw	s3,1804(a0) # 22570c <alloc_pages.next_paddr>
  200774:	0140006f          	j	200788 <create_process+0x34c>
  200778:	00100593          	li	a1,1
        initialized = 1;
  20077c:	70b50423          	sb	a1,1800(a0)
  200780:	00256537          	lui	a0,0x256
  200784:	00050993          	mv	s3,a0
  200788:	00001537          	lui	a0,0x1
    next_paddr += n * PAGE_SIZE;
  20078c:	00a98533          	add	a0,s3,a0
  200790:	002255b7          	lui	a1,0x225
    if (next_paddr > (paddr_t)__free_ram_end)
  200794:	00356637          	lui	a2,0x356
  200798:	00060613          	mv	a2,a2
    next_paddr += n * PAGE_SIZE;
  20079c:	70a5a623          	sw	a0,1804(a1) # 22570c <alloc_pages.next_paddr>
    if (next_paddr > (paddr_t)__free_ram_end)
  2007a0:	02a67263          	bgeu	a2,a0,2007c4 <create_process+0x388>
        PANIC("out of memory");
  2007a4:	00203537          	lui	a0,0x203
  2007a8:	11550513          	addi	a0,a0,277 # 203115 <$d.4>
  2007ac:	002035b7          	lui	a1,0x203
  2007b0:	d2658593          	addi	a1,a1,-730 # 202d26 <$d.1+0x14>
  2007b4:	08900613          	li	a2,137
  2007b8:	00001097          	auipc	ra,0x1
  2007bc:	ff8080e7          	jalr	-8(ra) # 2017b0 <s_printf>
  2007c0:	0000006f          	j	2007c0 <create_process+0x384>
    memset((void *) paddr, 0, n * PAGE_SIZE);
  2007c4:	00001637          	lui	a2,0x1
  2007c8:	00098513          	mv	a0,s3
  2007cc:	00000593          	li	a1,0
  2007d0:	00001097          	auipc	ra,0x1
  2007d4:	ec4080e7          	jalr	-316(ra) # 201694 <memset>
        table1[vpn1] = ((pt_paddr / PAGE_SIZE) << 10) | PAGE_V;
  2007d8:	00c9d513          	srli	a0,s3,0xc
  2007dc:	00a51513          	slli	a0,a0,0xa
  2007e0:	00150513          	addi	a0,a0,1
  2007e4:	10a92023          	sw	a0,256(s2)
    uint32_t *table0 = (uint32_t *) ((table1[vpn1] >> 10) * PAGE_SIZE);
  2007e8:	00a55513          	srli	a0,a0,0xa
  2007ec:	00c51513          	slli	a0,a0,0xc
  2007f0:	040015b7          	lui	a1,0x4001
  2007f4:	40758593          	addi	a1,a1,1031 # 4001407 <__free_ram_end+0x3cab407>
    table0[vpn0] = ((paddr / PAGE_SIZE) << 10) | flags | PAGE_V;
  2007f8:	00b52a23          	sw	a1,20(a0)
    s_printf("---- SA core data address map start. ----\n");
  2007fc:	00203537          	lui	a0,0x203
  200800:	e5550513          	addi	a0,a0,-427 # 202e55 <$d.3+0xa0>
  200804:	00001097          	auipc	ra,0x1
  200808:	fac080e7          	jalr	-84(ra) # 2017b0 <s_printf>
    if ((table1[vpn1] & PAGE_V) == 0) {
  20080c:	00092503          	lw	a0,0(s2)
  200810:	00157593          	andi	a1,a0,1
  200814:	08059663          	bnez	a1,2008a0 <create_process+0x464>
    if (!initialized) {
  200818:	00225537          	lui	a0,0x225
  20081c:	70854583          	lbu	a1,1800(a0) # 225708 <alloc_pages.initialized>
  200820:	00058863          	beqz	a1,200830 <create_process+0x3f4>
    paddr_t paddr = next_paddr;
  200824:	00225537          	lui	a0,0x225
  200828:	70c52983          	lw	s3,1804(a0) # 22570c <alloc_pages.next_paddr>
  20082c:	0140006f          	j	200840 <create_process+0x404>
  200830:	00100593          	li	a1,1
        initialized = 1;
  200834:	70b50423          	sb	a1,1800(a0)
  200838:	00256537          	lui	a0,0x256
  20083c:	00050993          	mv	s3,a0
  200840:	00001537          	lui	a0,0x1
    next_paddr += n * PAGE_SIZE;
  200844:	00a98533          	add	a0,s3,a0
  200848:	002255b7          	lui	a1,0x225
    if (next_paddr > (paddr_t)__free_ram_end)
  20084c:	00356637          	lui	a2,0x356
  200850:	00060613          	mv	a2,a2
    next_paddr += n * PAGE_SIZE;
  200854:	70a5a623          	sw	a0,1804(a1) # 22570c <alloc_pages.next_paddr>
    if (next_paddr > (paddr_t)__free_ram_end)
  200858:	02a67263          	bgeu	a2,a0,20087c <create_process+0x440>
        PANIC("out of memory");
  20085c:	00203537          	lui	a0,0x203
  200860:	11550513          	addi	a0,a0,277 # 203115 <$d.4>
  200864:	002035b7          	lui	a1,0x203
  200868:	d2658593          	addi	a1,a1,-730 # 202d26 <$d.1+0x14>
  20086c:	08900613          	li	a2,137
  200870:	00001097          	auipc	ra,0x1
  200874:	f40080e7          	jalr	-192(ra) # 2017b0 <s_printf>
  200878:	0000006f          	j	200878 <create_process+0x43c>
    memset((void *) paddr, 0, n * PAGE_SIZE);
  20087c:	00001637          	lui	a2,0x1
  200880:	00098513          	mv	a0,s3
  200884:	00000593          	li	a1,0
  200888:	00001097          	auipc	ra,0x1
  20088c:	e0c080e7          	jalr	-500(ra) # 201694 <memset>
        table1[vpn1] = ((pt_paddr / PAGE_SIZE) << 10) | PAGE_V;
  200890:	00c9d513          	srli	a0,s3,0xc
  200894:	00a51513          	slli	a0,a0,0xa
  200898:	00150513          	addi	a0,a0,1
  20089c:	00a92023          	sw	a0,0(s2)
    uint32_t *table0 = (uint32_t *) ((table1[vpn1] >> 10) * PAGE_SIZE);
  2008a0:	00a55513          	srli	a0,a0,0xa
  2008a4:	00c51513          	slli	a0,a0,0xc
  2008a8:	000085b7          	lui	a1,0x8
  2008ac:	00758593          	addi	a1,a1,7 # 8007 <$d.4+0x589a>
    table0[vpn0] = ((paddr / PAGE_SIZE) << 10) | flags | PAGE_V;
  2008b0:	08b52023          	sw	a1,128(a0)
    s_printf("---- SA core data wb address map start. ----\n");
  2008b4:	00203537          	lui	a0,0x203
  2008b8:	e2750513          	addi	a0,a0,-473 # 202e27 <$d.3+0x72>
  2008bc:	00001097          	auipc	ra,0x1
  2008c0:	ef4080e7          	jalr	-268(ra) # 2017b0 <s_printf>
    if ((table1[vpn1] & PAGE_V) == 0) {
  2008c4:	00092503          	lw	a0,0(s2)
  2008c8:	00157593          	andi	a1,a0,1
  2008cc:	08059663          	bnez	a1,200958 <create_process+0x51c>
    if (!initialized) {
  2008d0:	00225537          	lui	a0,0x225
  2008d4:	70854583          	lbu	a1,1800(a0) # 225708 <alloc_pages.initialized>
  2008d8:	00058863          	beqz	a1,2008e8 <create_process+0x4ac>
    paddr_t paddr = next_paddr;
  2008dc:	00225537          	lui	a0,0x225
  2008e0:	70c52983          	lw	s3,1804(a0) # 22570c <alloc_pages.next_paddr>
  2008e4:	0140006f          	j	2008f8 <create_process+0x4bc>
  2008e8:	00100593          	li	a1,1
        initialized = 1;
  2008ec:	70b50423          	sb	a1,1800(a0)
  2008f0:	00256537          	lui	a0,0x256
  2008f4:	00050993          	mv	s3,a0
  2008f8:	00001537          	lui	a0,0x1
    next_paddr += n * PAGE_SIZE;
  2008fc:	00a98533          	add	a0,s3,a0
  200900:	002255b7          	lui	a1,0x225
    if (next_paddr > (paddr_t)__free_ram_end)
  200904:	00356637          	lui	a2,0x356
  200908:	00060613          	mv	a2,a2
    next_paddr += n * PAGE_SIZE;
  20090c:	70a5a623          	sw	a0,1804(a1) # 22570c <alloc_pages.next_paddr>
    if (next_paddr > (paddr_t)__free_ram_end)
  200910:	02a67263          	bgeu	a2,a0,200934 <create_process+0x4f8>
        PANIC("out of memory");
  200914:	00203537          	lui	a0,0x203
  200918:	11550513          	addi	a0,a0,277 # 203115 <$d.4>
  20091c:	002035b7          	lui	a1,0x203
  200920:	d2658593          	addi	a1,a1,-730 # 202d26 <$d.1+0x14>
  200924:	08900613          	li	a2,137
  200928:	00001097          	auipc	ra,0x1
  20092c:	e88080e7          	jalr	-376(ra) # 2017b0 <s_printf>
  200930:	0000006f          	j	200930 <create_process+0x4f4>
    memset((void *) paddr, 0, n * PAGE_SIZE);
  200934:	00001637          	lui	a2,0x1
  200938:	00098513          	mv	a0,s3
  20093c:	00000593          	li	a1,0
  200940:	00001097          	auipc	ra,0x1
  200944:	d54080e7          	jalr	-684(ra) # 201694 <memset>
        table1[vpn1] = ((pt_paddr / PAGE_SIZE) << 10) | PAGE_V;
  200948:	00c9d513          	srli	a0,s3,0xc
  20094c:	00a51513          	slli	a0,a0,0xa
  200950:	00150513          	addi	a0,a0,1
  200954:	00a92023          	sw	a0,0(s2)
  200958:	01812023          	sw	s8,0(sp)
  20095c:	01712223          	sw	s7,4(sp)
  200960:	01412423          	sw	s4,8(sp)
    uint32_t *table0 = (uint32_t *) ((table1[vpn1] >> 10) * PAGE_SIZE);
  200964:	00a55513          	srli	a0,a0,0xa
  200968:	00c51513          	slli	a0,a0,0xc
  20096c:	0000c5b7          	lui	a1,0xc
  200970:	00758593          	addi	a1,a1,7 # c007 <$d.4+0x989a>
    table0[vpn0] = ((paddr / PAGE_SIZE) << 10) | flags | PAGE_V;
  200974:	0cb52023          	sw	a1,192(a0)
    s_printf("---- SD-Card IF address map start. ----\n");
  200978:	00203537          	lui	a0,0x203
  20097c:	d3550513          	addi	a0,a0,-715 # 202d35 <$d.1+0x23>
  200980:	00001097          	auipc	ra,0x1
  200984:	e30080e7          	jalr	-464(ra) # 2017b0 <s_printf>
    if ((table1[vpn1] & PAGE_V) == 0) {
  200988:	10092503          	lw	a0,256(s2)
  20098c:	00157593          	andi	a1,a0,1
  200990:	08059663          	bnez	a1,200a1c <create_process+0x5e0>
    if (!initialized) {
  200994:	00225537          	lui	a0,0x225
  200998:	70854583          	lbu	a1,1800(a0) # 225708 <alloc_pages.initialized>
  20099c:	00058863          	beqz	a1,2009ac <create_process+0x570>
    paddr_t paddr = next_paddr;
  2009a0:	00225537          	lui	a0,0x225
  2009a4:	70c52983          	lw	s3,1804(a0) # 22570c <alloc_pages.next_paddr>
  2009a8:	0140006f          	j	2009bc <create_process+0x580>
  2009ac:	00100593          	li	a1,1
        initialized = 1;
  2009b0:	70b50423          	sb	a1,1800(a0)
  2009b4:	00256537          	lui	a0,0x256
  2009b8:	00050993          	mv	s3,a0
  2009bc:	00001537          	lui	a0,0x1
    next_paddr += n * PAGE_SIZE;
  2009c0:	00a98533          	add	a0,s3,a0
  2009c4:	002255b7          	lui	a1,0x225
    if (next_paddr > (paddr_t)__free_ram_end)
  2009c8:	00356637          	lui	a2,0x356
  2009cc:	00060613          	mv	a2,a2
    next_paddr += n * PAGE_SIZE;
  2009d0:	70a5a623          	sw	a0,1804(a1) # 22570c <alloc_pages.next_paddr>
    if (next_paddr > (paddr_t)__free_ram_end)
  2009d4:	02a67263          	bgeu	a2,a0,2009f8 <create_process+0x5bc>
        PANIC("out of memory");
  2009d8:	00203537          	lui	a0,0x203
  2009dc:	11550513          	addi	a0,a0,277 # 203115 <$d.4>
  2009e0:	002035b7          	lui	a1,0x203
  2009e4:	d2658593          	addi	a1,a1,-730 # 202d26 <$d.1+0x14>
  2009e8:	08900613          	li	a2,137
  2009ec:	00001097          	auipc	ra,0x1
  2009f0:	dc4080e7          	jalr	-572(ra) # 2017b0 <s_printf>
  2009f4:	0000006f          	j	2009f4 <create_process+0x5b8>
    memset((void *) paddr, 0, n * PAGE_SIZE);
  2009f8:	00001637          	lui	a2,0x1
  2009fc:	00098513          	mv	a0,s3
  200a00:	00000593          	li	a1,0
  200a04:	00001097          	auipc	ra,0x1
  200a08:	c90080e7          	jalr	-880(ra) # 201694 <memset>
        table1[vpn1] = ((pt_paddr / PAGE_SIZE) << 10) | PAGE_V;
  200a0c:	00c9d513          	srli	a0,s3,0xc
  200a10:	00a51513          	slli	a0,a0,0xa
  200a14:	00150513          	addi	a0,a0,1
  200a18:	10a92023          	sw	a0,256(s2)
    uint32_t *table0 = (uint32_t *) ((table1[vpn1] >> 10) * PAGE_SIZE);
  200a1c:	00a55513          	srli	a0,a0,0xa
  200a20:	00c51513          	slli	a0,a0,0xc
  200a24:	040025b7          	lui	a1,0x4002
  200a28:	80758593          	addi	a1,a1,-2041 # 4001807 <__free_ram_end+0x3cab807>
    table0[vpn0] = ((paddr / PAGE_SIZE) << 10) | flags | PAGE_V;
  200a2c:	00b52c23          	sw	a1,24(a0)
    if (image && image_size > 0) {
  200a30:	180a8463          	beqz	s5,200bb8 <create_process+0x77c>
  200a34:	180b0263          	beqz	s6,200bb8 <create_process+0x77c>
        s_printf("---- user image map start. ----\n");
  200a38:	00203537          	lui	a0,0x203
  200a3c:	df350513          	addi	a0,a0,-525 # 202df3 <$d.3+0x3e>
  200a40:	00001097          	auipc	ra,0x1
  200a44:	d70080e7          	jalr	-656(ra) # 2017b0 <s_printf>
  200a48:	00000b93          	li	s7,0
  200a4c:	00225c37          	lui	s8,0x225
  200a50:	00225cb7          	lui	s9,0x225
  200a54:	00356537          	lui	a0,0x356
  200a58:	00050d93          	mv	s11,a0
  200a5c:	004004b7          	lui	s1,0x400
  200a60:	00256537          	lui	a0,0x256
  200a64:	00050d13          	mv	s10,a0
  200a68:	000b0413          	mv	s0,s6
  200a6c:	00001a37          	lui	s4,0x1
  200a70:	03c0006f          	j	200aac <create_process+0x670>
            memcpy((void *)page, (const uint8_t *)image + off, copy_size);
  200a74:	017a85b3          	add	a1,s5,s7
  200a78:	00098513          	mv	a0,s3
  200a7c:	00001097          	auipc	ra,0x1
  200a80:	bf0080e7          	jalr	-1040(ra) # 20166c <memcpy>
                    USER_BASE + off,
  200a84:	009b85b3          	add	a1,s7,s1
            map_page(page_table,
  200a88:	01e00693          	li	a3,30
  200a8c:	00090513          	mv	a0,s2
  200a90:	00098613          	mv	a2,s3
  200a94:	00000097          	auipc	ra,0x0
  200a98:	824080e7          	jalr	-2012(ra) # 2002b8 <map_page>
        for (uint32_t off = 0; off < image_size; off += PAGE_SIZE) {
  200a9c:	014b8bb3          	add	s7,s7,s4
  200aa0:	80040513          	addi	a0,s0,-2048 # 800 <$d.3+0x7a>
  200aa4:	80050413          	addi	s0,a0,-2048 # 255800 <__bss_end+0x1fcec>
  200aa8:	076bfa63          	bgeu	s7,s6,200b1c <create_process+0x6e0>
    if (!initialized) {
  200aac:	708c4503          	lbu	a0,1800(s8) # 225708 <alloc_pages.initialized>
  200ab0:	00050663          	beqz	a0,200abc <create_process+0x680>
    paddr_t paddr = next_paddr;
  200ab4:	70cca983          	lw	s3,1804(s9) # 22570c <alloc_pages.next_paddr>
  200ab8:	0100006f          	j	200ac8 <create_process+0x68c>
        initialized = 1;
  200abc:	00100513          	li	a0,1
  200ac0:	70ac0423          	sb	a0,1800(s8)
  200ac4:	000d0993          	mv	s3,s10
    next_paddr += n * PAGE_SIZE;
  200ac8:	00001537          	lui	a0,0x1
  200acc:	00a98533          	add	a0,s3,a0
  200ad0:	70aca623          	sw	a0,1804(s9)
    if (next_paddr > (paddr_t)__free_ram_end)
  200ad4:	02ade463          	bltu	s11,a0,200afc <create_process+0x6c0>
    memset((void *) paddr, 0, n * PAGE_SIZE);
  200ad8:	00001637          	lui	a2,0x1
  200adc:	00098513          	mv	a0,s3
  200ae0:	00000593          	li	a1,0
  200ae4:	00001097          	auipc	ra,0x1
  200ae8:	bb0080e7          	jalr	-1104(ra) # 201694 <memset>
  200aec:	00040613          	mv	a2,s0
            size_t copy_size = (remaining < PAGE_SIZE) ? remaining : PAGE_SIZE;
  200af0:	f94462e3          	bltu	s0,s4,200a74 <create_process+0x638>
  200af4:	00001637          	lui	a2,0x1
  200af8:	f7dff06f          	j	200a74 <create_process+0x638>
        PANIC("out of memory");
  200afc:	00203537          	lui	a0,0x203
  200b00:	11550513          	addi	a0,a0,277 # 203115 <$d.4>
  200b04:	002035b7          	lui	a1,0x203
  200b08:	d2658593          	addi	a1,a1,-730 # 202d26 <$d.1+0x14>
  200b0c:	08900613          	li	a2,137
  200b10:	00001097          	auipc	ra,0x1
  200b14:	ca0080e7          	jalr	-864(ra) # 2017b0 <s_printf>
  200b18:	0000006f          	j	200b18 <create_process+0x6dc>
        s_printf("---- user stack map start. ----\n");
  200b1c:	00203537          	lui	a0,0x203
  200b20:	2ac50513          	addi	a0,a0,684 # 2032ac <$d.4+0x197>
  200b24:	00001097          	auipc	ra,0x1
  200b28:	c8c080e7          	jalr	-884(ra) # 2017b0 <s_printf>
  200b2c:	004e0437          	lui	s0,0x4e0
  200b30:	004df9b7          	lui	s3,0x4df
  200b34:	00225ab7          	lui	s5,0x225
  200b38:	00225bb7          	lui	s7,0x225
  200b3c:	00001c37          	lui	s8,0x1
  200b40:	00356537          	lui	a0,0x356
  200b44:	00050c93          	mv	s9,a0
  200b48:	4ff00d13          	li	s10,1279
  200b4c:	00100a13          	li	s4,1
  200b50:	00256537          	lui	a0,0x256
  200b54:	00050d93          	mv	s11,a0
    if (!initialized) {
  200b58:	708ac503          	lbu	a0,1800(s5) # 225708 <alloc_pages.initialized>
  200b5c:	00050663          	beqz	a0,200b68 <create_process+0x72c>
    paddr_t paddr = next_paddr;
  200b60:	70cba483          	lw	s1,1804(s7) # 22570c <alloc_pages.next_paddr>
  200b64:	00c0006f          	j	200b70 <create_process+0x734>
        initialized = 1;
  200b68:	714a8423          	sb	s4,1800(s5)
  200b6c:	000d8493          	mv	s1,s11
    next_paddr += n * PAGE_SIZE;
  200b70:	01848533          	add	a0,s1,s8
  200b74:	70aba623          	sw	a0,1804(s7)
    if (next_paddr > (paddr_t)__free_ram_end)
  200b78:	0cace063          	bltu	s9,a0,200c38 <create_process+0x7fc>
    memset((void *) paddr, 0, n * PAGE_SIZE);
  200b7c:	00001637          	lui	a2,0x1
  200b80:	00048513          	mv	a0,s1
  200b84:	00000593          	li	a1,0
  200b88:	00001097          	auipc	ra,0x1
  200b8c:	b0c080e7          	jalr	-1268(ra) # 201694 <memset>
            map_page(page_table,
  200b90:	01600693          	li	a3,22
  200b94:	00090513          	mv	a0,s2
  200b98:	00040593          	mv	a1,s0
  200b9c:	00048613          	mv	a2,s1
  200ba0:	fffff097          	auipc	ra,0xfffff
  200ba4:	718080e7          	jalr	1816(ra) # 2002b8 <map_page>
            va < USER_STACK_TOP;
  200ba8:	018989b3          	add	s3,s3,s8
  200bac:	00c9d513          	srli	a0,s3,0xc
            va += PAGE_SIZE) {
  200bb0:	01840433          	add	s0,s0,s8
        for (uint32_t va = stack_bottom;
  200bb4:	fba562e3          	bltu	a0,s10,200b58 <create_process+0x71c>
        if (procs[i].state == PROC_UNUSED) {
  200bb8:	00225537          	lui	a0,0x225
  200bbc:	73050413          	addi	s0,a0,1840 # 225730 <procs>
  200bc0:	00412503          	lw	a0,4(sp)
  200bc4:	00a40433          	add	s0,s0,a0
  200bc8:	00812a03          	lw	s4,8(sp)
    proc->pid        = i + 1;
  200bcc:	001a0a13          	addi	s4,s4,1 # 1001 <$d.3+0x87b>
  200bd0:	01442023          	sw	s4,0(s0) # 4e0000 <__free_ram_end+0x18a000>
  200bd4:	00100513          	li	a0,1
    proc->state      = PROC_RUNNABLE;
  200bd8:	00a42223          	sw	a0,4(s0)
  200bdc:	00012503          	lw	a0,0(sp)
    proc->sp         = (uint32_t)sp;
  200be0:	00a42423          	sw	a0,8(s0)
    proc->page_table = page_table;
  200be4:	01242623          	sw	s2,12(s0)
    s_printf("create_process_End\n");
  200be8:	00203537          	lui	a0,0x203
  200bec:	1b450513          	addi	a0,a0,436 # 2031b4 <$d.4+0x9f>
  200bf0:	00001097          	auipc	ra,0x1
  200bf4:	bc0080e7          	jalr	-1088(ra) # 2017b0 <s_printf>
    return proc;
  200bf8:	00040513          	mv	a0,s0
  200bfc:	03c12083          	lw	ra,60(sp)
  200c00:	03812403          	lw	s0,56(sp)
  200c04:	03412483          	lw	s1,52(sp)
  200c08:	03012903          	lw	s2,48(sp)
  200c0c:	02c12983          	lw	s3,44(sp)
  200c10:	02812a03          	lw	s4,40(sp)
  200c14:	02412a83          	lw	s5,36(sp)
  200c18:	02012b03          	lw	s6,32(sp)
  200c1c:	01c12b83          	lw	s7,28(sp)
  200c20:	01812c03          	lw	s8,24(sp)
  200c24:	01412c83          	lw	s9,20(sp)
  200c28:	01012d03          	lw	s10,16(sp)
  200c2c:	00c12d83          	lw	s11,12(sp)
  200c30:	04010113          	addi	sp,sp,64
  200c34:	00008067          	ret
        PANIC("out of memory");
  200c38:	00203537          	lui	a0,0x203
  200c3c:	11550513          	addi	a0,a0,277 # 203115 <$d.4>
  200c40:	002035b7          	lui	a1,0x203
  200c44:	d2658593          	addi	a1,a1,-730 # 202d26 <$d.1+0x14>
  200c48:	08900613          	li	a2,137
  200c4c:	00001097          	auipc	ra,0x1
  200c50:	b64080e7          	jalr	-1180(ra) # 2017b0 <s_printf>
  200c54:	0000006f          	j	200c54 <create_process+0x818>

00200c58 <yield>:
void yield(void) {
  200c58:	00225537          	lui	a0,0x225
  200c5c:	71452503          	lw	a0,1812(a0) # 225714 <current_proc>
  200c60:	00052603          	lw	a2,0(a0)
    struct process *next = idle_proc;
  200c64:	002255b7          	lui	a1,0x225
        struct process *proc = &procs[(current_proc->pid + i) % PROCS_MAX];
  200c68:	41f65693          	srai	a3,a2,0x1f
  200c6c:	01d6d693          	srli	a3,a3,0x1d
  200c70:	00d606b3          	add	a3,a2,a3
  200c74:	ff86f693          	andi	a3,a3,-8
  200c78:	40d606b3          	sub	a3,a2,a3
        if (proc->state == PROC_RUNNABLE && proc->pid > 0) {
  200c7c:	00469713          	slli	a4,a3,0x4
  200c80:	00d69693          	slli	a3,a3,0xd
  200c84:	00e686b3          	add	a3,a3,a4
  200c88:	00225737          	lui	a4,0x225
  200c8c:	73070713          	addi	a4,a4,1840 # 225730 <procs>
  200c90:	00d706b3          	add	a3,a4,a3
  200c94:	0046a803          	lw	a6,4(a3) # 356004 <__free_ram_end+0x4>
    struct process *next = idle_proc;
  200c98:	7105a583          	lw	a1,1808(a1) # 225710 <idle_proc>
  200c9c:	00100793          	li	a5,1
        if (proc->state == PROC_RUNNABLE && proc->pid > 0) {
  200ca0:	00f81663          	bne	a6,a5,200cac <yield+0x54>
  200ca4:	0006a803          	lw	a6,0(a3)
  200ca8:	1f004263          	bgtz	a6,200e8c <yield+0x234>
        struct process *proc = &procs[(current_proc->pid + i) % PROCS_MAX];
  200cac:	00160693          	addi	a3,a2,1 # 1001 <$d.3+0x87b>
  200cb0:	41f6d813          	srai	a6,a3,0x1f
  200cb4:	01d85813          	srli	a6,a6,0x1d
  200cb8:	01068833          	add	a6,a3,a6
  200cbc:	ff887813          	andi	a6,a6,-8
  200cc0:	410686b3          	sub	a3,a3,a6
        if (proc->state == PROC_RUNNABLE && proc->pid > 0) {
  200cc4:	00469813          	slli	a6,a3,0x4
  200cc8:	00d69693          	slli	a3,a3,0xd
  200ccc:	010686b3          	add	a3,a3,a6
  200cd0:	00d70733          	add	a4,a4,a3
  200cd4:	00472703          	lw	a4,4(a4)
  200cd8:	00f71c63          	bne	a4,a5,200cf0 <yield+0x98>
        struct process *proc = &procs[(current_proc->pid + i) % PROCS_MAX];
  200cdc:	00225737          	lui	a4,0x225
  200ce0:	73070713          	addi	a4,a4,1840 # 225730 <procs>
  200ce4:	00d706b3          	add	a3,a4,a3
        if (proc->state == PROC_RUNNABLE && proc->pid > 0) {
  200ce8:	0006a703          	lw	a4,0(a3)
  200cec:	1ae04063          	bgtz	a4,200e8c <yield+0x234>
        struct process *proc = &procs[(current_proc->pid + i) % PROCS_MAX];
  200cf0:	00260693          	addi	a3,a2,2
  200cf4:	41f6d713          	srai	a4,a3,0x1f
  200cf8:	01d75713          	srli	a4,a4,0x1d
  200cfc:	00e68733          	add	a4,a3,a4
  200d00:	ff877713          	andi	a4,a4,-8
  200d04:	40e686b3          	sub	a3,a3,a4
        if (proc->state == PROC_RUNNABLE && proc->pid > 0) {
  200d08:	00469713          	slli	a4,a3,0x4
  200d0c:	00d69693          	slli	a3,a3,0xd
  200d10:	00e686b3          	add	a3,a3,a4
  200d14:	00225737          	lui	a4,0x225
  200d18:	73070713          	addi	a4,a4,1840 # 225730 <procs>
  200d1c:	00d706b3          	add	a3,a4,a3
  200d20:	0046a803          	lw	a6,4(a3)
  200d24:	00100793          	li	a5,1
  200d28:	00f81663          	bne	a6,a5,200d34 <yield+0xdc>
  200d2c:	0006a803          	lw	a6,0(a3)
  200d30:	15004e63          	bgtz	a6,200e8c <yield+0x234>
        struct process *proc = &procs[(current_proc->pid + i) % PROCS_MAX];
  200d34:	00360693          	addi	a3,a2,3
  200d38:	41f6d813          	srai	a6,a3,0x1f
  200d3c:	01d85813          	srli	a6,a6,0x1d
  200d40:	01068833          	add	a6,a3,a6
  200d44:	ff887813          	andi	a6,a6,-8
  200d48:	410686b3          	sub	a3,a3,a6
        if (proc->state == PROC_RUNNABLE && proc->pid > 0) {
  200d4c:	00469813          	slli	a6,a3,0x4
  200d50:	00d69693          	slli	a3,a3,0xd
  200d54:	010686b3          	add	a3,a3,a6
  200d58:	00d70733          	add	a4,a4,a3
  200d5c:	00472703          	lw	a4,4(a4)
  200d60:	00f71c63          	bne	a4,a5,200d78 <yield+0x120>
        struct process *proc = &procs[(current_proc->pid + i) % PROCS_MAX];
  200d64:	00225737          	lui	a4,0x225
  200d68:	73070713          	addi	a4,a4,1840 # 225730 <procs>
  200d6c:	00d706b3          	add	a3,a4,a3
        if (proc->state == PROC_RUNNABLE && proc->pid > 0) {
  200d70:	0006a703          	lw	a4,0(a3)
  200d74:	10e04c63          	bgtz	a4,200e8c <yield+0x234>
        struct process *proc = &procs[(current_proc->pid + i) % PROCS_MAX];
  200d78:	00460693          	addi	a3,a2,4
  200d7c:	41f6d713          	srai	a4,a3,0x1f
  200d80:	01d75713          	srli	a4,a4,0x1d
  200d84:	00e68733          	add	a4,a3,a4
  200d88:	ff877713          	andi	a4,a4,-8
  200d8c:	40e686b3          	sub	a3,a3,a4
        if (proc->state == PROC_RUNNABLE && proc->pid > 0) {
  200d90:	00469713          	slli	a4,a3,0x4
  200d94:	00d69693          	slli	a3,a3,0xd
  200d98:	00e686b3          	add	a3,a3,a4
  200d9c:	00225737          	lui	a4,0x225
  200da0:	73070713          	addi	a4,a4,1840 # 225730 <procs>
  200da4:	00d706b3          	add	a3,a4,a3
  200da8:	0046a803          	lw	a6,4(a3)
  200dac:	00100793          	li	a5,1
  200db0:	00f81663          	bne	a6,a5,200dbc <yield+0x164>
  200db4:	0006a803          	lw	a6,0(a3)
  200db8:	0d004a63          	bgtz	a6,200e8c <yield+0x234>
        struct process *proc = &procs[(current_proc->pid + i) % PROCS_MAX];
  200dbc:	00560693          	addi	a3,a2,5
  200dc0:	41f6d813          	srai	a6,a3,0x1f
  200dc4:	01d85813          	srli	a6,a6,0x1d
  200dc8:	01068833          	add	a6,a3,a6
  200dcc:	ff887813          	andi	a6,a6,-8
  200dd0:	410686b3          	sub	a3,a3,a6
        if (proc->state == PROC_RUNNABLE && proc->pid > 0) {
  200dd4:	00469813          	slli	a6,a3,0x4
  200dd8:	00d69693          	slli	a3,a3,0xd
  200ddc:	010686b3          	add	a3,a3,a6
  200de0:	00d70733          	add	a4,a4,a3
  200de4:	00472703          	lw	a4,4(a4)
  200de8:	00f71c63          	bne	a4,a5,200e00 <yield+0x1a8>
        struct process *proc = &procs[(current_proc->pid + i) % PROCS_MAX];
  200dec:	00225737          	lui	a4,0x225
  200df0:	73070713          	addi	a4,a4,1840 # 225730 <procs>
  200df4:	00d706b3          	add	a3,a4,a3
        if (proc->state == PROC_RUNNABLE && proc->pid > 0) {
  200df8:	0006a703          	lw	a4,0(a3)
  200dfc:	08e04863          	bgtz	a4,200e8c <yield+0x234>
        struct process *proc = &procs[(current_proc->pid + i) % PROCS_MAX];
  200e00:	00660693          	addi	a3,a2,6
  200e04:	41f6d713          	srai	a4,a3,0x1f
  200e08:	01d75713          	srli	a4,a4,0x1d
  200e0c:	00e68733          	add	a4,a3,a4
  200e10:	ff877713          	andi	a4,a4,-8
  200e14:	40e686b3          	sub	a3,a3,a4
        if (proc->state == PROC_RUNNABLE && proc->pid > 0) {
  200e18:	00469713          	slli	a4,a3,0x4
  200e1c:	00d69693          	slli	a3,a3,0xd
  200e20:	00e686b3          	add	a3,a3,a4
  200e24:	00225737          	lui	a4,0x225
  200e28:	73070713          	addi	a4,a4,1840 # 225730 <procs>
  200e2c:	00d706b3          	add	a3,a4,a3
  200e30:	0046a803          	lw	a6,4(a3)
  200e34:	00100793          	li	a5,1
  200e38:	00f81663          	bne	a6,a5,200e44 <yield+0x1ec>
  200e3c:	0006a803          	lw	a6,0(a3)
  200e40:	05004663          	bgtz	a6,200e8c <yield+0x234>
        struct process *proc = &procs[(current_proc->pid + i) % PROCS_MAX];
  200e44:	00760613          	addi	a2,a2,7
  200e48:	41f65693          	srai	a3,a2,0x1f
  200e4c:	01d6d693          	srli	a3,a3,0x1d
  200e50:	00d606b3          	add	a3,a2,a3
  200e54:	ff86f693          	andi	a3,a3,-8
  200e58:	40d60633          	sub	a2,a2,a3
        if (proc->state == PROC_RUNNABLE && proc->pid > 0) {
  200e5c:	00461693          	slli	a3,a2,0x4
  200e60:	00d61613          	slli	a2,a2,0xd
  200e64:	00d606b3          	add	a3,a2,a3
  200e68:	00d70733          	add	a4,a4,a3
  200e6c:	00472603          	lw	a2,4(a4)
  200e70:	00f61c63          	bne	a2,a5,200e88 <yield+0x230>
        struct process *proc = &procs[(current_proc->pid + i) % PROCS_MAX];
  200e74:	00225637          	lui	a2,0x225
  200e78:	73060613          	addi	a2,a2,1840 # 225730 <procs>
  200e7c:	00d606b3          	add	a3,a2,a3
        if (proc->state == PROC_RUNNABLE && proc->pid > 0) {
  200e80:	0006a603          	lw	a2,0(a3)
  200e84:	00c04463          	bgtz	a2,200e8c <yield+0x234>
  200e88:	00058693          	mv	a3,a1
    if (next == current_proc)
  200e8c:	00a69463          	bne	a3,a0,200e94 <yield+0x23c>
}
  200e90:	00008067          	ret
  200e94:	ff010113          	addi	sp,sp,-16
  200e98:	00112623          	sw	ra,12(sp)
        : [satp] "r" (SATP_SV32 | ((uint32_t) next->page_table / PAGE_SIZE)),
  200e9c:	00c6a583          	lw	a1,12(a3)
    current_proc = next;
  200ea0:	00225637          	lui	a2,0x225
  200ea4:	70d62a23          	sw	a3,1812(a2) # 225714 <current_proc>
        : [satp] "r" (SATP_SV32 | ((uint32_t) next->page_table / PAGE_SIZE)),
  200ea8:	00c5d593          	srli	a1,a1,0xc
  200eac:	80000637          	lui	a2,0x80000
  200eb0:	00c5e5b3          	or	a1,a1,a2
  200eb4:	00002637          	lui	a2,0x2
  200eb8:	01060613          	addi	a2,a2,16 # 2010 <$d.6+0x2c>
          [sscratch] "r" ((uint32_t) &next->stack[sizeof(next->stack)])
  200ebc:	00c68633          	add	a2,a3,a2
    __asm__ __volatile__(
  200ec0:	12000073          	sfence.vma
  200ec4:	18059073          	csrw	satp,a1
  200ec8:	12000073          	sfence.vma
  200ecc:	14061073          	csrw	sscratch,a2
    switch_context(&prev->sp, &next->sp);
  200ed0:	00850513          	addi	a0,a0,8
  200ed4:	00868593          	addi	a1,a3,8
  200ed8:	fffff097          	auipc	ra,0xfffff
  200edc:	364080e7          	jalr	868(ra) # 20023c <switch_context>

00200ee0 <reboot>:
    __asm__ __volatile__(
  200ee0:	18001073          	csrw	satp,zero
  200ee4:	12000073          	sfence.vma
  200ee8:	0000100f          	.insn	4, 0x100f

00200eec <handle_syscall>:
void handle_syscall(struct trap_frame *f) {
  200eec:	ff010113          	addi	sp,sp,-16
  200ef0:	00112623          	sw	ra,12(sp)
    switch (f->a3) {             // ★ syscall番号は a3
  200ef4:	03554583          	lbu	a1,53(a0)
  200ef8:	03454603          	lbu	a2,52(a0)
  200efc:	03654683          	lbu	a3,54(a0)
  200f00:	03754703          	lbu	a4,55(a0)
  200f04:	00859593          	slli	a1,a1,0x8
  200f08:	00c5e5b3          	or	a1,a1,a2
  200f0c:	01069693          	slli	a3,a3,0x10
  200f10:	01871713          	slli	a4,a4,0x18
  200f14:	00d766b3          	or	a3,a4,a3
  200f18:	00b6e6b3          	or	a3,a3,a1
  200f1c:	fff68593          	addi	a1,a3,-1
  200f20:	00900613          	li	a2,9
  200f24:	10b66063          	bltu	a2,a1,201024 <handle_syscall+0x138>
  200f28:	00259593          	slli	a1,a1,0x2
  200f2c:	00203637          	lui	a2,0x203
  200f30:	c0860613          	addi	a2,a2,-1016 # 202c08 <$d.1>
  200f34:	00c585b3          	add	a1,a1,a2
  200f38:	0005a583          	lw	a1,0(a1)
  200f3c:	00058067          	jr	a1
            uart_putchar(f->a0);      // ★ 引数は a0
  200f40:	02854503          	lbu	a0,40(a0)
  200f44:	100005b7          	lui	a1,0x10000
  200f48:	0085a603          	lw	a2,8(a1) # 10000008 <__free_ram_end+0xfcaa008>
    while (mmio_r32(UART_MMIO_BASE + UART_ST) & ST_TX_BUSY) {
  200f4c:	00167613          	andi	a2,a2,1
  200f50:	0e060a63          	beqz	a2,201044 <handle_syscall+0x158>
        __asm__ __volatile__("nop");
  200f54:	00000013          	nop
  200f58:	ff1ff06f          	j	200f48 <handle_syscall+0x5c>
            s_print_int(f->a0);   // ← kernel の print_int
  200f5c:	02954583          	lbu	a1,41(a0)
  200f60:	02854603          	lbu	a2,40(a0)
  200f64:	02a54683          	lbu	a3,42(a0)
  200f68:	02b54503          	lbu	a0,43(a0)
  200f6c:	00859593          	slli	a1,a1,0x8
  200f70:	00c5e5b3          	or	a1,a1,a2
  200f74:	01069693          	slli	a3,a3,0x10
  200f78:	01851513          	slli	a0,a0,0x18
  200f7c:	00d56533          	or	a0,a0,a3
  200f80:	00b56533          	or	a0,a0,a1
  200f84:	00c12083          	lw	ra,12(sp)
  200f88:	01010113          	addi	sp,sp,16
  200f8c:	00000317          	auipc	t1,0x0
  200f90:	72830067          	jr	1832(t1) # 2016b4 <s_print_int>
                (const uint8_t *)(uint32_t)f->a0;
  200f94:	02954583          	lbu	a1,41(a0)
  200f98:	02854603          	lbu	a2,40(a0)
  200f9c:	02a54683          	lbu	a3,42(a0)
  200fa0:	02b54703          	lbu	a4,43(a0)
  200fa4:	00859593          	slli	a1,a1,0x8
  200fa8:	00c5e5b3          	or	a1,a1,a2
  200fac:	01069693          	slli	a3,a3,0x10
  200fb0:	01871713          	slli	a4,a4,0x18
  200fb4:	00d766b3          	or	a3,a4,a3
  200fb8:	00b6e733          	or	a4,a3,a1
                (const uint8_t *)(uint32_t)f->a1;
  200fbc:	02d54583          	lbu	a1,45(a0)
  200fc0:	02c54603          	lbu	a2,44(a0)
  200fc4:	02e54683          	lbu	a3,46(a0)
  200fc8:	02f54783          	lbu	a5,47(a0)
  200fcc:	00859593          	slli	a1,a1,0x8
  200fd0:	00c5e5b3          	or	a1,a1,a2
  200fd4:	01069693          	slli	a3,a3,0x10
  200fd8:	01879793          	slli	a5,a5,0x18
  200fdc:	00d7e6b3          	or	a3,a5,a3
                (uint32_t *)(uint32_t)f->a2;
  200fe0:	03154603          	lbu	a2,49(a0)
                (const uint8_t *)(uint32_t)f->a1;
  200fe4:	00b6e5b3          	or	a1,a3,a1
                (uint32_t *)(uint32_t)f->a2;
  200fe8:	03054683          	lbu	a3,48(a0)
  200fec:	03254783          	lbu	a5,50(a0)
  200ff0:	00861613          	slli	a2,a2,0x8
  200ff4:	03354803          	lbu	a6,51(a0)
  200ff8:	00d666b3          	or	a3,a2,a3
  200ffc:	01079793          	slli	a5,a5,0x10
                (uint8_t)f->a4;
  201000:	03854603          	lbu	a2,56(a0)
                (uint32_t *)(uint32_t)f->a2;
  201004:	01881813          	slli	a6,a6,0x18
  201008:	00f86533          	or	a0,a6,a5
  20100c:	00d566b3          	or	a3,a0,a3
            sa_run(in_A, in_B, max_matrix, out);
  201010:	00070513          	mv	a0,a4
  201014:	00c12083          	lw	ra,12(sp)
  201018:	01010113          	addi	sp,sp,16
  20101c:	00001317          	auipc	t1,0x1
  201020:	00830067          	jr	8(t1) # 202024 <sa_run>
            PANIC("unexpected syscall a3=%x\n", f->a3);
  201024:	00203537          	lui	a0,0x203
  201028:	09750513          	addi	a0,a0,151 # 203097 <$d.3+0x2e2>
  20102c:	002035b7          	lui	a1,0x203
  201030:	d2658593          	addi	a1,a1,-730 # 202d26 <$d.1+0x14>
  201034:	29100613          	li	a2,657
  201038:	00000097          	auipc	ra,0x0
  20103c:	778080e7          	jalr	1912(ra) # 2017b0 <s_printf>
  201040:	0000006f          	j	201040 <handle_syscall+0x154>
    *(volatile uint32_t*)addr = v;
  201044:	00a5a023          	sw	a0,0(a1)
  201048:	0300006f          	j	201078 <handle_syscall+0x18c>
  20104c:	100005b7          	lui	a1,0x10000
    return *(volatile uint32_t*)addr;
  201050:	0085a603          	lw	a2,8(a1) # 10000008 <__free_ram_end+0xfcaa008>
    while ((mmio_r32(UART_MMIO_BASE + UART_ST) & ST_RX_AVAIL) == 0) {
  201054:	00267613          	andi	a2,a2,2
  201058:	00061663          	bnez	a2,201064 <handle_syscall+0x178>
        __asm__ __volatile__("nop");
  20105c:	00000013          	nop
  201060:	ff1ff06f          	j	201050 <handle_syscall+0x164>
  201064:	0045a583          	lw	a1,4(a1)
                    f->a0 = ch;       // 戻り値
  201068:	020505a3          	sb	zero,43(a0)
  20106c:	02050523          	sb	zero,42(a0)
  201070:	020504a3          	sb	zero,41(a0)
  201074:	02b50423          	sb	a1,40(a0)
  201078:	00c12083          	lw	ra,12(sp)
}
  20107c:	01010113          	addi	sp,sp,16
  201080:	00008067          	ret
            s_call_sdcard_read_api(f->a0);
  201084:	02954583          	lbu	a1,41(a0)
  201088:	02854603          	lbu	a2,40(a0)
  20108c:	02a54683          	lbu	a3,42(a0)
  201090:	02b54503          	lbu	a0,43(a0)
  201094:	00859593          	slli	a1,a1,0x8
  201098:	00c5e5b3          	or	a1,a1,a2
  20109c:	01069693          	slli	a3,a3,0x10
  2010a0:	01851513          	slli	a0,a0,0x18
  2010a4:	00d56533          	or	a0,a0,a3
  2010a8:	00b56533          	or	a0,a0,a1
  2010ac:	00c12083          	lw	ra,12(sp)
  2010b0:	01010113          	addi	sp,sp,16
  2010b4:	00001317          	auipc	t1,0x1
  2010b8:	5a430067          	jr	1444(t1) # 202658 <s_call_sdcard_read_api>
            uintptr_t addr = (uintptr_t)f->a0;
  2010bc:	02954583          	lbu	a1,41(a0)
  2010c0:	02854603          	lbu	a2,40(a0)
            size_t    len  = (size_t)f->a1;
  2010c4:	02d54683          	lbu	a3,45(a0)
  2010c8:	02c54703          	lbu	a4,44(a0)
            uintptr_t addr = (uintptr_t)f->a0;
  2010cc:	00859593          	slli	a1,a1,0x8
  2010d0:	00c5e633          	or	a2,a1,a2
            size_t    len  = (size_t)f->a1;
  2010d4:	00869693          	slli	a3,a3,0x8
  2010d8:	00e6e6b3          	or	a3,a3,a4
  2010dc:	02e54583          	lbu	a1,46(a0)
  2010e0:	02f54703          	lbu	a4,47(a0)
            uintptr_t addr = (uintptr_t)f->a0;
  2010e4:	02a54783          	lbu	a5,42(a0)
  2010e8:	02b54503          	lbu	a0,43(a0)
            size_t    len  = (size_t)f->a1;
  2010ec:	01059593          	slli	a1,a1,0x10
  2010f0:	01871713          	slli	a4,a4,0x18
  2010f4:	00b765b3          	or	a1,a4,a1
            uintptr_t addr = (uintptr_t)f->a0;
  2010f8:	01079793          	slli	a5,a5,0x10
  2010fc:	01851513          	slli	a0,a0,0x18
            size_t    len  = (size_t)f->a1;
  201100:	00d5e6b3          	or	a3,a1,a3
  201104:	00001737          	lui	a4,0x1
            uintptr_t addr = (uintptr_t)f->a0;
  201108:	00f56533          	or	a0,a0,a5
  20110c:	00068593          	mv	a1,a3
            if (len == 0) {
  201110:	00e6e463          	bltu	a3,a4,201118 <handle_syscall+0x22c>
  201114:	000015b7          	lui	a1,0x1
  201118:	00c56533          	or	a0,a0,a2
  20111c:	00069463          	bnez	a3,201124 <handle_syscall+0x238>
  201120:	10000593          	li	a1,256
            hexdump((const void *)addr, len, addr);
  201124:	00050613          	mv	a2,a0
  201128:	00c12083          	lw	ra,12(sp)
  20112c:	01010113          	addi	sp,sp,16
  201130:	00001317          	auipc	t1,0x1
  201134:	a2430067          	jr	-1500(t1) # 201b54 <hexdump>
            s_printf("process %d exited\n", current_proc->pid);
  201138:	00225537          	lui	a0,0x225
  20113c:	71452503          	lw	a0,1812(a0) # 225714 <current_proc>
  201140:	00052583          	lw	a1,0(a0)
  201144:	00203537          	lui	a0,0x203
  201148:	26850513          	addi	a0,a0,616 # 203268 <$d.4+0x153>
  20114c:	00000097          	auipc	ra,0x0
  201150:	664080e7          	jalr	1636(ra) # 2017b0 <s_printf>
    __asm__ __volatile__(
  201154:	18001073          	csrw	satp,zero
  201158:	12000073          	sfence.vma
  20115c:	0000100f          	.insn	4, 0x100f

00201160 <handle_trap>:
{
  201160:	ff010113          	addi	sp,sp,-16
  201164:	00112623          	sw	ra,12(sp)
  201168:	00812423          	sw	s0,8(sp)
    uint32_t scause = READ_CSR(scause);
  20116c:	142026f3          	csrr	a3,scause
    uint32_t stval  = READ_CSR(stval);
  201170:	14302773          	csrr	a4,stval
    uint32_t sepc   = READ_CSR(sepc);
  201174:	14102473          	csrr	s0,sepc
    uint32_t sstatus = READ_CSR(sstatus);
  201178:	100027f3          	csrr	a5,sstatus
    if (scause == SCAUSE_ECALL) {
  20117c:	02068663          	beqz	a3,2011a8 <handle_trap+0x48>
  201180:	00800593          	li	a1,8
  201184:	04b69463          	bne	a3,a1,2011cc <handle_trap+0x6c>
        handle_syscall(f);
  201188:	00000097          	auipc	ra,0x0
  20118c:	d64080e7          	jalr	-668(ra) # 200eec <handle_syscall>
        sepc += 4;   // ecall の次へ
  201190:	00440413          	addi	s0,s0,4
        WRITE_CSR(sepc, sepc);
  201194:	14141073          	csrw	sepc,s0
  201198:	00c12083          	lw	ra,12(sp)
  20119c:	00812403          	lw	s0,8(sp)
}
  2011a0:	01010113          	addi	sp,sp,16
  2011a4:	00008067          	ret
        PANIC("PC misaligned sepc=%x stval=%x sstatus=%x\n",
  2011a8:	00203537          	lui	a0,0x203
  2011ac:	21450513          	addi	a0,a0,532 # 203214 <$d.4+0xff>
  2011b0:	002035b7          	lui	a1,0x203
  2011b4:	d2658593          	addi	a1,a1,-730 # 202d26 <$d.1+0x14>
  2011b8:	2b900613          	li	a2,697
  2011bc:	00040693          	mv	a3,s0
  2011c0:	00000097          	auipc	ra,0x0
  2011c4:	5f0080e7          	jalr	1520(ra) # 2017b0 <s_printf>
  2011c8:	0000006f          	j	2011c8 <handle_trap+0x68>
    PANIC("unexpected trap scause=%x stval=%x sepc=%x\n",
  2011cc:	00203537          	lui	a0,0x203
  2011d0:	d5e50513          	addi	a0,a0,-674 # 202d5e <$d.1+0x4c>
  2011d4:	002035b7          	lui	a1,0x203
  2011d8:	d2658593          	addi	a1,a1,-730 # 202d26 <$d.1+0x14>
  2011dc:	2bd00613          	li	a2,701
  2011e0:	00040793          	mv	a5,s0
  2011e4:	00000097          	auipc	ra,0x0
  2011e8:	5cc080e7          	jalr	1484(ra) # 2017b0 <s_printf>
  2011ec:	0000006f          	j	2011ec <handle_trap+0x8c>

002011f0 <random_mem_check>:
static inline uint32_t test_pattern(uint32_t addr) {
    return addr ^ 0xA5A5A5A5u;
}

void random_mem_check(uint32_t start_addr, uint32_t end_addr)
{
  2011f0:	fd010113          	addi	sp,sp,-48
  2011f4:	02112623          	sw	ra,44(sp)
  2011f8:	02812423          	sw	s0,40(sp)
  2011fc:	02912223          	sw	s1,36(sp)
  201200:	03212023          	sw	s2,32(sp)
  201204:	01312e23          	sw	s3,28(sp)
  201208:	01412c23          	sw	s4,24(sp)
  20120c:	01512a23          	sw	s5,20(sp)
  201210:	01612823          	sw	s6,16(sp)
  201214:	01712623          	sw	s7,12(sp)
  201218:	01812423          	sw	s8,8(sp)
  20121c:	00058613          	mv	a2,a1
  201220:	00050413          	mv	s0,a0
    bool TestPass = true;
    uint32_t lfsr;
    uint32_t addr;

    uint32_t range_bytes = end_addr - start_addr;
  201224:	40a58a33          	sub	s4,a1,a0
    uint32_t range_words = range_bytes / MEM_STEP;
  201228:	002a5493          	srli	s1,s4,0x2

    /* range_bytes must be power-of-two */
    uint32_t mask = range_bytes - MEM_STEP;

    s_printf("[mem_check] range %x - %x\n", start_addr, end_addr);
  20122c:	00203537          	lui	a0,0x203
  201230:	2cd50513          	addi	a0,a0,717 # 2032cd <$d.4+0x1b8>
  201234:	00040593          	mv	a1,s0
  201238:	00000097          	auipc	ra,0x0
  20123c:	578080e7          	jalr	1400(ra) # 2017b0 <s_printf>

    /* ================= write phase ================= */
    s_printf("[mem_check] random write phase\n");
  201240:	00203537          	lui	a0,0x203
  201244:	0d150513          	addi	a0,a0,209 # 2030d1 <$d.3+0x31c>
  201248:	00000097          	auipc	ra,0x0
  20124c:	568080e7          	jalr	1384(ra) # 2017b0 <s_printf>

    lfsr = 0x12345678u;

    for (uint32_t i = 0; i < range_words; i++)
  201250:	0c048e63          	beqz	s1,20132c <random_mem_check+0x13c>
  201254:	ffca0913          	addi	s2,s4,-4
  201258:	a5a5a537          	lui	a0,0xa5a5a
  20125c:	5a550993          	addi	s3,a0,1445 # a5a5a5a5 <__free_ram_end+0xa57045a5>
  201260:	0014ba93          	seqz	s5,s1
  201264:	01548533          	add	a0,s1,s5
  201268:	123455b7          	lui	a1,0x12345
  20126c:	67858613          	addi	a2,a1,1656 # 12345678 <__free_ram_end+0x11fef678>
  201270:	a30005b7          	lui	a1,0xa3000
    {
        addr = start_addr + (lfsr & mask);
  201274:	012676b3          	and	a3,a2,s2
  201278:	008686b3          	add	a3,a3,s0
    return addr ^ 0xA5A5A5A5u;
  20127c:	0136c733          	xor	a4,a3,s3

        *(volatile uint32_t *)addr = test_pattern(addr);
  201280:	00e6a023          	sw	a4,0(a3)
    uint32_t lsb = x & 1u;
  201284:	01f61693          	slli	a3,a2,0x1f
  201288:	41f6d693          	srai	a3,a3,0x1f
    x >>= 1;
  20128c:	00165613          	srli	a2,a2,0x1
    if (lsb) {
  201290:	00b6f6b3          	and	a3,a3,a1
    for (uint32_t i = 0; i < range_words; i++)
  201294:	fff50513          	addi	a0,a0,-1
    if (lsb) {
  201298:	00d64633          	xor	a2,a2,a3
    for (uint32_t i = 0; i < range_words; i++)
  20129c:	fc051ce3          	bnez	a0,201274 <random_mem_check+0x84>

        lfsr = lfsr_next(lfsr);
    }

    /* ================= read & verify ================= */
    s_printf("[mem_check] random read & verify phase\n");
  2012a0:	00203537          	lui	a0,0x203
  2012a4:	cb150513          	addi	a0,a0,-847 # 202cb1 <$d.1+0xa9>
  2012a8:	00000097          	auipc	ra,0x0
  2012ac:	508080e7          	jalr	1288(ra) # 2017b0 <s_printf>
  2012b0:	00400513          	li	a0,4

    lfsr = 0x12345678u;

    for (uint32_t i = 0; i < range_words; i++)
  2012b4:	08aa6863          	bltu	s4,a0,201344 <random_mem_check+0x154>
  2012b8:	01548a33          	add	s4,s1,s5
  2012bc:	00100513          	li	a0,1
  2012c0:	123455b7          	lui	a1,0x12345
  2012c4:	67858b13          	addi	s6,a1,1656 # 12345678 <__free_ram_end+0x11fef678>
  2012c8:	a3000ab7          	lui	s5,0xa3000
  2012cc:	002035b7          	lui	a1,0x203
  2012d0:	1c858493          	addi	s1,a1,456 # 2031c8 <$d.4+0xb3>
  2012d4:	0000f5b7          	lui	a1,0xf
  2012d8:	e0158b93          	addi	s7,a1,-511 # ee01 <$d.4+0xc694>
  2012dc:	10000c37          	lui	s8,0x10000
  2012e0:	0200006f          	j	201300 <random_mem_check+0x110>
    uint32_t lsb = x & 1u;
  2012e4:	01fb1593          	slli	a1,s6,0x1f
  2012e8:	41f5d593          	srai	a1,a1,0x1f
    x >>= 1;
  2012ec:	001b5613          	srli	a2,s6,0x1
    if (lsb) {
  2012f0:	0155f5b3          	and	a1,a1,s5
    for (uint32_t i = 0; i < range_words; i++)
  2012f4:	fffa0a13          	addi	s4,s4,-1
    if (lsb) {
  2012f8:	00b64b33          	xor	s6,a2,a1
    for (uint32_t i = 0; i < range_words; i++)
  2012fc:	040a0263          	beqz	s4,201340 <random_mem_check+0x150>
    {
        addr = start_addr + (lfsr & mask);
  201300:	012b75b3          	and	a1,s6,s2
  201304:	008585b3          	add	a1,a1,s0

        uint32_t v   = *(volatile uint32_t *)addr;
  201308:	0005a603          	lw	a2,0(a1)
    return addr ^ 0xA5A5A5A5u;
  20130c:	0135c6b3          	xor	a3,a1,s3
        uint32_t exp = test_pattern(addr);

        if (v != exp)
  201310:	fcd60ae3          	beq	a2,a3,2012e4 <random_mem_check+0xf4>
        {
            TestPass = false;

            s_printf("MEM ERROR addr=%x read=%x exp=%x\n",
  201314:	00048513          	mv	a0,s1
  201318:	00000097          	auipc	ra,0x0
  20131c:	498080e7          	jalr	1176(ra) # 2017b0 <s_printf>
  201320:	00000513          	li	a0,0
    *(volatile uint32_t*)addr = v;
  201324:	017c2023          	sw	s7,0(s8) # 10000000 <__free_ram_end+0xfcaa000>
  201328:	fbdff06f          	j	2012e4 <random_mem_check+0xf4>
    s_printf("[mem_check] random read & verify phase\n");
  20132c:	00203537          	lui	a0,0x203
  201330:	cb150513          	addi	a0,a0,-847 # 202cb1 <$d.1+0xa9>
  201334:	00000097          	auipc	ra,0x0
  201338:	47c080e7          	jalr	1148(ra) # 2017b0 <s_printf>
  20133c:	0080006f          	j	201344 <random_mem_check+0x154>
        lfsr = lfsr_next(lfsr);
    }

    /* ================= result ================= */

    if (TestPass)
  201340:	04050063          	beqz	a0,201380 <random_mem_check+0x190>
  201344:	00203537          	lui	a0,0x203
  201348:	ea150513          	addi	a0,a0,-351 # 202ea1 <$d.3+0xec>
  20134c:	02c12083          	lw	ra,44(sp)
  201350:	02812403          	lw	s0,40(sp)
  201354:	02412483          	lw	s1,36(sp)
  201358:	02012903          	lw	s2,32(sp)
  20135c:	01c12983          	lw	s3,28(sp)
  201360:	01812a03          	lw	s4,24(sp)
  201364:	01412a83          	lw	s5,20(sp)
  201368:	01012b03          	lw	s6,16(sp)
  20136c:	00c12b83          	lw	s7,12(sp)
  201370:	00812c03          	lw	s8,8(sp)
  201374:	03010113          	addi	sp,sp,48
  201378:	00000317          	auipc	t1,0x0
  20137c:	43830067          	jr	1080(t1) # 2017b0 <s_printf>
  201380:	00203537          	lui	a0,0x203
  201384:	ebe50513          	addi	a0,a0,-322 # 202ebe <$d.3+0x109>
  201388:	fc5ff06f          	j	20134c <random_mem_check+0x15c>

0020138c <seqential_mem_check>:
        s_printf("[mem_check] OK (RV32I safe)\n");
    else
        s_printf("[mem_check] NG!!! (RV32I fail)\n");
}

void seqential_mem_check(uint32_t start_addr, uint32_t end_addr) {
  20138c:	fd010113          	addi	sp,sp,-48
  201390:	02112623          	sw	ra,44(sp)
  201394:	02812423          	sw	s0,40(sp)
  201398:	02912223          	sw	s1,36(sp)
  20139c:	03212023          	sw	s2,32(sp)
  2013a0:	01312e23          	sw	s3,28(sp)
  2013a4:	01412c23          	sw	s4,24(sp)
  2013a8:	01512a23          	sw	s5,20(sp)
  2013ac:	01612823          	sw	s6,16(sp)
  2013b0:	01712623          	sw	s7,12(sp)
  2013b4:	00058613          	mv	a2,a1
  2013b8:	00050413          	mv	s0,a0
    volatile uint32_t *p;
    uint32_t lfsr;
    uint32_t addr;

    /* 範囲サイズ（バイト） */
    uint32_t range_bytes = end_addr - start_addr;
  2013bc:	40a589b3          	sub	s3,a1,a0

    s_printf("[mem_check] range %x - %x\n", start_addr, end_addr);
  2013c0:	00203537          	lui	a0,0x203
  2013c4:	2cd50513          	addi	a0,a0,717 # 2032cd <$d.4+0x1b8>
  2013c8:	00040593          	mv	a1,s0
  2013cc:	00000097          	auipc	ra,0x0
  2013d0:	3e4080e7          	jalr	996(ra) # 2017b0 <s_printf>

    /* ---------- write phase ---------- */
    s_printf("[mem_check] sequential write phase\n");
  2013d4:	00203537          	lui	a0,0x203
  2013d8:	13250513          	addi	a0,a0,306 # 203132 <$d.4+0x1d>
  2013dc:	00000097          	auipc	ra,0x0
  2013e0:	3d4080e7          	jalr	980(ra) # 2017b0 <s_printf>
  2013e4:	0029d493          	srli	s1,s3,0x2

    lfsr = 0x123456ABu;
    for (uint32_t i = 0; i < (range_bytes / MEM_STEP); i++) {
  2013e8:	0c048263          	beqz	s1,2014ac <seqential_mem_check+0x120>
  2013ec:	a5a5a537          	lui	a0,0xa5a5a
  2013f0:	5a550913          	addi	s2,a0,1445 # a5a5a5a5 <__free_ram_end+0xa57045a5>
  2013f4:	0014b513          	seqz	a0,s1
  2013f8:	00a48533          	add	a0,s1,a0
  2013fc:	00251513          	slli	a0,a0,0x2
  201400:	00a40533          	add	a0,s0,a0
  201404:	00040593          	mv	a1,s0
    return addr ^ 0xA5A5A5A5u;
  201408:	0125c633          	xor	a2,a1,s2
        addr = start_addr + i * MEM_STEP;

        p = (volatile uint32_t *)addr;
        *p = test_pattern(addr);
  20140c:	00c5a023          	sw	a2,0(a1)
    for (uint32_t i = 0; i < (range_bytes / MEM_STEP); i++) {
  201410:	00458593          	addi	a1,a1,4
  201414:	fea59ae3          	bne	a1,a0,201408 <seqential_mem_check+0x7c>

        lfsr = lfsr_next(lfsr);
    }

    /* ---------- read & verify ---------- */
    s_printf("[mem_check] sequential read & verify phase\n");
  201418:	00203537          	lui	a0,0x203
  20141c:	c5250513          	addi	a0,a0,-942 # 202c52 <$d.1+0x4a>
  201420:	00000097          	auipc	ra,0x0
  201424:	390080e7          	jalr	912(ra) # 2017b0 <s_printf>
  201428:	00400513          	li	a0,4

    lfsr = 0x123456ABu;
    for (uint32_t i = 0; i < (range_bytes / MEM_STEP); i++) {
  20142c:	08a9ee63          	bltu	s3,a0,2014c8 <seqential_mem_check+0x13c>
  201430:	00000993          	li	s3,0
  201434:	40900533          	neg	a0,s1
  201438:	0024b593          	sltiu	a1,s1,2
  20143c:	40b005b3          	neg	a1,a1
  201440:	00a5ea33          	or	s4,a1,a0
  201444:	00100a93          	li	s5,1
  201448:	00203537          	lui	a0,0x203
  20144c:	1c850493          	addi	s1,a0,456 # 2031c8 <$d.4+0xb3>
  201450:	0000f537          	lui	a0,0xf
  201454:	e0150b13          	addi	s6,a0,-511 # ee01 <$d.4+0xc694>
  201458:	10000bb7          	lui	s7,0x10000
  20145c:	00100513          	li	a0,1
  201460:	00299593          	slli	a1,s3,0x2
  201464:	00198993          	addi	s3,s3,1 # 4df001 <__free_ram_end+0x189001>
  201468:	00b405b3          	add	a1,s0,a1
        addr = start_addr + i * MEM_STEP;

        p = (volatile uint32_t *)addr;
        uint32_t v   = *p;
  20146c:	0005a603          	lw	a2,0(a1)
    return addr ^ 0xA5A5A5A5u;
  201470:	0125c6b3          	xor	a3,a1,s2
  201474:	00d61c63          	bne	a2,a3,20148c <seqential_mem_check+0x100>
    for (uint32_t i = 0; i < (range_bytes / MEM_STEP); i++) {
  201478:	00198993          	addi	s3,s3,1
  20147c:	013a0633          	add	a2,s4,s3
  201480:	00458593          	addi	a1,a1,4
  201484:	ff5614e3          	bne	a2,s5,20146c <seqential_mem_check+0xe0>
  201488:	0380006f          	j	2014c0 <seqential_mem_check+0x134>
        uint32_t exp = test_pattern(addr);

        if (v != exp) {
            TestPass = false;
            s_printf("MEM ERROR addr=%x read=%x exp=%x\n",
  20148c:	00048513          	mv	a0,s1
  201490:	00000097          	auipc	ra,0x0
  201494:	320080e7          	jalr	800(ra) # 2017b0 <s_printf>
  201498:	00000513          	li	a0,0
    for (uint32_t i = 0; i < (range_bytes / MEM_STEP); i++) {
  20149c:	013a05b3          	add	a1,s4,s3
  2014a0:	016ba023          	sw	s6,0(s7) # 10000000 <__free_ram_end+0xfcaa000>
  2014a4:	fa059ee3          	bnez	a1,201460 <seqential_mem_check+0xd4>
  2014a8:	0580006f          	j	201500 <seqential_mem_check+0x174>
    s_printf("[mem_check] sequential read & verify phase\n");
  2014ac:	00203537          	lui	a0,0x203
  2014b0:	c5250513          	addi	a0,a0,-942 # 202c52 <$d.1+0x4a>
  2014b4:	00000097          	auipc	ra,0x0
  2014b8:	2fc080e7          	jalr	764(ra) # 2017b0 <s_printf>
  2014bc:	00c0006f          	j	2014c8 <seqential_mem_check+0x13c>
        }

        lfsr = lfsr_next(lfsr);
    }

    if(TestPass==true) {
  2014c0:	00157513          	andi	a0,a0,1
  2014c4:	02050e63          	beqz	a0,201500 <seqential_mem_check+0x174>
  2014c8:	00203537          	lui	a0,0x203
  2014cc:	ea150513          	addi	a0,a0,-351 # 202ea1 <$d.3+0xec>
  2014d0:	02c12083          	lw	ra,44(sp)
  2014d4:	02812403          	lw	s0,40(sp)
  2014d8:	02412483          	lw	s1,36(sp)
  2014dc:	02012903          	lw	s2,32(sp)
  2014e0:	01c12983          	lw	s3,28(sp)
  2014e4:	01812a03          	lw	s4,24(sp)
  2014e8:	01412a83          	lw	s5,20(sp)
  2014ec:	01012b03          	lw	s6,16(sp)
  2014f0:	00c12b83          	lw	s7,12(sp)
  2014f4:	03010113          	addi	sp,sp,48
  2014f8:	00000317          	auipc	t1,0x0
  2014fc:	2b830067          	jr	696(t1) # 2017b0 <s_printf>
  201500:	00203537          	lui	a0,0x203
  201504:	ebe50513          	addi	a0,a0,-322 # 202ebe <$d.3+0x109>
  201508:	fc9ff06f          	j	2014d0 <seqential_mem_check+0x144>

0020150c <kernel_main>:

#define MAT_N 8

extern char __kernel_base[];

void kernel_main(void) {
  20150c:	ff010113          	addi	sp,sp,-16
  201510:	00112623          	sw	ra,12(sp)
    // compline number.
    s_printf("Ver: test_1.4.2\n");
  201514:	00203537          	lui	a0,0x203
  201518:	0c050513          	addi	a0,a0,192 # 2030c0 <$d.3+0x30b>
  20151c:	00000097          	auipc	ra,0x0
  201520:	294080e7          	jalr	660(ra) # 2017b0 <s_printf>

#if 1
    // Memory Check
    s_printf("\n");
  201524:	00203537          	lui	a0,0x203
  201528:	1ea50513          	addi	a0,a0,490 # 2031ea <$d.4+0xd5>
  20152c:	00000097          	auipc	ra,0x0
  201530:	284080e7          	jalr	644(ra) # 2017b0 <s_printf>
#if 0
    s_call_sa_api(MAT_N);
    s_printf("\n");
#endif
    // dump
    const char *argv[] = {
  201534:	00203537          	lui	a0,0x203
  201538:	c3452583          	lw	a1,-972(a0) # 202c34 <$d.1+0x2c>
  20153c:	c3052503          	lw	a0,-976(a0)
  201540:	00b12223          	sw	a1,4(sp)
  201544:	00a12023          	sw	a0,0(sp)
        "0x200000",
        "100",
    };

    cmd_dump(2, argv);
  201548:	00200513          	li	a0,2
  20154c:	00010593          	mv	a1,sp
  201550:	00001097          	auipc	ra,0x1
  201554:	884080e7          	jalr	-1916(ra) # 201dd4 <cmd_dump>
    //s_call_sdcard_read_api(0x0000);
    //s_call_sdcard_read_api(0x0010);
    //s_call_sdcard_read_api(0x0020);
    //s_call_sdcard_read_api(0x0030);

    s_printf("PSC_OS Boot Start.........\n");
  201558:	00203537          	lui	a0,0x203
  20155c:	d9950513          	addi	a0,a0,-615 # 202d99 <$d.1+0x87>
  201560:	00000097          	auipc	ra,0x0
  201564:	250080e7          	jalr	592(ra) # 2017b0 <s_printf>
    s_printf("--- memset ---\n");
  201568:	00203537          	lui	a0,0x203
  20156c:	c7e50513          	addi	a0,a0,-898 # 202c7e <$d.1+0x76>
  201570:	00000097          	auipc	ra,0x0
  201574:	240080e7          	jalr	576(ra) # 2017b0 <s_printf>
    memset(__bss, 0, (size_t) __bss_end - (size_t) __bss);
  201578:	00225537          	lui	a0,0x225
  20157c:	70850513          	addi	a0,a0,1800 # 225708 <alloc_pages.initialized>
  201580:	002365b7          	lui	a1,0x236
  201584:	b1458613          	addi	a2,a1,-1260 # 235b14 <__bss_end>
  201588:	40a60633          	sub	a2,a2,a0
  20158c:	00000593          	li	a1,0
  201590:	00000097          	auipc	ra,0x0
  201594:	104080e7          	jalr	260(ra) # 201694 <memset>

    s_printf(
  201598:	00203537          	lui	a0,0x203
  20159c:	ede50513          	addi	a0,a0,-290 # 202ede <$d.3+0x129>
  2015a0:	002035b7          	lui	a1,0x203
  2015a4:	15658593          	addi	a1,a1,342 # 203156 <$d.4+0x41>
  2015a8:	00203637          	lui	a2,0x203
  2015ac:	dea60613          	addi	a2,a2,-534 # 202dea <$d.3+0x35>
  2015b0:	00000097          	auipc	ra,0x0
  2015b4:	200080e7          	jalr	512(ra) # 2017b0 <s_printf>
       (uint32_t)__free_ram,
       (uint32_t)__free_ram_end);
    */

    // -------------------------------------------
    WRITE_CSR(stvec, (uint32_t) kernel_entry);
  2015b8:	00200537          	lui	a0,0x200
  2015bc:	12450513          	addi	a0,a0,292 # 200124 <kernel_entry>
  2015c0:	10551073          	csrw	stvec,a0

    //printf("================================================\n");
    s_printf("--- create_process_1 ---\n");
  2015c4:	00203537          	lui	a0,0x203
  2015c8:	c3850513          	addi	a0,a0,-968 # 202c38 <$d.1+0x30>
  2015cc:	00000097          	auipc	ra,0x0
  2015d0:	1e4080e7          	jalr	484(ra) # 2017b0 <s_printf>
    idle_proc = create_process(NULL, 0);
  2015d4:	00000513          	li	a0,0
  2015d8:	00000593          	li	a1,0
  2015dc:	fffff097          	auipc	ra,0xfffff
  2015e0:	e60080e7          	jalr	-416(ra) # 20043c <create_process>
  2015e4:	002255b7          	lui	a1,0x225
  2015e8:	70a5a823          	sw	a0,1808(a1) # 225710 <idle_proc>
    idle_proc->pid = 0; // idle
  2015ec:	00052023          	sw	zero,0(a0)
    current_proc = idle_proc;
  2015f0:	002255b7          	lui	a1,0x225
  2015f4:	70a5aa23          	sw	a0,1812(a1) # 225714 <current_proc>
    //   (uint32_t)_binary_shell_bin_start,
    //   (uint32_t)_binary_shell_bin_end);

    size_t shell_size = _binary_shell_bin_end - _binary_shell_bin_start;
    //printf("================================================\n");
    s_printf("--- create_process_2 ---\n");
  2015f8:	00203537          	lui	a0,0x203
  2015fc:	24e50513          	addi	a0,a0,590 # 20324e <$d.4+0x139>
  201600:	00000097          	auipc	ra,0x0
  201604:	1b0080e7          	jalr	432(ra) # 2017b0 <s_printf>
    create_process(_binary_shell_bin_start, shell_size);
  201608:	00203537          	lui	a0,0x203
  20160c:	37350513          	addi	a0,a0,883 # 203373 <_binary_shell_bin_start>
  201610:	002255b7          	lui	a1,0x225
  201614:	70358593          	addi	a1,a1,1795 # 225703 <_binary_shell_bin_end>
  201618:	40a585b3          	sub	a1,a1,a0
  20161c:	fffff097          	auipc	ra,0xfffff
  201620:	e20080e7          	jalr	-480(ra) # 20043c <create_process>

    //printf("================================================\n");
    s_printf("--- yield ---\n");
  201624:	00203537          	lui	a0,0x203
  201628:	c8e50513          	addi	a0,a0,-882 # 202c8e <$d.1+0x86>
  20162c:	00000097          	auipc	ra,0x0
  201630:	184080e7          	jalr	388(ra) # 2017b0 <s_printf>
    yield();
  201634:	fffff097          	auipc	ra,0xfffff
  201638:	624080e7          	jalr	1572(ra) # 200c58 <yield>

    //uint32_t satp_now = READ_CSR(satp);
    //printf("satp after yield = %x\n", satp_now);

    s_printf("--- yield end ---\n");
  20163c:	00203537          	lui	a0,0x203
  201640:	30a50513          	addi	a0,a0,778 # 20330a <$d.4+0x1f5>
  201644:	00000097          	auipc	ra,0x0
  201648:	16c080e7          	jalr	364(ra) # 2017b0 <s_printf>
    PANIC("switched to idle process");
  20164c:	00203537          	lui	a0,0x203
  201650:	1ec50513          	addi	a0,a0,492 # 2031ec <$d.4+0xd7>
  201654:	002035b7          	lui	a1,0x203
  201658:	d2658593          	addi	a1,a1,-730 # 202d26 <$d.1+0x14>
  20165c:	3a800613          	li	a2,936
  201660:	00000097          	auipc	ra,0x0
  201664:	150080e7          	jalr	336(ra) # 2017b0 <s_printf>
  201668:	0000006f          	j	201668 <kernel_main+0x15c>

0020166c <memcpy>:
#include "common.h"

void *memcpy(void *dst, const void *src, size_t n) {
    uint8_t *d = (uint8_t *) dst;
    const uint8_t *s = (const uint8_t *) src;
    while (n--)
  20166c:	02060263          	beqz	a2,201690 <memcpy+0x24>
  201670:	00c50633          	add	a2,a0,a2
  201674:	00050693          	mv	a3,a0
        *d++ = *s++;
  201678:	0005c703          	lbu	a4,0(a1)
  20167c:	00158593          	addi	a1,a1,1
  201680:	00168793          	addi	a5,a3,1
  201684:	00e68023          	sb	a4,0(a3)
  201688:	00078693          	mv	a3,a5
    while (n--)
  20168c:	fec796e3          	bne	a5,a2,201678 <memcpy+0xc>
    return dst;
  201690:	00008067          	ret

00201694 <memset>:
}
*/

void *memset(void *buf, char c, size_t n) {
    uint8_t *p = (uint8_t *) buf;
    while (n--)
  201694:	00060e63          	beqz	a2,2016b0 <memset+0x1c>
  201698:	00c50633          	add	a2,a0,a2
  20169c:	00050693          	mv	a3,a0
        *p++ = c;
  2016a0:	00168713          	addi	a4,a3,1
  2016a4:	00b68023          	sb	a1,0(a3)
  2016a8:	00070693          	mv	a3,a4
    while (n--)
  2016ac:	fec71ae3          	bne	a4,a2,2016a0 <memset+0xc>
    return buf;
  2016b0:	00008067          	ret

002016b4 <s_print_int>:
    *rem = r;
    return q;
}

void s_print_int(int v)
{
  2016b4:	fe010113          	addi	sp,sp,-32
  2016b8:	00112e23          	sw	ra,28(sp)
  2016bc:	00812c23          	sw	s0,24(sp)
  2016c0:	00912a23          	sw	s1,20(sp)
  2016c4:	01212823          	sw	s2,16(sp)
    uint32_t u;
    char buf[10];
    int idx = 0;

    if (v < 0) {
  2016c8:	02054463          	bltz	a0,2016f0 <s_print_int+0x3c>
        u = (uint32_t)(-(v + 1)) + 1u;
    } else {
        u = (uint32_t)v;
    }

    if (u == 0) {
  2016cc:	02051e63          	bnez	a0,201708 <s_print_int+0x54>
        uart_putchar('0');
  2016d0:	03000513          	li	a0,48
  2016d4:	01c12083          	lw	ra,28(sp)
  2016d8:	01812403          	lw	s0,24(sp)
  2016dc:	01412483          	lw	s1,20(sp)
  2016e0:	01012903          	lw	s2,16(sp)
  2016e4:	02010113          	addi	sp,sp,32
  2016e8:	fffff317          	auipc	t1,0xfffff
  2016ec:	94830067          	jr	-1720(t1) # 200030 <uart_putchar>
  2016f0:	00050413          	mv	s0,a0
        uart_putchar('-');
  2016f4:	02d00513          	li	a0,45
  2016f8:	fffff097          	auipc	ra,0xfffff
  2016fc:	938080e7          	jalr	-1736(ra) # 200030 <uart_putchar>
  201700:	00040513          	mv	a0,s0
        u = (uint32_t)(-(v + 1)) + 1u;
  201704:	40800533          	neg	a0,s0
  201708:	00000793          	li	a5,0
  20170c:	00100593          	li	a1,1
  201710:	fff00613          	li	a2,-1
  201714:	00610693          	addi	a3,sp,6
  201718:	00000813          	li	a6,0
  20171c:	00000713          	li	a4,0
  201720:	00078413          	mv	s0,a5
  201724:	01f00793          	li	a5,31
        r = (r << 1) | ((u >> i) & 1u);
  201728:	00181813          	slli	a6,a6,0x1
  20172c:	00f558b3          	srl	a7,a0,a5
  201730:	0018f893          	andi	a7,a7,1
  201734:	0108e833          	or	a6,a7,a6
        if (r >= 10u) {
  201738:	00a83893          	sltiu	a7,a6,10
  20173c:	00f592b3          	sll	t0,a1,a5
  201740:	fff88893          	addi	a7,a7,-1
  201744:	0058f2b3          	and	t0,a7,t0
  201748:	00e2e733          	or	a4,t0,a4
  20174c:	ff68f893          	andi	a7,a7,-10
    for (int i = 31; i >= 0; --i) {
  201750:	fff78793          	addi	a5,a5,-1
        if (r >= 10u) {
  201754:	01180833          	add	a6,a6,a7
    for (int i = 31; i >= 0; --i) {
  201758:	fcc798e3          	bne	a5,a2,201728 <s_print_int+0x74>
    }

    while (u != 0) {
        uint32_t rem;
        u = divmod10(u, &rem);
        buf[idx++] = (char)('0' + rem);
  20175c:	03080513          	addi	a0,a6,48
  201760:	00140793          	addi	a5,s0,1
  201764:	00868833          	add	a6,a3,s0
  201768:	00a80023          	sb	a0,0(a6)
  20176c:	00070513          	mv	a0,a4
    while (u != 0) {
  201770:	fa0714e3          	bnez	a4,201718 <s_print_int+0x64>
  201774:	00610493          	addi	s1,sp,6
  201778:	00100913          	li	s2,1
    }

    while (idx > 0) {
        uart_putchar(buf[--idx]);
  20177c:	00848533          	add	a0,s1,s0
  201780:	00054503          	lbu	a0,0(a0)
  201784:	fffff097          	auipc	ra,0xfffff
  201788:	8ac080e7          	jalr	-1876(ra) # 200030 <uart_putchar>
    while (idx > 0) {
  20178c:	00140513          	addi	a0,s0,1
  201790:	fff40413          	addi	s0,s0,-1
  201794:	fea944e3          	blt	s2,a0,20177c <s_print_int+0xc8>
  201798:	01c12083          	lw	ra,28(sp)
  20179c:	01812403          	lw	s0,24(sp)
  2017a0:	01412483          	lw	s1,20(sp)
  2017a4:	01012903          	lw	s2,16(sp)
    }
}
  2017a8:	02010113          	addi	sp,sp,32
  2017ac:	00008067          	ret

002017b0 <s_printf>:

void s_printf(const char *fmt, ...) {
  2017b0:	f9010113          	addi	sp,sp,-112
  2017b4:	04112623          	sw	ra,76(sp)
  2017b8:	04812423          	sw	s0,72(sp)
  2017bc:	04912223          	sw	s1,68(sp)
  2017c0:	05212023          	sw	s2,64(sp)
  2017c4:	03312e23          	sw	s3,60(sp)
  2017c8:	03412c23          	sw	s4,56(sp)
  2017cc:	03512a23          	sw	s5,52(sp)
  2017d0:	03612823          	sw	s6,48(sp)
  2017d4:	03712623          	sw	s7,44(sp)
  2017d8:	03812423          	sw	s8,40(sp)
  2017dc:	03912223          	sw	s9,36(sp)
  2017e0:	03a12023          	sw	s10,32(sp)
  2017e4:	01b12e23          	sw	s11,28(sp)
  2017e8:	00050413          	mv	s0,a0
  2017ec:	07112623          	sw	a7,108(sp)
  2017f0:	07012423          	sw	a6,104(sp)
  2017f4:	06f12223          	sw	a5,100(sp)
  2017f8:	06e12023          	sw	a4,96(sp)
  2017fc:	04d12e23          	sw	a3,92(sp)
  201800:	04c12c23          	sw	a2,88(sp)
  201804:	04b12a23          	sw	a1,84(sp)
  201808:	05410513          	addi	a0,sp,84
    va_list vargs;
    va_start(vargs, fmt);
  20180c:	00a12c23          	sw	a0,24(sp)
  201810:	02500913          	li	s2,37
  201814:	07200993          	li	s3,114
  201818:	06400493          	li	s1,100
  20181c:	00d10a93          	addi	s5,sp,13
  201820:	00900b13          	li	s6,9
  201824:	00100b93          	li	s7,1
  201828:	07300c13          	li	s8,115
  20182c:	07800c93          	li	s9,120
  201830:	00203537          	lui	a0,0x203
  201834:	31d50d13          	addi	s10,a0,797 # 20331d <print_hex8.HEX>
  201838:	00c0006f          	j	201844 <s_printf+0x94>

    while (*fmt) {
        if (*fmt == '%') {
            fmt++;
            switch (*fmt) {
  20183c:	20050263          	beqz	a0,201a40 <s_printf+0x290>
            }
        } else {
            uart_putchar(*fmt);
        }

        fmt++;
  201840:	001d8413          	addi	s0,s11,1
    while (*fmt) {
  201844:	00044503          	lbu	a0,0(s0)
  201848:	01250e63          	beq	a0,s2,201864 <s_printf+0xb4>
  20184c:	20050063          	beqz	a0,201a4c <s_printf+0x29c>
            uart_putchar(*fmt);
  201850:	ffffe097          	auipc	ra,0xffffe
  201854:	7e0080e7          	jalr	2016(ra) # 200030 <uart_putchar>
  201858:	00040d93          	mv	s11,s0
        fmt++;
  20185c:	00140413          	addi	s0,s0,1
  201860:	fe5ff06f          	j	201844 <s_printf+0x94>
            switch (*fmt) {
  201864:	00144503          	lbu	a0,1(s0)
            fmt++;
  201868:	00140d93          	addi	s11,s0,1
            switch (*fmt) {
  20186c:	02a9cc63          	blt	s3,a0,2018a4 <s_printf+0xf4>
  201870:	11250663          	beq	a0,s2,20197c <s_printf+0x1cc>
  201874:	fc9514e3          	bne	a0,s1,20183c <s_printf+0x8c>
                    int value = va_arg(vargs, int);
  201878:	01812503          	lw	a0,24(sp)
  20187c:	00450593          	addi	a1,a0,4
  201880:	00b12c23          	sw	a1,24(sp)
  201884:	00052403          	lw	s0,0(a0)
                    if (value < 0) {
  201888:	14044063          	bltz	s0,2019c8 <s_printf+0x218>
                    if (u == 0) {
  20188c:	14041663          	bnez	s0,2019d8 <s_printf+0x228>
                        uart_putchar('0');
  201890:	03000513          	li	a0,48
  201894:	ffffe097          	auipc	ra,0xffffe
  201898:	79c080e7          	jalr	1948(ra) # 200030 <uart_putchar>
        fmt++;
  20189c:	001d8413          	addi	s0,s11,1
  2018a0:	fa5ff06f          	j	201844 <s_printf+0x94>
            switch (*fmt) {
  2018a4:	0f850663          	beq	a0,s8,201990 <s_printf+0x1e0>
  2018a8:	f9951ce3          	bne	a0,s9,201840 <s_printf+0x90>
                    unsigned value = va_arg(vargs, unsigned);
  2018ac:	01812503          	lw	a0,24(sp)
  2018b0:	00450593          	addi	a1,a0,4
  2018b4:	00b12c23          	sw	a1,24(sp)
  2018b8:	00052403          	lw	s0,0(a0)
                        unsigned nibble = (value >> (i * 4)) & 0xf;
  2018bc:	01c45513          	srli	a0,s0,0x1c
                        uart_putchar("0123456789abcdef"[nibble]);
  2018c0:	00ad0533          	add	a0,s10,a0
  2018c4:	00054503          	lbu	a0,0(a0)
  2018c8:	ffffe097          	auipc	ra,0xffffe
  2018cc:	768080e7          	jalr	1896(ra) # 200030 <uart_putchar>
                        unsigned nibble = (value >> (i * 4)) & 0xf;
  2018d0:	00441513          	slli	a0,s0,0x4
  2018d4:	01c55513          	srli	a0,a0,0x1c
                        uart_putchar("0123456789abcdef"[nibble]);
  2018d8:	00ad0533          	add	a0,s10,a0
  2018dc:	00054503          	lbu	a0,0(a0)
  2018e0:	ffffe097          	auipc	ra,0xffffe
  2018e4:	750080e7          	jalr	1872(ra) # 200030 <uart_putchar>
                        unsigned nibble = (value >> (i * 4)) & 0xf;
  2018e8:	00841513          	slli	a0,s0,0x8
  2018ec:	01c55513          	srli	a0,a0,0x1c
                        uart_putchar("0123456789abcdef"[nibble]);
  2018f0:	00ad0533          	add	a0,s10,a0
  2018f4:	00054503          	lbu	a0,0(a0)
  2018f8:	ffffe097          	auipc	ra,0xffffe
  2018fc:	738080e7          	jalr	1848(ra) # 200030 <uart_putchar>
                        unsigned nibble = (value >> (i * 4)) & 0xf;
  201900:	00c41513          	slli	a0,s0,0xc
  201904:	01c55513          	srli	a0,a0,0x1c
                        uart_putchar("0123456789abcdef"[nibble]);
  201908:	00ad0533          	add	a0,s10,a0
  20190c:	00054503          	lbu	a0,0(a0)
  201910:	ffffe097          	auipc	ra,0xffffe
  201914:	720080e7          	jalr	1824(ra) # 200030 <uart_putchar>
                        unsigned nibble = (value >> (i * 4)) & 0xf;
  201918:	01041513          	slli	a0,s0,0x10
  20191c:	01c55513          	srli	a0,a0,0x1c
                        uart_putchar("0123456789abcdef"[nibble]);
  201920:	00ad0533          	add	a0,s10,a0
  201924:	00054503          	lbu	a0,0(a0)
  201928:	ffffe097          	auipc	ra,0xffffe
  20192c:	708080e7          	jalr	1800(ra) # 200030 <uart_putchar>
                        unsigned nibble = (value >> (i * 4)) & 0xf;
  201930:	01441513          	slli	a0,s0,0x14
  201934:	01c55513          	srli	a0,a0,0x1c
                        uart_putchar("0123456789abcdef"[nibble]);
  201938:	00ad0533          	add	a0,s10,a0
  20193c:	00054503          	lbu	a0,0(a0)
  201940:	ffffe097          	auipc	ra,0xffffe
  201944:	6f0080e7          	jalr	1776(ra) # 200030 <uart_putchar>
                        unsigned nibble = (value >> (i * 4)) & 0xf;
  201948:	01841513          	slli	a0,s0,0x18
  20194c:	01c55513          	srli	a0,a0,0x1c
                        uart_putchar("0123456789abcdef"[nibble]);
  201950:	00ad0533          	add	a0,s10,a0
  201954:	00054503          	lbu	a0,0(a0)
  201958:	ffffe097          	auipc	ra,0xffffe
  20195c:	6d8080e7          	jalr	1752(ra) # 200030 <uart_putchar>
                        unsigned nibble = (value >> (i * 4)) & 0xf;
  201960:	00f47413          	andi	s0,s0,15
                        uart_putchar("0123456789abcdef"[nibble]);
  201964:	008d0433          	add	s0,s10,s0
  201968:	00044503          	lbu	a0,0(s0)
  20196c:	ffffe097          	auipc	ra,0xffffe
  201970:	6c4080e7          	jalr	1732(ra) # 200030 <uart_putchar>
        fmt++;
  201974:	001d8413          	addi	s0,s11,1
  201978:	ecdff06f          	j	201844 <s_printf+0x94>
                    uart_putchar('%');
  20197c:	02500513          	li	a0,37
  201980:	ffffe097          	auipc	ra,0xffffe
  201984:	6b0080e7          	jalr	1712(ra) # 200030 <uart_putchar>
        fmt++;
  201988:	001d8413          	addi	s0,s11,1
  20198c:	eb9ff06f          	j	201844 <s_printf+0x94>
                    const char *s = va_arg(vargs, const char *);
  201990:	01812503          	lw	a0,24(sp)
  201994:	00450593          	addi	a1,a0,4
  201998:	00b12c23          	sw	a1,24(sp)
  20199c:	00052403          	lw	s0,0(a0)
                    while (*s) {
  2019a0:	00044503          	lbu	a0,0(s0)
  2019a4:	e8050ee3          	beqz	a0,201840 <s_printf+0x90>
  2019a8:	00140413          	addi	s0,s0,1
                        uart_putchar(*s);
  2019ac:	0ff57513          	zext.b	a0,a0
  2019b0:	ffffe097          	auipc	ra,0xffffe
  2019b4:	680080e7          	jalr	1664(ra) # 200030 <uart_putchar>
                    while (*s) {
  2019b8:	00044503          	lbu	a0,0(s0)
  2019bc:	00140413          	addi	s0,s0,1
  2019c0:	fe0516e3          	bnez	a0,2019ac <s_printf+0x1fc>
  2019c4:	e7dff06f          	j	201840 <s_printf+0x90>
                        uart_putchar('-');
  2019c8:	02d00513          	li	a0,45
  2019cc:	ffffe097          	auipc	ra,0xffffe
  2019d0:	664080e7          	jalr	1636(ra) # 200030 <uart_putchar>
                        u = (unsigned int)(-(value + 1)) + 1;
  2019d4:	40800433          	neg	s0,s0
  2019d8:	00000513          	li	a0,0
  2019dc:	00040493          	mv	s1,s0
  2019e0:	00050a13          	mv	s4,a0
                        u /= 10;
  2019e4:	00a00593          	li	a1,10
  2019e8:	00040513          	mv	a0,s0
  2019ec:	00001097          	auipc	ra,0x1
  2019f0:	09c080e7          	jalr	156(ra) # 202a88 <__udivsi3>
  2019f4:	00050413          	mv	s0,a0
  2019f8:	00a00593          	li	a1,10
  2019fc:	00001097          	auipc	ra,0x1
  201a00:	060080e7          	jalr	96(ra) # 202a5c <__mulsi3>
  201a04:	40a48533          	sub	a0,s1,a0
                        buf[i++] = '0' + (u % 10);
  201a08:	03056593          	ori	a1,a0,48
  201a0c:	001a0513          	addi	a0,s4,1
  201a10:	014a8633          	add	a2,s5,s4
  201a14:	00b60023          	sb	a1,0(a2)
                    while (u > 0) {
  201a18:	fc9b62e3          	bltu	s6,s1,2019dc <s_printf+0x22c>
  201a1c:	06400493          	li	s1,100
                        uart_putchar(buf[--i]);
  201a20:	014a8533          	add	a0,s5,s4
  201a24:	00054503          	lbu	a0,0(a0)
  201a28:	ffffe097          	auipc	ra,0xffffe
  201a2c:	608080e7          	jalr	1544(ra) # 200030 <uart_putchar>
                    while (i > 0) {
  201a30:	001a0513          	addi	a0,s4,1
  201a34:	fffa0a13          	addi	s4,s4,-1
  201a38:	feabc4e3          	blt	s7,a0,201a20 <s_printf+0x270>
  201a3c:	e05ff06f          	j	201840 <s_printf+0x90>
                    uart_putchar('%');
  201a40:	02500513          	li	a0,37
  201a44:	ffffe097          	auipc	ra,0xffffe
  201a48:	5ec080e7          	jalr	1516(ra) # 200030 <uart_putchar>
  201a4c:	04c12083          	lw	ra,76(sp)
  201a50:	04812403          	lw	s0,72(sp)
  201a54:	04412483          	lw	s1,68(sp)
  201a58:	04012903          	lw	s2,64(sp)
  201a5c:	03c12983          	lw	s3,60(sp)
  201a60:	03812a03          	lw	s4,56(sp)
  201a64:	03412a83          	lw	s5,52(sp)
  201a68:	03012b03          	lw	s6,48(sp)
  201a6c:	02c12b83          	lw	s7,44(sp)
  201a70:	02812c03          	lw	s8,40(sp)
  201a74:	02412c83          	lw	s9,36(sp)
  201a78:	02012d03          	lw	s10,32(sp)
  201a7c:	01c12d83          	lw	s11,28(sp)
    }

end:
    va_end(vargs);
}
  201a80:	07010113          	addi	sp,sp,112
  201a84:	00008067          	ret

00201a88 <parse_hex>:
/* 簡易16進パーサ（"  0x1234" / "1234" 形式どちらも可） */
int parse_hex(const char *s, uintptr_t *out) {
    uintptr_t v = 0;

    /* skip leading spaces */
    while (*s == ' ' || *s == '\t') s++;
  201a88:	00250613          	addi	a2,a0,2
  201a8c:	00900693          	li	a3,9
  201a90:	02000713          	li	a4,32
  201a94:	0080006f          	j	201a9c <parse_hex+0x14>
  201a98:	00160613          	addi	a2,a2,1
  201a9c:	ffe64503          	lbu	a0,-2(a2)
  201aa0:	fed50ce3          	beq	a0,a3,201a98 <parse_hex+0x10>
  201aa4:	fee50ae3          	beq	a0,a4,201a98 <parse_hex+0x10>
  201aa8:	03000693          	li	a3,48
  201aac:	02d51063          	bne	a0,a3,201acc <parse_hex+0x44>

    /* optional 0x / 0X */
    if (s[0] == '0' && (s[1] == 'x' || s[1] == 'X')) s += 2;
  201ab0:	fff64503          	lbu	a0,-1(a2)
  201ab4:	02056513          	ori	a0,a0,32
  201ab8:	07800693          	li	a3,120
  201abc:	02d51063          	bne	a0,a3,201adc <parse_hex+0x54>
    if (!*s) return -1;
  201ac0:	00064503          	lbu	a0,0(a2)
  201ac4:	02051063          	bnez	a0,201ae4 <parse_hex+0x5c>
  201ac8:	00c0006f          	j	201ad4 <parse_hex+0x4c>
  201acc:	ffe60613          	addi	a2,a2,-2
  201ad0:	00051a63          	bnez	a0,201ae4 <parse_hex+0x5c>
  201ad4:	fff00513          	li	a0,-1
        else break;
        v = (v << 4) | d;
    }
    *out = v;
    return 0;
}
  201ad8:	00008067          	ret
  201adc:	ffe60613          	addi	a2,a2,-2
  201ae0:	03000513          	li	a0,48
  201ae4:	00000693          	li	a3,0
        if (c >= '0' && c <= '9') d = (uint32_t)(c - '0');
  201ae8:	00160613          	addi	a2,a2,1
  201aec:	00a00713          	li	a4,10
  201af0:	00600793          	li	a5,6
  201af4:	00500813          	li	a6,5
  201af8:	0200006f          	j	201b18 <parse_hex+0x90>
  201afc:	0ff57293          	zext.b	t0,a0
    while (*s) {
  201b00:	00064503          	lbu	a0,0(a2)
  201b04:	005888b3          	add	a7,a7,t0
        v = (v << 4) | d;
  201b08:	00469693          	slli	a3,a3,0x4
  201b0c:	00d8e6b3          	or	a3,a7,a3
    while (*s) {
  201b10:	00160613          	addi	a2,a2,1
  201b14:	02050a63          	beqz	a0,201b48 <parse_hex+0xc0>
        if (c >= '0' && c <= '9') d = (uint32_t)(c - '0');
  201b18:	fd050893          	addi	a7,a0,-48
  201b1c:	0ff8f293          	zext.b	t0,a7
  201b20:	fd000893          	li	a7,-48
  201b24:	fce2ece3          	bltu	t0,a4,201afc <parse_hex+0x74>
        else if (c >= 'a' && c <= 'f') d = 10u + (uint32_t)(c - 'a');
  201b28:	f9f50893          	addi	a7,a0,-97
  201b2c:	0ff8f293          	zext.b	t0,a7
  201b30:	fa900893          	li	a7,-87
  201b34:	fcf2e4e3          	bltu	t0,a5,201afc <parse_hex+0x74>
        else if (c >= 'A' && c <= 'F') d = 10u + (uint32_t)(c - 'A');
  201b38:	fbf50893          	addi	a7,a0,-65
  201b3c:	0ff8f293          	zext.b	t0,a7
  201b40:	fc900893          	li	a7,-55
  201b44:	fa587ce3          	bgeu	a6,t0,201afc <parse_hex+0x74>
  201b48:	00000513          	li	a0,0
    *out = v;
  201b4c:	00d5a023          	sw	a3,0(a1)
}
  201b50:	00008067          	ret

00201b54 <hexdump>:
/* 汎用hexdump本体：
 *  - addr: 先頭アドレス（今のページテーブルで有効な仮想アドレス）
 *  - len : ダンプ長
 *  - base_addr_label: 行頭に表示するベースアドレス（通常は addr と同じ）
 */
void hexdump(const void *addr, size_t len, uintptr_t base_addr_label) {
  201b54:	fc010113          	addi	sp,sp,-64
  201b58:	02112e23          	sw	ra,60(sp)
  201b5c:	02812c23          	sw	s0,56(sp)
  201b60:	02912a23          	sw	s1,52(sp)
  201b64:	03212823          	sw	s2,48(sp)
  201b68:	03312623          	sw	s3,44(sp)
  201b6c:	03412423          	sw	s4,40(sp)
  201b70:	03512223          	sw	s5,36(sp)
  201b74:	03612023          	sw	s6,32(sp)
  201b78:	01712e23          	sw	s7,28(sp)
  201b7c:	01812c23          	sw	s8,24(sp)
  201b80:	01912a23          	sw	s9,20(sp)
  201b84:	01a12823          	sw	s10,16(sp)
  201b88:	01b12623          	sw	s11,12(sp)
  201b8c:	00c12423          	sw	a2,8(sp)
    const uint8_t *p = (const uint8_t *)addr;
    size_t off = 0;

    while (off < len) {
  201b90:	20058463          	beqz	a1,201d98 <hexdump+0x244>
  201b94:	00058493          	mv	s1,a1
  201b98:	00050913          	mv	s2,a0
  201b9c:	00000a93          	li	s5,0
  201ba0:	00203537          	lui	a0,0x203
  201ba4:	31d50b13          	addi	s6,a0,797 # 20331d <print_hex8.HEX>
  201ba8:	00203537          	lui	a0,0x203
  201bac:	35350993          	addi	s3,a0,851 # 203353 <$d.1>
  201bb0:	00700b93          	li	s7,7
  201bb4:	01000c13          	li	s8,16
  201bb8:	05f00c93          	li	s9,95
  201bbc:	0240006f          	j	201be0 <hexdump+0x8c>
        uart_putchar('|');
        for (size_t i = 0; i < line; i++) {
            uint8_t c = p[off + i];
            uart_putchar((c >= 0x20 && c <= 0x7e) ? (char)c : '.');
        }
        uart_putchar('|');
  201bc0:	07c00513          	li	a0,124
  201bc4:	ffffe097          	auipc	ra,0xffffe
  201bc8:	46c080e7          	jalr	1132(ra) # 200030 <uart_putchar>
        uart_putchar('\n');
  201bcc:	00a00513          	li	a0,10
  201bd0:	ffffe097          	auipc	ra,0xffffe
  201bd4:	460080e7          	jalr	1120(ra) # 200030 <uart_putchar>

        off += line;
  201bd8:	015d0ab3          	add	s5,s10,s5
  201bdc:	1a9afe63          	bgeu	s5,s1,201d98 <hexdump+0x244>
  201be0:	00812a03          	lw	s4,8(sp)
        print_hex32((uint32_t)(base_addr_label + off));
  201be4:	014a8a33          	add	s4,s5,s4
        uint8_t nib = (v >> (i * 4)) & 0x0F;
  201be8:	01ca5513          	srli	a0,s4,0x1c
        uart_putchar(HEX[nib]);
  201bec:	00ab0533          	add	a0,s6,a0
  201bf0:	00054503          	lbu	a0,0(a0)
        size_t line = (len - off > 16) ? 16 : (len - off);
  201bf4:	41548d33          	sub	s10,s1,s5
        uart_putchar(HEX[nib]);
  201bf8:	ffffe097          	auipc	ra,0xffffe
  201bfc:	438080e7          	jalr	1080(ra) # 200030 <uart_putchar>
        uint8_t nib = (v >> (i * 4)) & 0x0F;
  201c00:	004a1513          	slli	a0,s4,0x4
  201c04:	01c55513          	srli	a0,a0,0x1c
        uart_putchar(HEX[nib]);
  201c08:	00ab0533          	add	a0,s6,a0
  201c0c:	00054503          	lbu	a0,0(a0)
  201c10:	ffffe097          	auipc	ra,0xffffe
  201c14:	420080e7          	jalr	1056(ra) # 200030 <uart_putchar>
        uint8_t nib = (v >> (i * 4)) & 0x0F;
  201c18:	008a1513          	slli	a0,s4,0x8
  201c1c:	01c55513          	srli	a0,a0,0x1c
        uart_putchar(HEX[nib]);
  201c20:	00ab0533          	add	a0,s6,a0
  201c24:	00054503          	lbu	a0,0(a0)
  201c28:	ffffe097          	auipc	ra,0xffffe
  201c2c:	408080e7          	jalr	1032(ra) # 200030 <uart_putchar>
        uint8_t nib = (v >> (i * 4)) & 0x0F;
  201c30:	00ca1513          	slli	a0,s4,0xc
  201c34:	01c55513          	srli	a0,a0,0x1c
        uart_putchar(HEX[nib]);
  201c38:	00ab0533          	add	a0,s6,a0
  201c3c:	00054503          	lbu	a0,0(a0)
  201c40:	ffffe097          	auipc	ra,0xffffe
  201c44:	3f0080e7          	jalr	1008(ra) # 200030 <uart_putchar>
        uint8_t nib = (v >> (i * 4)) & 0x0F;
  201c48:	010a1513          	slli	a0,s4,0x10
  201c4c:	01c55513          	srli	a0,a0,0x1c
        uart_putchar(HEX[nib]);
  201c50:	00ab0533          	add	a0,s6,a0
  201c54:	00054503          	lbu	a0,0(a0)
  201c58:	ffffe097          	auipc	ra,0xffffe
  201c5c:	3d8080e7          	jalr	984(ra) # 200030 <uart_putchar>
        uint8_t nib = (v >> (i * 4)) & 0x0F;
  201c60:	014a1513          	slli	a0,s4,0x14
  201c64:	01c55513          	srli	a0,a0,0x1c
        uart_putchar(HEX[nib]);
  201c68:	00ab0533          	add	a0,s6,a0
  201c6c:	00054503          	lbu	a0,0(a0)
  201c70:	ffffe097          	auipc	ra,0xffffe
  201c74:	3c0080e7          	jalr	960(ra) # 200030 <uart_putchar>
        uint8_t nib = (v >> (i * 4)) & 0x0F;
  201c78:	018a1513          	slli	a0,s4,0x18
  201c7c:	01c55513          	srli	a0,a0,0x1c
        uart_putchar(HEX[nib]);
  201c80:	00ab0533          	add	a0,s6,a0
  201c84:	00054503          	lbu	a0,0(a0)
  201c88:	ffffe097          	auipc	ra,0xffffe
  201c8c:	3a8080e7          	jalr	936(ra) # 200030 <uart_putchar>
        uint8_t nib = (v >> (i * 4)) & 0x0F;
  201c90:	00fa7513          	andi	a0,s4,15
        uart_putchar(HEX[nib]);
  201c94:	00ab0533          	add	a0,s6,a0
  201c98:	00054503          	lbu	a0,0(a0)
  201c9c:	ffffe097          	auipc	ra,0xffffe
  201ca0:	394080e7          	jalr	916(ra) # 200030 <uart_putchar>
        s_printf(": ");
  201ca4:	00098513          	mv	a0,s3
  201ca8:	00000097          	auipc	ra,0x0
  201cac:	b08080e7          	jalr	-1272(ra) # 2017b0 <s_printf>
  201cb0:	00000413          	li	s0,0
  201cb4:	01590db3          	add	s11,s2,s5
  201cb8:	00c0006f          	j	201cc4 <hexdump+0x170>
        for (size_t i = 0; i < 16; i++) {
  201cbc:	00140413          	addi	s0,s0,1
  201cc0:	07840863          	beq	s0,s8,201d30 <hexdump+0x1dc>
  201cc4:	03a47863          	bgeu	s0,s10,201cf4 <hexdump+0x1a0>
                print_hex8(p[off + i]);
  201cc8:	008d8533          	add	a0,s11,s0
  201ccc:	00054a03          	lbu	s4,0(a0)
  201cd0:	004a5513          	srli	a0,s4,0x4
    uart_putchar(HEX[v >> 4]);
  201cd4:	00ab0533          	add	a0,s6,a0
  201cd8:	00054503          	lbu	a0,0(a0)
  201cdc:	ffffe097          	auipc	ra,0xffffe
  201ce0:	354080e7          	jalr	852(ra) # 200030 <uart_putchar>
    uart_putchar(HEX[v & 0x0F]);
  201ce4:	00fa7513          	andi	a0,s4,15
  201ce8:	00ab0533          	add	a0,s6,a0
  201cec:	00054a03          	lbu	s4,0(a0)
  201cf0:	0140006f          	j	201d04 <hexdump+0x1b0>
                uart_putchar(' ');
  201cf4:	02000513          	li	a0,32
  201cf8:	02000a13          	li	s4,32
  201cfc:	ffffe097          	auipc	ra,0xffffe
  201d00:	334080e7          	jalr	820(ra) # 200030 <uart_putchar>
  201d04:	000a0513          	mv	a0,s4
  201d08:	ffffe097          	auipc	ra,0xffffe
  201d0c:	328080e7          	jalr	808(ra) # 200030 <uart_putchar>
            uart_putchar(' ');
  201d10:	02000513          	li	a0,32
  201d14:	ffffe097          	auipc	ra,0xffffe
  201d18:	31c080e7          	jalr	796(ra) # 200030 <uart_putchar>
            if (i == 7) uart_putchar(' '); /* 8バイト境界でスペース追加 */
  201d1c:	fb7410e3          	bne	s0,s7,201cbc <hexdump+0x168>
  201d20:	02000513          	li	a0,32
  201d24:	ffffe097          	auipc	ra,0xffffe
  201d28:	30c080e7          	jalr	780(ra) # 200030 <uart_putchar>
  201d2c:	f91ff06f          	j	201cbc <hexdump+0x168>
  201d30:	01000513          	li	a0,16
        size_t line = (len - off > 16) ? 16 : (len - off);
  201d34:	00ad6463          	bltu	s10,a0,201d3c <hexdump+0x1e8>
  201d38:	01000d13          	li	s10,16
        uart_putchar(' ');
  201d3c:	02000513          	li	a0,32
  201d40:	ffffe097          	auipc	ra,0xffffe
  201d44:	2f0080e7          	jalr	752(ra) # 200030 <uart_putchar>
        uart_putchar('|');
  201d48:	07c00513          	li	a0,124
  201d4c:	ffffe097          	auipc	ra,0xffffe
  201d50:	2e4080e7          	jalr	740(ra) # 200030 <uart_putchar>
        for (size_t i = 0; i < line; i++) {
  201d54:	e75486e3          	beq	s1,s5,201bc0 <hexdump+0x6c>
  201d58:	001d3513          	seqz	a0,s10
  201d5c:	01aa85b3          	add	a1,s5,s10
  201d60:	00a58533          	add	a0,a1,a0
  201d64:	00a90433          	add	s0,s2,a0
  201d68:	0180006f          	j	201d80 <hexdump+0x22c>
            uart_putchar((c >= 0x20 && c <= 0x7e) ? (char)c : '.');
  201d6c:	0ff57513          	zext.b	a0,a0
  201d70:	ffffe097          	auipc	ra,0xffffe
  201d74:	2c0080e7          	jalr	704(ra) # 200030 <uart_putchar>
        for (size_t i = 0; i < line; i++) {
  201d78:	001d8d93          	addi	s11,s11,1
  201d7c:	e48d82e3          	beq	s11,s0,201bc0 <hexdump+0x6c>
            uint8_t c = p[off + i];
  201d80:	000dc503          	lbu	a0,0(s11)
            uart_putchar((c >= 0x20 && c <= 0x7e) ? (char)c : '.');
  201d84:	fe050593          	addi	a1,a0,-32
  201d88:	0ff5f593          	zext.b	a1,a1
  201d8c:	ff95e0e3          	bltu	a1,s9,201d6c <hexdump+0x218>
  201d90:	02e00513          	li	a0,46
  201d94:	fd9ff06f          	j	201d6c <hexdump+0x218>
  201d98:	03c12083          	lw	ra,60(sp)
  201d9c:	03812403          	lw	s0,56(sp)
  201da0:	03412483          	lw	s1,52(sp)
  201da4:	03012903          	lw	s2,48(sp)
  201da8:	02c12983          	lw	s3,44(sp)
  201dac:	02812a03          	lw	s4,40(sp)
  201db0:	02412a83          	lw	s5,36(sp)
  201db4:	02012b03          	lw	s6,32(sp)
  201db8:	01c12b83          	lw	s7,28(sp)
  201dbc:	01812c03          	lw	s8,24(sp)
  201dc0:	01412c83          	lw	s9,20(sp)
  201dc4:	01012d03          	lw	s10,16(sp)
  201dc8:	00c12d83          	lw	s11,12(sp)
    }
}
  201dcc:	04010113          	addi	sp,sp,64
  201dd0:	00008067          	ret

00201dd4 <cmd_dump>:

void cmd_dump(int argc, const char **argv) {
  201dd4:	ff010113          	addi	sp,sp,-16
  201dd8:	00112623          	sw	ra,12(sp)
  201ddc:	00812423          	sw	s0,8(sp)
  201de0:	00000413          	li	s0,0
    const size_t    MAX_LEN      = 0x1000u;      /* 誤爆防止の上限 */

    uintptr_t addr = DEFAULT_BASE;
    size_t    len  = DEFAULT_LEN;

    if (argc >= 1 && argv && argv[0] && argv[0][0]) {
  201de4:	06a05463          	blez	a0,201e4c <cmd_dump+0x78>
  201de8:	06058263          	beqz	a1,201e4c <cmd_dump+0x78>
  201dec:	0005a683          	lw	a3,0(a1)
  201df0:	04068c63          	beqz	a3,201e48 <cmd_dump+0x74>
  201df4:	0006c603          	lbu	a2,0(a3)
  201df8:	04060863          	beqz	a2,201e48 <cmd_dump+0x74>
    while (*s == ' ' || *s == '\t') s++;
  201dfc:	00268693          	addi	a3,a3,2
  201e00:	00900713          	li	a4,9
  201e04:	02000793          	li	a5,32
  201e08:	00c0006f          	j	201e14 <cmd_dump+0x40>
  201e0c:	fff6c603          	lbu	a2,-1(a3)
  201e10:	00168693          	addi	a3,a3,1
  201e14:	0ff67813          	zext.b	a6,a2
  201e18:	fee80ae3          	beq	a6,a4,201e0c <cmd_dump+0x38>
  201e1c:	fef808e3          	beq	a6,a5,201e0c <cmd_dump+0x38>
  201e20:	03000713          	li	a4,48
  201e24:	08e81a63          	bne	a6,a4,201eb8 <cmd_dump+0xe4>
    if (s[0] == '0' && (s[1] == 'x' || s[1] == 'X')) s += 2;
  201e28:	fff6c603          	lbu	a2,-1(a3)
  201e2c:	02066613          	ori	a2,a2,32
  201e30:	07800713          	li	a4,120
  201e34:	0ce61263          	bne	a2,a4,201ef8 <cmd_dump+0x124>
    if (!*s) return -1;
  201e38:	0006c603          	lbu	a2,0(a3)
  201e3c:	0ff67713          	zext.b	a4,a2
  201e40:	0c071063          	bnez	a4,201f00 <cmd_dump+0x12c>
  201e44:	0800006f          	j	201ec4 <cmd_dump+0xf0>
  201e48:	00000413          	li	s0,0
  201e4c:	00200693          	li	a3,2
  201e50:	10000613          	li	a2,256
  201e54:	1ad54863          	blt	a0,a3,202004 <cmd_dump+0x230>
  201e58:	1a058663          	beqz	a1,202004 <cmd_dump+0x230>
            s_printf("usage: dmp [offset_hex] [len_hex]\n");
            return;
        }
        addr = DEFAULT_BASE + offset;
    }
    if (argc >= 2 && argv && argv[1] && argv[1][0]) {
  201e5c:	0045a583          	lw	a1,4(a1)
  201e60:	1a058263          	beqz	a1,202004 <cmd_dump+0x230>
  201e64:	0005c503          	lbu	a0,0(a1)
  201e68:	18050e63          	beqz	a0,202004 <cmd_dump+0x230>
    while (*s == ' ' || *s == '\t') s++;
  201e6c:	00258593          	addi	a1,a1,2
  201e70:	00900693          	li	a3,9
  201e74:	02000713          	li	a4,32
  201e78:	00c0006f          	j	201e84 <cmd_dump+0xb0>
  201e7c:	fff5c503          	lbu	a0,-1(a1)
  201e80:	00158593          	addi	a1,a1,1
  201e84:	0ff57793          	zext.b	a5,a0
  201e88:	fed78ae3          	beq	a5,a3,201e7c <cmd_dump+0xa8>
  201e8c:	fee788e3          	beq	a5,a4,201e7c <cmd_dump+0xa8>
  201e90:	03000693          	li	a3,48
  201e94:	02d79e63          	bne	a5,a3,201ed0 <cmd_dump+0xfc>
    if (s[0] == '0' && (s[1] == 'x' || s[1] == 'X')) s += 2;
  201e98:	fff5c503          	lbu	a0,-1(a1)
  201e9c:	02056513          	ori	a0,a0,32
  201ea0:	07800693          	li	a3,120
  201ea4:	0cd51263          	bne	a0,a3,201f68 <cmd_dump+0x194>
    if (!*s) return -1;
  201ea8:	0005c503          	lbu	a0,0(a1)
  201eac:	0ff57693          	zext.b	a3,a0
  201eb0:	0c069063          	bnez	a3,201f70 <cmd_dump+0x19c>
  201eb4:	0280006f          	j	201edc <cmd_dump+0x108>
  201eb8:	ffe68693          	addi	a3,a3,-2
  201ebc:	0ff67713          	zext.b	a4,a2
  201ec0:	04071063          	bnez	a4,201f00 <cmd_dump+0x12c>
            s_printf("usage: dmp [offset_hex] [len_hex]\n");
  201ec4:	00203537          	lui	a0,0x203
  201ec8:	27b50513          	addi	a0,a0,635 # 20327b <$d.4+0x166>
  201ecc:	0180006f          	j	201ee4 <cmd_dump+0x110>
    if (!*s) return -1;
  201ed0:	ffe58593          	addi	a1,a1,-2
  201ed4:	0ff57693          	zext.b	a3,a0
  201ed8:	08069c63          	bnez	a3,201f70 <cmd_dump+0x19c>
        uintptr_t lhex = 0;
        if (parse_hex(argv[1], &lhex) != 0) {
            s_printf("usage: dump [offset_hex] [len_hex]\n");
  201edc:	00203537          	lui	a0,0x203
  201ee0:	cdd50513          	addi	a0,a0,-803 # 202cdd <$d.1+0xd5>
  201ee4:	00c12083          	lw	ra,12(sp)
  201ee8:	00812403          	lw	s0,8(sp)
  201eec:	01010113          	addi	sp,sp,16
  201ef0:	00000317          	auipc	t1,0x0
  201ef4:	8c030067          	jr	-1856(t1) # 2017b0 <s_printf>
  201ef8:	ffe68693          	addi	a3,a3,-2
  201efc:	03000613          	li	a2,48
  201f00:	00000413          	li	s0,0
        if (c >= '0' && c <= '9') d = (uint32_t)(c - '0');
  201f04:	00168693          	addi	a3,a3,1
  201f08:	00a00713          	li	a4,10
  201f0c:	00600793          	li	a5,6
  201f10:	00500813          	li	a6,5
  201f14:	0200006f          	j	201f34 <cmd_dump+0x160>
  201f18:	0ff67293          	zext.b	t0,a2
    while (*s) {
  201f1c:	0006c603          	lbu	a2,0(a3)
  201f20:	005888b3          	add	a7,a7,t0
        v = (v << 4) | d;
  201f24:	00441413          	slli	s0,s0,0x4
  201f28:	0088e433          	or	s0,a7,s0
    while (*s) {
  201f2c:	00168693          	addi	a3,a3,1
  201f30:	f0060ee3          	beqz	a2,201e4c <cmd_dump+0x78>
        if (c >= '0' && c <= '9') d = (uint32_t)(c - '0');
  201f34:	fd060893          	addi	a7,a2,-48
  201f38:	0ff8f293          	zext.b	t0,a7
  201f3c:	fd000893          	li	a7,-48
  201f40:	fce2ece3          	bltu	t0,a4,201f18 <cmd_dump+0x144>
        else if (c >= 'a' && c <= 'f') d = 10u + (uint32_t)(c - 'a');
  201f44:	f9f60893          	addi	a7,a2,-97
  201f48:	0ff8f293          	zext.b	t0,a7
  201f4c:	fa900893          	li	a7,-87
  201f50:	fcf2e4e3          	bltu	t0,a5,201f18 <cmd_dump+0x144>
        else if (c >= 'A' && c <= 'F') d = 10u + (uint32_t)(c - 'A');
  201f54:	fbf60893          	addi	a7,a2,-65
  201f58:	0ff8f293          	zext.b	t0,a7
  201f5c:	fc900893          	li	a7,-55
  201f60:	fa587ce3          	bgeu	a6,t0,201f18 <cmd_dump+0x144>
  201f64:	ee9ff06f          	j	201e4c <cmd_dump+0x78>
  201f68:	ffe58593          	addi	a1,a1,-2
  201f6c:	03000513          	li	a0,48
  201f70:	00000693          	li	a3,0
        if (c >= '0' && c <= '9') d = (uint32_t)(c - '0');
  201f74:	00158593          	addi	a1,a1,1
  201f78:	00a00713          	li	a4,10
  201f7c:	00600793          	li	a5,6
  201f80:	00500813          	li	a6,5
  201f84:	0200006f          	j	201fa4 <cmd_dump+0x1d0>
  201f88:	0ff57293          	zext.b	t0,a0
    while (*s) {
  201f8c:	0005c503          	lbu	a0,0(a1)
  201f90:	005888b3          	add	a7,a7,t0
        v = (v << 4) | d;
  201f94:	00469693          	slli	a3,a3,0x4
  201f98:	00d8e6b3          	or	a3,a7,a3
    while (*s) {
  201f9c:	00158593          	addi	a1,a1,1
  201fa0:	02050a63          	beqz	a0,201fd4 <cmd_dump+0x200>
        if (c >= '0' && c <= '9') d = (uint32_t)(c - '0');
  201fa4:	fd050893          	addi	a7,a0,-48
  201fa8:	0ff8f293          	zext.b	t0,a7
  201fac:	fd000893          	li	a7,-48
  201fb0:	fce2ece3          	bltu	t0,a4,201f88 <cmd_dump+0x1b4>
        else if (c >= 'a' && c <= 'f') d = 10u + (uint32_t)(c - 'a');
  201fb4:	f9f50893          	addi	a7,a0,-97
  201fb8:	0ff8f293          	zext.b	t0,a7
  201fbc:	fa900893          	li	a7,-87
  201fc0:	fcf2e4e3          	bltu	t0,a5,201f88 <cmd_dump+0x1b4>
        else if (c >= 'A' && c <= 'F') d = 10u + (uint32_t)(c - 'A');
  201fc4:	fbf50893          	addi	a7,a0,-65
  201fc8:	0ff8f293          	zext.b	t0,a7
  201fcc:	fc900893          	li	a7,-55
  201fd0:	fa587ce3          	bgeu	a6,t0,201f88 <cmd_dump+0x1b4>
            return;
        }
        len = (size_t)lhex;
    }

    if (len == 0) {
  201fd4:	02068863          	beqz	a3,202004 <cmd_dump+0x230>
  201fd8:	00001537          	lui	a0,0x1
  201fdc:	00150513          	addi	a0,a0,1 # 1001 <$d.3+0x87b>
  201fe0:	00068613          	mv	a2,a3
        len = DEFAULT_LEN;
    } else if (len > MAX_LEN) {
  201fe4:	02a6e063          	bltu	a3,a0,202004 <cmd_dump+0x230>
        s_printf("[info] len too big (>0x%X), round down to 0x%X\n",
  201fe8:	00203537          	lui	a0,0x203
  201fec:	16250513          	addi	a0,a0,354 # 203162 <$d.4+0x4d>
  201ff0:	000015b7          	lui	a1,0x1
  201ff4:	00001637          	lui	a2,0x1
  201ff8:	fffff097          	auipc	ra,0xfffff
  201ffc:	7b8080e7          	jalr	1976(ra) # 2017b0 <s_printf>
  202000:	00001637          	lui	a2,0x1
               (unsigned)MAX_LEN, (unsigned)MAX_LEN);
        len = MAX_LEN;
    }

    hexdump((const void *)addr, len, addr);
  202004:	00040513          	mv	a0,s0
  202008:	00060593          	mv	a1,a2
  20200c:	00040613          	mv	a2,s0
  202010:	00c12083          	lw	ra,12(sp)
  202014:	00812403          	lw	s0,8(sp)
  202018:	01010113          	addi	sp,sp,16
  20201c:	00000317          	auipc	t1,0x0
  202020:	b3830067          	jr	-1224(t1) # 201b54 <hexdump>

00202024 <sa_run>:
            out[i][j] = in_B[(bk*2+i)*N + (bj*2+j)];
}

// SA API本体
void sa_run(const uint8_t *in_A, const uint8_t *in_B, const uint8_t Matrix_N, uint32_t *out_C)
{
  202024:	f9010113          	addi	sp,sp,-112
  202028:	06112623          	sw	ra,108(sp)
  20202c:	06812423          	sw	s0,104(sp)
  202030:	06912223          	sw	s1,100(sp)
  202034:	07212023          	sw	s2,96(sp)
  202038:	05312e23          	sw	s3,92(sp)
  20203c:	05412c23          	sw	s4,88(sp)
  202040:	05512a23          	sw	s5,84(sp)
  202044:	05612823          	sw	s6,80(sp)
  202048:	05712623          	sw	s7,76(sp)
  20204c:	05812423          	sw	s8,72(sp)
  202050:	05912223          	sw	s9,68(sp)
  202054:	05a12023          	sw	s10,64(sp)
  202058:	03b12e23          	sw	s11,60(sp)
  20205c:	00d12423          	sw	a3,8(sp)
  202060:	00058913          	mv	s2,a1
  202064:	00a12223          	sw	a0,4(sp)
  202068:	00000513          	li	a0,0
  20206c:	00020b37          	lui	s6,0x20
    // --------------------------------------------------------
    // 0. SA_ADDR_A,B,C設定
    // --------------------------------------------------------
    // csr_SA_ADDR_A,B
    CSR_WRITE(0x7D0, PSC_SA_ADDR_A);
  202070:	7d0b1073          	csrw	0x7d0,s6
  202074:	020b0593          	addi	a1,s6,32 # 20020 <$d.4+0x1d8b3>
    CSR_WRITE(0x7D4, PSC_SA_ADDR_B);
  202078:	7d459073          	csrw	0x7d4,a1
  20207c:	040b0593          	addi	a1,s6,64
    // csr_SA_ADDR_C
    CSR_WRITE(0x7D8, PSC_SA_ADDR_C);
  202080:	7d859073          	csrw	0x7d8,a1
  202084:	00200593          	li	a1,2
    //sa_write_B(B_sa);
    //wb = sa_write_matrix_and_wb();

    // -------- SA 実行 --------
    // sa_reset
    CSR_WRITE(0x7C0, 0x02);
  202088:	7c059073          	csrw	0x7c0,a1
    CSR_WRITE(0x7C0, 0x00);
  20208c:	7c051073          	csrw	0x7c0,a0
  202090:	00100513          	li	a0,1
    // sa_mode : OS mode.
    CSR_WRITE(0x7C4, 0x01);
  202094:	7c451073          	csrw	0x7c4,a0

    //uint32_t (*out2D)[Matrix_N] = (uint32_t (*)[Matrix_N])out_C;

    for (int bi = 0; bi < Matrix_N/2; bi++) {
  202098:	22b66063          	bltu	a2,a1,2022b8 <sa_run+0x294>
  20209c:	00060493          	mv	s1,a2
  2020a0:	00000513          	li	a0,0
  2020a4:	00165593          	srli	a1,a2,0x1
  2020a8:	02b12c23          	sw	a1,56(sp)
  2020ac:	fff58593          	addi	a1,a1,-1 # fff <$d.3+0x879>
  2020b0:	02b12223          	sw	a1,36(sp)
  2020b4:	00a12623          	sw	a0,12(sp)
  2020b8:	00151a13          	slli	s4,a0,0x1
  2020bc:	000a0513          	mv	a0,s4
  2020c0:	00048593          	mv	a1,s1
  2020c4:	00001097          	auipc	ra,0x1
  2020c8:	998080e7          	jalr	-1640(ra) # 202a5c <__mulsi3>
  2020cc:	00050993          	mv	s3,a0
  2020d0:	00412403          	lw	s0,4(sp)
  2020d4:	00a40533          	add	a0,s0,a0
  2020d8:	02a12a23          	sw	a0,52(sp)
  2020dc:	00150513          	addi	a0,a0,1
  2020e0:	02a12823          	sw	a0,48(sp)
  2020e4:	001a0513          	addi	a0,s4,1
  2020e8:	00048593          	mv	a1,s1
  2020ec:	00001097          	auipc	ra,0x1
  2020f0:	970080e7          	jalr	-1680(ra) # 202a5c <__mulsi3>
  2020f4:	00000713          	li	a4,0
  2020f8:	00a40433          	add	s0,s0,a0
  2020fc:	02812623          	sw	s0,44(sp)
  202100:	00140413          	addi	s0,s0,1
  202104:	02812423          	sw	s0,40(sp)
  202108:	00299593          	slli	a1,s3,0x2
  20210c:	00812603          	lw	a2,8(sp)
  202110:	00b605b3          	add	a1,a2,a1
  202114:	00b12e23          	sw	a1,28(sp)
  202118:	00458593          	addi	a1,a1,4
  20211c:	00b12c23          	sw	a1,24(sp)
  202120:	00251513          	slli	a0,a0,0x2
  202124:	00a60533          	add	a0,a2,a0
  202128:	00a12a23          	sw	a0,20(sp)
  20212c:	00450513          	addi	a0,a0,4
  202130:	00a12823          	sw	a0,16(sp)
  202134:	00000d93          	li	s11,0
        for (int bj = 0; bj < Matrix_N/2; bj++) {

            // sa_clear:bit[2]
            CSR_WRITE(0x7C0, 0x04);
  202138:	00400513          	li	a0,4
  20213c:	7c051073          	csrw	0x7c0,a0
            CSR_WRITE(0x7C0, 0x00);
  202140:	7c0d9073          	csrw	0x7c0,s11
  202144:	02e12023          	sw	a4,32(sp)
  202148:	00171413          	slli	s0,a4,0x1
  20214c:	001d9a13          	slli	s4,s11,0x1
  202150:	03412503          	lw	a0,52(sp)
            out[i][j] = in_A[(bi*2+i)*N + (bk*2+j)];
  202154:	01450533          	add	a0,a0,s4
  202158:	00054c83          	lbu	s9,0(a0)
  20215c:	03012503          	lw	a0,48(sp)
  202160:	01450533          	add	a0,a0,s4
  202164:	00054c03          	lbu	s8,0(a0)
  202168:	02c12503          	lw	a0,44(sp)
  20216c:	01450533          	add	a0,a0,s4
  202170:	00054d03          	lbu	s10,0(a0)
  202174:	02812503          	lw	a0,40(sp)
  202178:	01450533          	add	a0,a0,s4
  20217c:	00054a83          	lbu	s5,0(a0)
  202180:	000a0513          	mv	a0,s4
  202184:	00048593          	mv	a1,s1
  202188:	00001097          	auipc	ra,0x1
  20218c:	8d4080e7          	jalr	-1836(ra) # 202a5c <__mulsi3>
  202190:	008905b3          	add	a1,s2,s0
            out[i][j] = in_B[(bk*2+i)*N + (bj*2+j)];
  202194:	00a58533          	add	a0,a1,a0
  202198:	00054b83          	lbu	s7,0(a0)
  20219c:	00154983          	lbu	s3,1(a0)
  2021a0:	001a0513          	addi	a0,s4,1
  2021a4:	00048593          	mv	a1,s1
  2021a8:	00001097          	auipc	ra,0x1
  2021ac:	8b4080e7          	jalr	-1868(ra) # 202a5c <__mulsi3>
  2021b0:	00000593          	li	a1,0
  2021b4:	00890633          	add	a2,s2,s0
  2021b8:	00a60533          	add	a0,a2,a0
            ((uint32_t)B << 8) |
  2021bc:	008c1c13          	slli	s8,s8,0x8
  2021c0:	019c6633          	or	a2,s8,s9
            out[i][j] = in_B[(bk*2+i)*N + (bj*2+j)];
  2021c4:	00054683          	lbu	a3,0(a0)
  2021c8:	00154503          	lbu	a0,1(a0)
        *REG[i] = packed;
  2021cc:	00cb2023          	sw	a2,0(s6)
            ((uint32_t)B << 8) |
  2021d0:	008a9a93          	slli	s5,s5,0x8
  2021d4:	01aae633          	or	a2,s5,s10
        *REG[i] = packed;
  2021d8:	00cb2223          	sw	a2,4(s6)
            ((uint32_t)B << 8) |
  2021dc:	00899993          	slli	s3,s3,0x8
  2021e0:	0179e633          	or	a2,s3,s7
        *REG[i] = packed;
  2021e4:	02cb2023          	sw	a2,32(s6)
            ((uint32_t)B << 8) |
  2021e8:	00851513          	slli	a0,a0,0x8
  2021ec:	00d56533          	or	a0,a0,a3
        *REG[i] = packed;
  2021f0:	02ab2223          	sw	a0,36(s6)

                sa_write_A(A_sa);
                sa_write_B(B_sa);

                // sa_reset:bit[1]
                CSR_WRITE(0x7C0, (0x02));
  2021f4:	00200513          	li	a0,2
  2021f8:	7c051073          	csrw	0x7c0,a0
                CSR_WRITE(0x7C0, (0x00));
  2021fc:	7c059073          	csrw	0x7c0,a1
  202200:	02412503          	lw	a0,36(sp)
  202204:	00ad9e63          	bne	s11,a0,202220 <sa_run+0x1fc>
                // start:bit[0]
                if (bk == Matrix_N/2 - 1) {
                    CSR_WRITE(0x7C0, (0x08 | 0x01));
  202208:	00900513          	li	a0,9
  20220c:	7c051073          	csrw	0x7c0,a0
                    CSR_WRITE(0x7C0, (0x08 | 0x00));
  202210:	00800513          	li	a0,8
  202214:	7c051073          	csrw	0x7c0,a0

                // wait 
                //tiny_delay(100);

                // 0x7C8 = csr_SA_STATUS
                while ((CSR_READ(0x7C8) & 0x01) != 0x01) {
  202218:	7c802573          	csrr	a0,0x7c8
  20221c:	0240006f          	j	202240 <sa_run+0x21c>
  202220:	00000513          	li	a0,0
                    CSR_WRITE(0x7C0, 0x01);
  202224:	00100593          	li	a1,1
  202228:	7c059073          	csrw	0x7c0,a1
                    CSR_WRITE(0x7C0, 0x00);
  20222c:	7c051073          	csrw	0x7c0,a0
                while ((CSR_READ(0x7C8) & 0x01) != 0x01) {
  202230:	7c802573          	csrr	a0,0x7c8
  202234:	00c0006f          	j	202240 <sa_run+0x21c>
                    __asm__ volatile("nop");
  202238:	00000013          	nop
                while ((CSR_READ(0x7C8) & 0x01) != 0x01) {
  20223c:	7c802573          	csrr	a0,0x7c8
  202240:	00157513          	andi	a0,a0,1
  202244:	fe050ae3          	beqz	a0,202238 <sa_run+0x214>
            for (int bk = 0; bk < Matrix_N/2; bk++) {
  202248:	001d8d93          	addi	s11,s11,1
  20224c:	03812503          	lw	a0,56(sp)
  202250:	eead9ee3          	bne	s11,a0,20214c <sa_run+0x128>
    uint32_t v0 = base[0];
  202254:	040b2503          	lw	a0,64(s6)
    uint32_t v1 = base[1];
  202258:	044b2583          	lw	a1,68(s6)
    uint32_t v2 = base[2];
  20225c:	048b2603          	lw	a2,72(s6)
    uint32_t v3 = base[3];
  202260:	04cb2683          	lw	a3,76(s6)

            // -------- out[4] に格納 --------
            for (int mi = 0; mi < 2; mi++) {
                for (int mj = 0; mj < 2; mj++) {
                    //out2D[bi*2+mi][bj*2+mj] = C_sa[mi][mj];
                    out_C[(bi*2+mi)*Matrix_N + (bj*2+mj)] = C_sa[mi][mj];
  202264:	00241413          	slli	s0,s0,0x2
  202268:	01c12703          	lw	a4,28(sp)
  20226c:	00870733          	add	a4,a4,s0
  202270:	00a72023          	sw	a0,0(a4) # 1000 <$d.3+0x87a>
  202274:	01812503          	lw	a0,24(sp)
  202278:	00850533          	add	a0,a0,s0
  20227c:	00b52023          	sw	a1,0(a0)
  202280:	01412503          	lw	a0,20(sp)
  202284:	00850533          	add	a0,a0,s0
  202288:	00c52023          	sw	a2,0(a0)
  20228c:	01012503          	lw	a0,16(sp)
  202290:	00850433          	add	s0,a0,s0
  202294:	02012703          	lw	a4,32(sp)
        for (int bj = 0; bj < Matrix_N/2; bj++) {
  202298:	00170713          	addi	a4,a4,1
                    out_C[(bi*2+mi)*Matrix_N + (bj*2+mj)] = C_sa[mi][mj];
  20229c:	00d42023          	sw	a3,0(s0)
  2022a0:	03812503          	lw	a0,56(sp)
        for (int bj = 0; bj < Matrix_N/2; bj++) {
  2022a4:	e8a718e3          	bne	a4,a0,202134 <sa_run+0x110>
  2022a8:	00c12503          	lw	a0,12(sp)
    for (int bi = 0; bi < Matrix_N/2; bi++) {
  2022ac:	00150513          	addi	a0,a0,1
  2022b0:	03812583          	lw	a1,56(sp)
  2022b4:	e0b510e3          	bne	a0,a1,2020b4 <sa_run+0x90>
  2022b8:	06c12083          	lw	ra,108(sp)
  2022bc:	06812403          	lw	s0,104(sp)
  2022c0:	06412483          	lw	s1,100(sp)
  2022c4:	06012903          	lw	s2,96(sp)
  2022c8:	05c12983          	lw	s3,92(sp)
  2022cc:	05812a03          	lw	s4,88(sp)
  2022d0:	05412a83          	lw	s5,84(sp)
  2022d4:	05012b03          	lw	s6,80(sp)
  2022d8:	04c12b83          	lw	s7,76(sp)
  2022dc:	04812c03          	lw	s8,72(sp)
  2022e0:	04412c83          	lw	s9,68(sp)
  2022e4:	04012d03          	lw	s10,64(sp)
  2022e8:	03c12d83          	lw	s11,60(sp)
                    //putchar('\n');
                }
            }
        }
    }
}
  2022ec:	07010113          	addi	sp,sp,112
  2022f0:	00008067          	ret

002022f4 <rand32>:
// -------------------------------------------------------
static uint32_t lfsr;

uint32_t rand32()
{
    if (lfsr == 0) lfsr = 143253719;
  2022f4:	002355b7          	lui	a1,0x235
  2022f8:	7b05a503          	lw	a0,1968(a1) # 2357b0 <lfsr>
  2022fc:	00051663          	bnez	a0,202308 <rand32+0x14>
  202300:	0889e537          	lui	a0,0x889e
  202304:	0d750513          	addi	a0,a0,215 # 889e0d7 <__free_ram_end+0x85480d7>

    lfsr ^= lfsr << 13;
  202308:	00d51613          	slli	a2,a0,0xd
  20230c:	00a64533          	xor	a0,a2,a0
    lfsr ^= lfsr >> 17;
  202310:	01155613          	srli	a2,a0,0x11
  202314:	00a64533          	xor	a0,a2,a0
    lfsr ^= lfsr << 5;
  202318:	00551613          	slli	a2,a0,0x5
  20231c:	00a64533          	xor	a0,a2,a0
  202320:	7aa5a823          	sw	a0,1968(a1)
    return lfsr;
  202324:	00008067          	ret

00202328 <s_call_sa_api>:
}

// -------------------------------------------------------
// SA実行関数
void s_call_sa_api(const uint8_t matrix_N)
{
  202328:	fe010113          	addi	sp,sp,-32
  20232c:	00112e23          	sw	ra,28(sp)
  202330:	00812c23          	sw	s0,24(sp)
  202334:	00912a23          	sw	s1,20(sp)
  202338:	01212823          	sw	s2,16(sp)
  20233c:	01312623          	sw	s3,12(sp)
  202340:	01412423          	sw	s4,8(sp)
  202344:	01512223          	sw	s5,4(sp)
  202348:	01612023          	sw	s6,0(sp)
  20234c:	00050413          	mv	s0,a0
  202350:	00000513          	li	a0,0
  202354:	002355b7          	lui	a1,0x235
  202358:	7b958593          	addi	a1,a1,1977 # 2357b9 <s_call_sa_api.A_mat+0x5>
  20235c:	00236637          	lui	a2,0x236
  202360:	84960613          	addi	a2,a2,-1975 # 235849 <s_call_sa_api.B_mat+0x5>
  202364:	02400693          	li	a3,36

    for (int i = 0; i < SA_MAT_MAX; i++) {
        for (int j = 0; j < SA_MAT_MAX; j++) {
            //A_mat[i][j] = (uint8_t)(rand32() % 64);
            //B_mat[i][j] = (uint8_t)(rand32() % 64);
            A_mat[i][j] = (uint8_t)(3*i + 2*j);
  202368:	fea58da3          	sb	a0,-5(a1)
            B_mat[i][j] = (uint8_t)(3*i + j + 5);
  20236c:	00550713          	addi	a4,a0,5
  202370:	fee60da3          	sb	a4,-5(a2)
            A_mat[i][j] = (uint8_t)(3*i + 2*j);
  202374:	00250713          	addi	a4,a0,2
  202378:	fee58e23          	sb	a4,-4(a1)
            B_mat[i][j] = (uint8_t)(3*i + j + 5);
  20237c:	00650713          	addi	a4,a0,6
  202380:	fee60e23          	sb	a4,-4(a2)
            A_mat[i][j] = (uint8_t)(3*i + 2*j);
  202384:	00450793          	addi	a5,a0,4
  202388:	fef58ea3          	sb	a5,-3(a1)
            B_mat[i][j] = (uint8_t)(3*i + j + 5);
  20238c:	00750793          	addi	a5,a0,7
  202390:	fef60ea3          	sb	a5,-3(a2)
            A_mat[i][j] = (uint8_t)(3*i + 2*j);
  202394:	fee58f23          	sb	a4,-2(a1)
            B_mat[i][j] = (uint8_t)(3*i + j + 5);
  202398:	00850713          	addi	a4,a0,8
  20239c:	fee60f23          	sb	a4,-2(a2)
            A_mat[i][j] = (uint8_t)(3*i + 2*j);
  2023a0:	fee58fa3          	sb	a4,-1(a1)
            B_mat[i][j] = (uint8_t)(3*i + j + 5);
  2023a4:	00950713          	addi	a4,a0,9
  2023a8:	fee60fa3          	sb	a4,-1(a2)
            A_mat[i][j] = (uint8_t)(3*i + 2*j);
  2023ac:	00a50713          	addi	a4,a0,10
  2023b0:	00e58023          	sb	a4,0(a1)
            B_mat[i][j] = (uint8_t)(3*i + j + 5);
  2023b4:	00e60023          	sb	a4,0(a2)
            A_mat[i][j] = (uint8_t)(3*i + 2*j);
  2023b8:	00c50713          	addi	a4,a0,12
  2023bc:	00e580a3          	sb	a4,1(a1)
            B_mat[i][j] = (uint8_t)(3*i + j + 5);
  2023c0:	00b50793          	addi	a5,a0,11
  2023c4:	00f600a3          	sb	a5,1(a2)
            A_mat[i][j] = (uint8_t)(3*i + 2*j);
  2023c8:	00e50793          	addi	a5,a0,14
  2023cc:	00f58123          	sb	a5,2(a1)
            B_mat[i][j] = (uint8_t)(3*i + j + 5);
  2023d0:	00e60123          	sb	a4,2(a2)
            A_mat[i][j] = (uint8_t)(3*i + 2*j);
  2023d4:	01050713          	addi	a4,a0,16
  2023d8:	00e581a3          	sb	a4,3(a1)
            B_mat[i][j] = (uint8_t)(3*i + j + 5);
  2023dc:	00d50813          	addi	a6,a0,13
  2023e0:	010601a3          	sb	a6,3(a2)
            A_mat[i][j] = (uint8_t)(3*i + 2*j);
  2023e4:	01250813          	addi	a6,a0,18
  2023e8:	01058223          	sb	a6,4(a1)
            B_mat[i][j] = (uint8_t)(3*i + j + 5);
  2023ec:	00f60223          	sb	a5,4(a2)
            A_mat[i][j] = (uint8_t)(3*i + 2*j);
  2023f0:	01450793          	addi	a5,a0,20
  2023f4:	00f582a3          	sb	a5,5(a1)
            B_mat[i][j] = (uint8_t)(3*i + j + 5);
  2023f8:	00f50793          	addi	a5,a0,15
  2023fc:	00f602a3          	sb	a5,5(a2)
            A_mat[i][j] = (uint8_t)(3*i + 2*j);
  202400:	01650793          	addi	a5,a0,22
  202404:	00f58323          	sb	a5,6(a1)
            B_mat[i][j] = (uint8_t)(3*i + j + 5);
  202408:	00e60323          	sb	a4,6(a2)
    for (int i = 0; i < SA_MAT_MAX; i++) {
  20240c:	00350513          	addi	a0,a0,3
  202410:	00c58593          	addi	a1,a1,12
  202414:	00c60613          	addi	a2,a2,12
  202418:	f4d518e3          	bne	a0,a3,202368 <s_call_sa_api+0x40>
        }
    }

    A_mat[0][0] = 1;
    A_mat[2][3] = 2;
  20241c:	00235537          	lui	a0,0x235
  202420:	7b450913          	addi	s2,a0,1972 # 2357b4 <s_call_sa_api.A_mat>
  202424:	00200593          	li	a1,2
  202428:	00b90da3          	sb	a1,27(s2)
    A_mat[5][3] = 0;
  20242c:	02090fa3          	sb	zero,63(s2)
  202430:	00300593          	li	a1,3
    A_mat[0][0] = 3;
  202434:	7ab50a23          	sb	a1,1972(a0)

#if 1
    // ---- A,B表示 ----
    for (int i = 0; i < matrix_N; i++) {
  202438:	0c040c63          	beqz	s0,202510 <s_call_sa_api+0x1e8>
  20243c:	00000493          	li	s1,0
  202440:	00090993          	mv	s3,s2
        for (int j = 0; j < matrix_N; j++) {
  202444:	00c00593          	li	a1,12
  202448:	00048513          	mv	a0,s1
  20244c:	00000097          	auipc	ra,0x0
  202450:	610080e7          	jalr	1552(ra) # 202a5c <__mulsi3>
  202454:	00a40533          	add	a0,s0,a0
  202458:	00a90a33          	add	s4,s2,a0
  20245c:	00098a93          	mv	s5,s3
            s_print_int((int)A_mat[i][j]);
  202460:	000ac503          	lbu	a0,0(s5) # a3000000 <__free_ram_end+0xa2caa000>
  202464:	fffff097          	auipc	ra,0xfffff
  202468:	250080e7          	jalr	592(ra) # 2016b4 <s_print_int>
            putchar(' ');
  20246c:	02000513          	li	a0,32
  202470:	ffffe097          	auipc	ra,0xffffe
  202474:	ba0080e7          	jalr	-1120(ra) # 200010 <putchar>
        for (int j = 0; j < matrix_N; j++) {
  202478:	001a8a93          	addi	s5,s5,1
  20247c:	ff4a92e3          	bne	s5,s4,202460 <s_call_sa_api+0x138>
        }
        putchar('\n');
  202480:	00a00513          	li	a0,10
  202484:	ffffe097          	auipc	ra,0xffffe
  202488:	b8c080e7          	jalr	-1140(ra) # 200010 <putchar>
    for (int i = 0; i < matrix_N; i++) {
  20248c:	00148493          	addi	s1,s1,1 # 400001 <__free_ram_end+0xaa001>
  202490:	00c98993          	addi	s3,s3,12
  202494:	fa8498e3          	bne	s1,s0,202444 <s_call_sa_api+0x11c>
    }
    putchar('\n');
  202498:	00a00513          	li	a0,10
  20249c:	ffffe097          	auipc	ra,0xffffe
  2024a0:	b74080e7          	jalr	-1164(ra) # 200010 <putchar>
    
    for (int i = 0; i < matrix_N; i++) {
  2024a4:	12040a63          	beqz	s0,2025d8 <s_call_sa_api+0x2b0>
  2024a8:	00236537          	lui	a0,0x236
  2024ac:	84450913          	addi	s2,a0,-1980 # 235844 <s_call_sa_api.B_mat>
  2024b0:	00000493          	li	s1,0
  2024b4:	00090993          	mv	s3,s2
        for (int j = 0; j < matrix_N; j++) {
  2024b8:	00c00593          	li	a1,12
  2024bc:	00048513          	mv	a0,s1
  2024c0:	00000097          	auipc	ra,0x0
  2024c4:	59c080e7          	jalr	1436(ra) # 202a5c <__mulsi3>
  2024c8:	00a40533          	add	a0,s0,a0
  2024cc:	00a90a33          	add	s4,s2,a0
  2024d0:	00098a93          	mv	s5,s3
            s_print_int((int)B_mat[i][j]);
  2024d4:	000ac503          	lbu	a0,0(s5)
  2024d8:	fffff097          	auipc	ra,0xfffff
  2024dc:	1dc080e7          	jalr	476(ra) # 2016b4 <s_print_int>
            putchar(' ');
  2024e0:	02000513          	li	a0,32
  2024e4:	ffffe097          	auipc	ra,0xffffe
  2024e8:	b2c080e7          	jalr	-1236(ra) # 200010 <putchar>
        for (int j = 0; j < matrix_N; j++) {
  2024ec:	001a8a93          	addi	s5,s5,1
  2024f0:	ff4a92e3          	bne	s5,s4,2024d4 <s_call_sa_api+0x1ac>
        }
        putchar('\n');
  2024f4:	00a00513          	li	a0,10
  2024f8:	ffffe097          	auipc	ra,0xffffe
  2024fc:	b18080e7          	jalr	-1256(ra) # 200010 <putchar>
    for (int i = 0; i < matrix_N; i++) {
  202500:	00148493          	addi	s1,s1,1
  202504:	00c98993          	addi	s3,s3,12
  202508:	fa8498e3          	bne	s1,s0,2024b8 <s_call_sa_api+0x190>
  20250c:	0100006f          	j	20251c <s_call_sa_api+0x1f4>
    putchar('\n');
  202510:	00a00513          	li	a0,10
  202514:	ffffe097          	auipc	ra,0xffffe
  202518:	afc080e7          	jalr	-1284(ra) # 200010 <putchar>
    }
    putchar('\n');
  20251c:	00a00513          	li	a0,10
  202520:	ffffe097          	auipc	ra,0xffffe
  202524:	af0080e7          	jalr	-1296(ra) # 200010 <putchar>
#endif

    //static uint32_t mat_C[(SA_MAT_MAX * SA_MAT_MAX)];

#if 1
    s_printf("sa_run start.\n");
  202528:	00203537          	lui	a0,0x203
  20252c:	db550513          	addi	a0,a0,-587 # 202db5 <$d.3>
  202530:	fffff097          	auipc	ra,0xfffff
  202534:	280080e7          	jalr	640(ra) # 2017b0 <s_printf>
    sa_run(
  202538:	00235537          	lui	a0,0x235
  20253c:	7b450513          	addi	a0,a0,1972 # 2357b4 <s_call_sa_api.A_mat>
  202540:	002365b7          	lui	a1,0x236
  202544:	84458593          	addi	a1,a1,-1980 # 235844 <s_call_sa_api.B_mat>
  202548:	00236637          	lui	a2,0x236
  20254c:	8d460493          	addi	s1,a2,-1836 # 2358d4 <s_call_sa_api.C_mat>
  202550:	00040613          	mv	a2,s0
  202554:	00048693          	mv	a3,s1
  202558:	00000097          	auipc	ra,0x0
  20255c:	acc080e7          	jalr	-1332(ra) # 202024 <sa_run>
        &A_mat[0][0],
        &B_mat[0][0],
        matrix_N,
        &C_mat[0][0]
    );
    s_printf("sa_run end.\n\n");
  202560:	00203537          	lui	a0,0x203
  202564:	29e50513          	addi	a0,a0,670 # 20329e <$d.4+0x189>
  202568:	fffff097          	auipc	ra,0xfffff
  20256c:	248080e7          	jalr	584(ra) # 2017b0 <s_printf>
#endif

    // ---- 結果表示 ----
    for (int i = 0; i < matrix_N; i++) {
  202570:	0a040c63          	beqz	s0,202628 <s_call_sa_api+0x300>
  202574:	00000913          	li	s2,0
  202578:	00241993          	slli	s3,s0,0x2
  20257c:	00048a13          	mv	s4,s1
        for (int j = 0; j < matrix_N; j++) {
  202580:	03000593          	li	a1,48
  202584:	00090513          	mv	a0,s2
  202588:	00000097          	auipc	ra,0x0
  20258c:	4d4080e7          	jalr	1236(ra) # 202a5c <__mulsi3>
  202590:	00a98533          	add	a0,s3,a0
  202594:	00a48ab3          	add	s5,s1,a0
  202598:	000a0b13          	mv	s6,s4
            s_print_int((int)C_mat[i][j]);
  20259c:	000b2503          	lw	a0,0(s6)
  2025a0:	fffff097          	auipc	ra,0xfffff
  2025a4:	114080e7          	jalr	276(ra) # 2016b4 <s_print_int>
            putchar(' ');
  2025a8:	02000513          	li	a0,32
  2025ac:	ffffe097          	auipc	ra,0xffffe
  2025b0:	a64080e7          	jalr	-1436(ra) # 200010 <putchar>
        for (int j = 0; j < matrix_N; j++) {
  2025b4:	004b0b13          	addi	s6,s6,4
  2025b8:	ff5b12e3          	bne	s6,s5,20259c <s_call_sa_api+0x274>
        }
        putchar('\n');
  2025bc:	00a00513          	li	a0,10
  2025c0:	ffffe097          	auipc	ra,0xffffe
  2025c4:	a50080e7          	jalr	-1456(ra) # 200010 <putchar>
    for (int i = 0; i < matrix_N; i++) {
  2025c8:	00190913          	addi	s2,s2,1
  2025cc:	030a0a13          	addi	s4,s4,48
  2025d0:	fa8918e3          	bne	s2,s0,202580 <s_call_sa_api+0x258>
  2025d4:	0540006f          	j	202628 <s_call_sa_api+0x300>
    putchar('\n');
  2025d8:	00a00513          	li	a0,10
  2025dc:	ffffe097          	auipc	ra,0xffffe
  2025e0:	a34080e7          	jalr	-1484(ra) # 200010 <putchar>
    s_printf("sa_run start.\n");
  2025e4:	00203537          	lui	a0,0x203
  2025e8:	db550513          	addi	a0,a0,-587 # 202db5 <$d.3>
  2025ec:	fffff097          	auipc	ra,0xfffff
  2025f0:	1c4080e7          	jalr	452(ra) # 2017b0 <s_printf>
    sa_run(
  2025f4:	00235537          	lui	a0,0x235
  2025f8:	7b450513          	addi	a0,a0,1972 # 2357b4 <s_call_sa_api.A_mat>
  2025fc:	002365b7          	lui	a1,0x236
  202600:	84458593          	addi	a1,a1,-1980 # 235844 <s_call_sa_api.B_mat>
  202604:	00236637          	lui	a2,0x236
  202608:	8d460693          	addi	a3,a2,-1836 # 2358d4 <s_call_sa_api.C_mat>
  20260c:	00040613          	mv	a2,s0
  202610:	00000097          	auipc	ra,0x0
  202614:	a14080e7          	jalr	-1516(ra) # 202024 <sa_run>
    s_printf("sa_run end.\n\n");
  202618:	00203537          	lui	a0,0x203
  20261c:	29e50513          	addi	a0,a0,670 # 20329e <$d.4+0x189>
  202620:	fffff097          	auipc	ra,0xfffff
  202624:	190080e7          	jalr	400(ra) # 2017b0 <s_printf>
    }
    putchar('\n');
  202628:	00a00513          	li	a0,10
  20262c:	01c12083          	lw	ra,28(sp)
  202630:	01812403          	lw	s0,24(sp)
  202634:	01412483          	lw	s1,20(sp)
  202638:	01012903          	lw	s2,16(sp)
  20263c:	00c12983          	lw	s3,12(sp)
  202640:	00812a03          	lw	s4,8(sp)
  202644:	00412a83          	lw	s5,4(sp)
  202648:	00012b03          	lw	s6,0(sp)
  20264c:	02010113          	addi	sp,sp,32
  202650:	ffffe317          	auipc	t1,0xffffe
  202654:	9c030067          	jr	-1600(t1) # 200010 <putchar>

00202658 <s_call_sdcard_read_api>:
}

// -------------------------------------------------------
// SDカードREAD実行関数
void s_call_sdcard_read_api(uint32_t sd_sector_address)
{
  202658:	dc010113          	addi	sp,sp,-576
  20265c:	22112e23          	sw	ra,572(sp)
  202660:	22812c23          	sw	s0,568(sp)
  202664:	22912a23          	sw	s1,564(sp)
  202668:	23212823          	sw	s2,560(sp)
  20266c:	23312623          	sw	s3,556(sp)
  202670:	23412423          	sw	s4,552(sp)
  202674:	23512223          	sw	s5,548(sp)
  202678:	23612023          	sw	s6,544(sp)
  20267c:	21712e23          	sw	s7,540(sp)
  202680:	21812c23          	sw	s8,536(sp)
  202684:	21912a23          	sw	s9,532(sp)
  202688:	21a12823          	sw	s10,528(sp)
  20268c:	21b12623          	sw	s11,524(sp)
  202690:	00050413          	mv	s0,a0
  202694:	00000493          	li	s1,0
    unsigned char buf[512];

    int retry_max = 3;
    int success = 0;

    for (int retry = 0; retry < retry_max; retry++) {
  202698:	20c10d13          	addi	s10,sp,524
  20269c:	10006ab7          	lui	s5,0x10006
  2026a0:	00400b13          	li	s6,4
  2026a4:	00100b93          	li	s7,1
  2026a8:	ffff4537          	lui	a0,0xffff4
  2026ac:	cb050c13          	addi	s8,a0,-848 # ffff3cb0 <__free_ram_end+0xffc9dcb0>
  2026b0:	00200c93          	li	s9,2
  2026b4:	20000d93          	li	s11,512
  2026b8:	00001537          	lui	a0,0x1
  2026bc:	02150913          	addi	s2,a0,33 # 1021 <$d.3+0x89b>
  2026c0:	00203537          	lui	a0,0x203
  2026c4:	e8050513          	addi	a0,a0,-384 # 202e80 <$d.3+0xcb>
  2026c8:	00a12423          	sw	a0,8(sp)
  2026cc:	00203537          	lui	a0,0x203
  2026d0:	d1250993          	addi	s3,a0,-750 # 202d12 <$d.1>
  2026d4:	00300a13          	li	s4,3
    PSC_SD_IF_CTRL = 0x04;
  2026d8:	016aa423          	sw	s6,8(s5) # 10006008 <__free_ram_end+0xfcb0008>
  2026dc:	f9c00513          	li	a0,-100
    while (n--) {
  2026e0:	00150513          	addi	a0,a0,1
        __asm__ __volatile__("nop");
  2026e4:	00000013          	nop
    while (n--) {
  2026e8:	fe051ce3          	bnez	a0,2026e0 <s_call_sdcard_read_api+0x88>
    if ((PSC_SD_IF_CTRL & 0x04) == 0x00) {
  2026ec:	008aa503          	lw	a0,8(s5)
  2026f0:	00457513          	andi	a0,a0,4
  2026f4:	00051463          	bnez	a0,2026fc <s_call_sdcard_read_api+0xa4>
        PSC_SD_IF_CTRL = 0x01;
  2026f8:	017aa423          	sw	s7,8(s5)
  2026fc:	000c0513          	mv	a0,s8
    while (PSC_SD_IF_CTRL & 0x02) {
  202700:	008aa583          	lw	a1,8(s5)
  202704:	0025f593          	andi	a1,a1,2
  202708:	00058863          	beqz	a1,202718 <s_call_sdcard_read_api+0xc0>
        if (--timeout == 0) return -1;
  20270c:	00150513          	addi	a0,a0,1
  202710:	fe0518e3          	bnez	a0,202700 <s_call_sdcard_read_api+0xa8>
  202714:	0440006f          	j	202758 <s_call_sdcard_read_api+0x100>
  202718:	f9c00513          	li	a0,-100
    while (n--) {
  20271c:	00150513          	addi	a0,a0,1
        __asm__ __volatile__("nop");
  202720:	00000013          	nop
    while (n--) {
  202724:	fe051ce3          	bnez	a0,20271c <s_call_sdcard_read_api+0xc4>
    PSC_SD_SECTOR = sd_sector_address;
  202728:	008aa223          	sw	s0,4(s5)
    PSC_SD_IF_CTRL = 0x02;
  20272c:	019aa423          	sw	s9,8(s5)
  202730:	f9c00513          	li	a0,-100
    while (n--) {
  202734:	00150513          	addi	a0,a0,1
        __asm__ __volatile__("nop");
  202738:	00000013          	nop
    while (n--) {
  20273c:	fe051ce3          	bnez	a0,202734 <s_call_sdcard_read_api+0xdc>
  202740:	000c0513          	mv	a0,s8
    while ((PSC_SD_IF_CTRL & 0x04) == 0) {
  202744:	008aa583          	lw	a1,8(s5)
  202748:	0045f593          	andi	a1,a1,4
  20274c:	02059463          	bnez	a1,202774 <s_call_sdcard_read_api+0x11c>
        if (--timeout == 0) return -2;
  202750:	00150513          	addi	a0,a0,1
  202754:	fe0518e3          	bnez	a0,202744 <s_call_sdcard_read_api+0xec>

        if (sd_read_once(sd_sector_address, buf) != 0) {
            s_printf("READ FAIL retry=%d\n", retry);
  202758:	00098513          	mv	a0,s3
  20275c:	00048593          	mv	a1,s1
  202760:	fffff097          	auipc	ra,0xfffff
  202764:	050080e7          	jalr	80(ra) # 2017b0 <s_printf>
    for (int retry = 0; retry < retry_max; retry++) {
  202768:	00148493          	addi	s1,s1,1
  20276c:	f74496e3          	bne	s1,s4,2026d8 <s_call_sdcard_read_api+0x80>
  202770:	2100006f          	j	202980 <s_call_sdcard_read_api+0x328>
  202774:	00000513          	li	a0,0
        __asm__ __volatile__("nop");
  202778:	00000013          	nop
  20277c:	00000013          	nop
  202780:	00000013          	nop
  202784:	00000013          	nop
  202788:	00000013          	nop
  20278c:	00000013          	nop
  202790:	00000013          	nop
  202794:	00000013          	nop
  202798:	00000013          	nop
  20279c:	00000013          	nop
  2027a0:	00000013          	nop
  2027a4:	00000013          	nop
  2027a8:	00000013          	nop
  2027ac:	00000013          	nop
  2027b0:	00000013          	nop
  2027b4:	00000013          	nop
  2027b8:	00000013          	nop
  2027bc:	00000013          	nop
  2027c0:	00000013          	nop
  2027c4:	00000013          	nop
  2027c8:	00000013          	nop
  2027cc:	00000013          	nop
  2027d0:	00000013          	nop
  2027d4:	00000013          	nop
  2027d8:	00000013          	nop
  2027dc:	00000013          	nop
  2027e0:	00000013          	nop
  2027e4:	00000013          	nop
  2027e8:	00000013          	nop
  2027ec:	00000013          	nop
  2027f0:	00000013          	nop
  2027f4:	00000013          	nop
  2027f8:	00000013          	nop
  2027fc:	00000013          	nop
  202800:	00000013          	nop
  202804:	00000013          	nop
  202808:	00000013          	nop
  20280c:	00000013          	nop
  202810:	00000013          	nop
  202814:	00000013          	nop
  202818:	00000013          	nop
  20281c:	00000013          	nop
  202820:	00000013          	nop
  202824:	00000013          	nop
  202828:	00000013          	nop
  20282c:	00000013          	nop
  202830:	00000013          	nop
  202834:	00000013          	nop
  202838:	00000013          	nop
  20283c:	00000013          	nop
  202840:	000c0593          	mv	a1,s8
        while (PSC_SD_IF_CTRL & (1 << 3)) {
  202844:	008aa603          	lw	a2,8(s5)
  202848:	00867613          	andi	a2,a2,8
  20284c:	00060863          	beqz	a2,20285c <s_call_sdcard_read_api+0x204>
            if (--timeout == 0) return -3;
  202850:	00158593          	addi	a1,a1,1
  202854:	fe0598e3          	bnez	a1,202844 <s_call_sdcard_read_api+0x1ec>
  202858:	f01ff06f          	j	202758 <s_call_sdcard_read_api+0x100>
        buf[i] = (unsigned char)(PSC_SD_ADDR & 0xFF);
  20285c:	000aa583          	lw	a1,0(s5)
  202860:	00c10613          	addi	a2,sp,12
  202864:	00a60633          	add	a2,a2,a0
    for (int i = 0; i < 512; i++) {
  202868:	00150513          	addi	a0,a0,1
        buf[i] = (unsigned char)(PSC_SD_ADDR & 0xFF);
  20286c:	00b60023          	sb	a1,0(a2)
    for (int i = 0; i < 512; i++) {
  202870:	fdb518e3          	bne	a0,s11,202840 <s_call_sdcard_read_api+0x1e8>
            continue;
        }

        // CRC HW
        uint32_t ctrl = PSC_SD_IF_CTRL;
  202874:	008aa683          	lw	a3,8(s5)
  202878:	00000593          	li	a1,0
  20287c:	00c10513          	addi	a0,sp,12
  202880:	000d0893          	mv	a7,s10
        crc ^= (uint16_t)buf[i] << 8;
  202884:	00054603          	lbu	a2,0(a0)
  202888:	00861613          	slli	a2,a2,0x8
  20288c:	00b645b3          	xor	a1,a2,a1
  202890:	01059613          	slli	a2,a1,0x10
  202894:	41065613          	srai	a2,a2,0x10
            crc = (crc & 0x8000) ? (crc << 1) ^ 0x1021 : (crc << 1);
  202898:	01159713          	slli	a4,a1,0x11
  20289c:	41075713          	srai	a4,a4,0x10
  2028a0:	00159793          	slli	a5,a1,0x1
  2028a4:	00f65613          	srli	a2,a2,0xf
  2028a8:	01267633          	and	a2,a2,s2
  2028ac:	00c7c633          	xor	a2,a5,a2
  2028b0:	00161793          	slli	a5,a2,0x1
  2028b4:	01259813          	slli	a6,a1,0x12
  2028b8:	41085813          	srai	a6,a6,0x10
  2028bc:	00f75713          	srli	a4,a4,0xf
  2028c0:	01277733          	and	a4,a4,s2
  2028c4:	00e7c733          	xor	a4,a5,a4
  2028c8:	00171793          	slli	a5,a4,0x1
  2028cc:	01359593          	slli	a1,a1,0x13
  2028d0:	4105d593          	srai	a1,a1,0x10
  2028d4:	00f85813          	srli	a6,a6,0xf
  2028d8:	01287833          	and	a6,a6,s2
  2028dc:	0107c7b3          	xor	a5,a5,a6
  2028e0:	01361613          	slli	a2,a2,0x13
  2028e4:	41065613          	srai	a2,a2,0x10
  2028e8:	00179813          	slli	a6,a5,0x1
  2028ec:	00f5d593          	srli	a1,a1,0xf
  2028f0:	0125f5b3          	and	a1,a1,s2
  2028f4:	00b845b3          	xor	a1,a6,a1
  2028f8:	01371713          	slli	a4,a4,0x13
  2028fc:	41075713          	srai	a4,a4,0x10
  202900:	00f65613          	srli	a2,a2,0xf
  202904:	01267633          	and	a2,a2,s2
  202908:	00161613          	slli	a2,a2,0x1
  20290c:	00259813          	slli	a6,a1,0x2
  202910:	01379793          	slli	a5,a5,0x13
  202914:	4107d793          	srai	a5,a5,0x10
  202918:	00f75713          	srli	a4,a4,0xf
  20291c:	01277733          	and	a4,a4,s2
  202920:	00e64633          	xor	a2,a2,a4
  202924:	00c84633          	xor	a2,a6,a2
  202928:	01359593          	slli	a1,a1,0x13
  20292c:	4105d593          	srai	a1,a1,0x10
  202930:	00f7d793          	srli	a5,a5,0xf
  202934:	0127f733          	and	a4,a5,s2
  202938:	00261613          	slli	a2,a2,0x2
  20293c:	00171713          	slli	a4,a4,0x1
  202940:	00e64633          	xor	a2,a2,a4
  202944:	00f5d593          	srli	a1,a1,0xf
  202948:	0125f5b3          	and	a1,a1,s2
    for (int i = 0; i < 512; i++) {
  20294c:	00150513          	addi	a0,a0,1
            crc = (crc & 0x8000) ? (crc << 1) ^ 0x1021 : (crc << 1);
  202950:	00b645b3          	xor	a1,a2,a1
    for (int i = 0; i < 512; i++) {
  202954:	f31518e3          	bne	a0,a7,202884 <s_call_sdcard_read_api+0x22c>
        uint16_t crc_hw = ((ctrl >> 24) & 0xFF) << 8 |
  202958:	0106d693          	srli	a3,a3,0x10
                          ((ctrl >> 16) & 0xFF);

        // CRC SW
        uint16_t crc = sd_crc16(buf);

        if (crc == crc_hw) {
  20295c:	01059593          	slli	a1,a1,0x10
  202960:	0105d613          	srli	a2,a1,0x10
  202964:	0ec68063          	beq	a3,a2,202a44 <s_call_sdcard_read_api+0x3ec>
  202968:	00812503          	lw	a0,8(sp)
            s_printf("CRC OK (retry=%d)\n", retry);
            success = 1;
            break;
        } else {
            s_printf("CRC NG retry=%d (calc=%x hw=%x)\n",
  20296c:	00048593          	mv	a1,s1
  202970:	fffff097          	auipc	ra,0xfffff
  202974:	e40080e7          	jalr	-448(ra) # 2017b0 <s_printf>
    for (int retry = 0; retry < retry_max; retry++) {
  202978:	00148493          	addi	s1,s1,1
  20297c:	d5449ee3          	bne	s1,s4,2026d8 <s_call_sdcard_read_api+0x80>
                     retry, crc, crc_hw);
        }
    }

    if (!success) {
        s_printf("CRC FAILED (final)\n");
  202980:	00203537          	lui	a0,0x203
  202984:	c9d50513          	addi	a0,a0,-867 # 202c9d <$d.1+0x95>
  202988:	fffff097          	auipc	ra,0xfffff
  20298c:	e28080e7          	jalr	-472(ra) # 2017b0 <s_printf>
  202990:	00000413          	li	s0,0
  202994:	00c10493          	addi	s1,sp,12
  202998:	00203537          	lui	a0,0x203
  20299c:	d0150913          	addi	s2,a0,-767 # 202d01 <$d.1+0xf9>
  2029a0:	00f00993          	li	s3,15
  2029a4:	20000a13          	li	s4,512
  2029a8:	00c0006f          	j	2029b4 <s_call_sdcard_read_api+0x35c>
    }

    // ---- dump（常に実行）----
    const char hex[] = "0123456789ABCDEF";

    for (int i = 0; i < 512; i++) {
  2029ac:	00140413          	addi	s0,s0,1
  2029b0:	05440c63          	beq	s0,s4,202a08 <s_call_sdcard_read_api+0x3b0>
        unsigned char d = buf[i];
  2029b4:	00848533          	add	a0,s1,s0
  2029b8:	00054a83          	lbu	s5,0(a0)
  2029bc:	004ad513          	srli	a0,s5,0x4
        putchar(hex[(d >> 4) & 0xF]);
  2029c0:	00a90533          	add	a0,s2,a0
  2029c4:	00054503          	lbu	a0,0(a0)
  2029c8:	ffffd097          	auipc	ra,0xffffd
  2029cc:	648080e7          	jalr	1608(ra) # 200010 <putchar>
        putchar(hex[d & 0xF]);
  2029d0:	00faf513          	andi	a0,s5,15
  2029d4:	00a90533          	add	a0,s2,a0
  2029d8:	00054503          	lbu	a0,0(a0)
  2029dc:	ffffd097          	auipc	ra,0xffffd
  2029e0:	634080e7          	jalr	1588(ra) # 200010 <putchar>
        putchar(' ');
  2029e4:	02000513          	li	a0,32
  2029e8:	ffffd097          	auipc	ra,0xffffd
  2029ec:	628080e7          	jalr	1576(ra) # 200010 <putchar>
        if ((i & 15) == 15) putchar('\n');
  2029f0:	00f47513          	andi	a0,s0,15
  2029f4:	fb351ce3          	bne	a0,s3,2029ac <s_call_sdcard_read_api+0x354>
  2029f8:	00a00513          	li	a0,10
  2029fc:	ffffd097          	auipc	ra,0xffffd
  202a00:	614080e7          	jalr	1556(ra) # 200010 <putchar>
  202a04:	fa9ff06f          	j	2029ac <s_call_sdcard_read_api+0x354>
  202a08:	23c12083          	lw	ra,572(sp)
  202a0c:	23812403          	lw	s0,568(sp)
  202a10:	23412483          	lw	s1,564(sp)
  202a14:	23012903          	lw	s2,560(sp)
  202a18:	22c12983          	lw	s3,556(sp)
  202a1c:	22812a03          	lw	s4,552(sp)
  202a20:	22412a83          	lw	s5,548(sp)
  202a24:	22012b03          	lw	s6,544(sp)
  202a28:	21c12b83          	lw	s7,540(sp)
  202a2c:	21812c03          	lw	s8,536(sp)
  202a30:	21412c83          	lw	s9,532(sp)
  202a34:	21012d03          	lw	s10,528(sp)
  202a38:	20c12d83          	lw	s11,524(sp)
    }
  202a3c:	24010113          	addi	sp,sp,576
  202a40:	00008067          	ret
            s_printf("CRC OK (retry=%d)\n", retry);
  202a44:	00203537          	lui	a0,0x203
  202a48:	e1450513          	addi	a0,a0,-492 # 202e14 <$d.3+0x5f>
  202a4c:	00048593          	mv	a1,s1
  202a50:	fffff097          	auipc	ra,0xfffff
  202a54:	d60080e7          	jalr	-672(ra) # 2017b0 <s_printf>
  202a58:	f39ff06f          	j	202990 <s_call_sdcard_read_api+0x338>

00202a5c <__mulsi3>:
  202a5c:	00000613          	li	a2,0
  202a60:	02058063          	beqz	a1,202a80 <__mulsi3+0x24>
  202a64:	01f59693          	slli	a3,a1,0x1f
  202a68:	41f6d693          	srai	a3,a3,0x1f
  202a6c:	00a6f6b3          	and	a3,a3,a0
  202a70:	00c68633          	add	a2,a3,a2
  202a74:	0015d593          	srli	a1,a1,0x1
  202a78:	00151513          	slli	a0,a0,0x1
  202a7c:	fe0594e3          	bnez	a1,202a64 <__mulsi3+0x8>
  202a80:	00060513          	mv	a0,a2
  202a84:	00008067          	ret

00202a88 <__udivsi3>:
  202a88:	04058a63          	beqz	a1,202adc <__udivsi3+0x54>
  202a8c:	00000813          	li	a6,0
  202a90:	00000613          	li	a2,0
  202a94:	01f00693          	li	a3,31
  202a98:	00100713          	li	a4,1
  202a9c:	fff00793          	li	a5,-1
  202aa0:	00181813          	slli	a6,a6,0x1
  202aa4:	00d558b3          	srl	a7,a0,a3
  202aa8:	0018f893          	andi	a7,a7,1
  202aac:	0108e833          	or	a6,a7,a6
  202ab0:	00b838b3          	sltu	a7,a6,a1
  202ab4:	00d712b3          	sll	t0,a4,a3
  202ab8:	fff88893          	addi	a7,a7,-1
  202abc:	0058f2b3          	and	t0,a7,t0
  202ac0:	00c2e633          	or	a2,t0,a2
  202ac4:	00b8f8b3          	and	a7,a7,a1
  202ac8:	fff68693          	addi	a3,a3,-1
  202acc:	41180833          	sub	a6,a6,a7
  202ad0:	fcf698e3          	bne	a3,a5,202aa0 <__udivsi3+0x18>
  202ad4:	00060513          	mv	a0,a2
  202ad8:	00008067          	ret
  202adc:	00000513          	li	a0,0
  202ae0:	00008067          	ret

00202ae4 <__umodsi3>:
  202ae4:	00000613          	li	a2,0
  202ae8:	02058a63          	beqz	a1,202b1c <__umodsi3+0x38>
  202aec:	01f00693          	li	a3,31
  202af0:	fff00713          	li	a4,-1
  202af4:	00161613          	slli	a2,a2,0x1
  202af8:	00d557b3          	srl	a5,a0,a3
  202afc:	0017f793          	andi	a5,a5,1
  202b00:	00c7e633          	or	a2,a5,a2
  202b04:	00b637b3          	sltu	a5,a2,a1
  202b08:	fff78793          	addi	a5,a5,-1
  202b0c:	00b7f7b3          	and	a5,a5,a1
  202b10:	fff68693          	addi	a3,a3,-1
  202b14:	40f60633          	sub	a2,a2,a5
  202b18:	fce69ee3          	bne	a3,a4,202af4 <__umodsi3+0x10>
  202b1c:	00060513          	mv	a0,a2
  202b20:	00008067          	ret

00202b24 <__divsi3>:
  202b24:	06058c63          	beqz	a1,202b9c <__divsi3+0x78>
  202b28:	00000293          	li	t0,0
  202b2c:	00000613          	li	a2,0
  202b30:	41f55693          	srai	a3,a0,0x1f
  202b34:	00d54733          	xor	a4,a0,a3
  202b38:	40d706b3          	sub	a3,a4,a3
  202b3c:	41f5d713          	srai	a4,a1,0x1f
  202b40:	00e5c7b3          	xor	a5,a1,a4
  202b44:	40e78733          	sub	a4,a5,a4
  202b48:	01f00793          	li	a5,31
  202b4c:	00100813          	li	a6,1
  202b50:	fff00893          	li	a7,-1
  202b54:	00129293          	slli	t0,t0,0x1
  202b58:	00f6d333          	srl	t1,a3,a5
  202b5c:	00137313          	andi	t1,t1,1
  202b60:	005362b3          	or	t0,t1,t0
  202b64:	00e2b333          	sltu	t1,t0,a4
  202b68:	00f813b3          	sll	t2,a6,a5
  202b6c:	fff30313          	addi	t1,t1,-1
  202b70:	007373b3          	and	t2,t1,t2
  202b74:	00c3e633          	or	a2,t2,a2
  202b78:	00e37333          	and	t1,t1,a4
  202b7c:	fff78793          	addi	a5,a5,-1
  202b80:	406282b3          	sub	t0,t0,t1
  202b84:	fd1798e3          	bne	a5,a7,202b54 <__divsi3+0x30>
  202b88:	00a5c533          	xor	a0,a1,a0
  202b8c:	00055463          	bgez	a0,202b94 <__divsi3+0x70>
  202b90:	40c00633          	neg	a2,a2
  202b94:	00060513          	mv	a0,a2
  202b98:	00008067          	ret
  202b9c:	00000513          	li	a0,0
  202ba0:	00008067          	ret

00202ba4 <__modsi3>:
  202ba4:	00000613          	li	a2,0
  202ba8:	04058a63          	beqz	a1,202bfc <__modsi3+0x58>
  202bac:	41f55693          	srai	a3,a0,0x1f
  202bb0:	00d54733          	xor	a4,a0,a3
  202bb4:	40d706b3          	sub	a3,a4,a3
  202bb8:	41f5d713          	srai	a4,a1,0x1f
  202bbc:	00e5c5b3          	xor	a1,a1,a4
  202bc0:	40e585b3          	sub	a1,a1,a4
  202bc4:	01f00713          	li	a4,31
  202bc8:	fff00793          	li	a5,-1
  202bcc:	00161613          	slli	a2,a2,0x1
  202bd0:	00e6d833          	srl	a6,a3,a4
  202bd4:	00187813          	andi	a6,a6,1
  202bd8:	00c86633          	or	a2,a6,a2
  202bdc:	00b63833          	sltu	a6,a2,a1
  202be0:	fff80813          	addi	a6,a6,-1
  202be4:	00b87833          	and	a6,a6,a1
  202be8:	fff70713          	addi	a4,a4,-1
  202bec:	41060633          	sub	a2,a2,a6
  202bf0:	fcf71ee3          	bne	a4,a5,202bcc <__modsi3+0x28>
  202bf4:	00055463          	bgez	a0,202bfc <__modsi3+0x58>
  202bf8:	40c00633          	neg	a2,a2
  202bfc:	00060513          	mv	a0,a2
  202c00:	00008067          	ret

セクション .rodata の逆アセンブル:

00202c08 <$d.1>:
  202c08:	0f40                	.insn	2, 0x0f40
  202c0a:	0020                	.insn	2, 0x0020
  202c0c:	104c                	.insn	2, 0x104c
  202c0e:	0020                	.insn	2, 0x0020
  202c10:	0f94                	.insn	2, 0x0f94
  202c12:	0020                	.insn	2, 0x0020
  202c14:	1084                	.insn	2, 0x1084
  202c16:	0020                	.insn	2, 0x0020
  202c18:	10bc                	.insn	2, 0x10bc
  202c1a:	0020                	.insn	2, 0x0020
  202c1c:	1024                	.insn	2, 0x1024
  202c1e:	0020                	.insn	2, 0x0020
  202c20:	1024                	.insn	2, 0x1024
  202c22:	0020                	.insn	2, 0x0020
  202c24:	1138                	.insn	2, 0x1138
  202c26:	0020                	.insn	2, 0x0020
  202c28:	1024                	.insn	2, 0x1024
  202c2a:	0020                	.insn	2, 0x0020
  202c2c:	0f5c                	.insn	2, 0x0f5c
  202c2e:	0020                	.insn	2, 0x0020
  202c30:	30f1                	.insn	2, 0x30f1
  202c32:	0020                	.insn	2, 0x0020
  202c34:	2cd9                	.insn	2, 0x2cd9
  202c36:	0020                	.insn	2, 0x0020
  202c38:	2d2d                	.insn	2, 0x2d2d
  202c3a:	202d                	.insn	2, 0x202d
  202c3c:	61657263          	bgeu	a0,s6,203240 <$d.4+0x12b>
  202c40:	6574                	.insn	2, 0x6574
  202c42:	705f 6f72 6563      	.insn	6, 0x65636f72705f
  202c48:	315f7373          	csrrci	t1,0x315,30
  202c4c:	2d20                	.insn	2, 0x2d20
  202c4e:	2d2d                	.insn	2, 0x2d2d
  202c50:	000a                	.insn	2, 0x000a
  202c52:	6d656d5b          	.insn	4, 0x6d656d5b
  202c56:	635f 6568 6b63      	.insn	6, 0x6b636568635f
  202c5c:	205d                	.insn	2, 0x205d
  202c5e:	75716573          	csrrsi	a0,mseccfgh,2
  202c62:	6e65                	.insn	2, 0x6e65
  202c64:	6974                	.insn	2, 0x6974
  202c66:	6c61                	.insn	2, 0x6c61
  202c68:	7220                	.insn	2, 0x7220
  202c6a:	6165                	.insn	2, 0x6165
  202c6c:	2064                	.insn	2, 0x2064
  202c6e:	2026                	.insn	2, 0x2026
  202c70:	6576                	.insn	2, 0x6576
  202c72:	6972                	.insn	2, 0x6972
  202c74:	7966                	.insn	2, 0x7966
  202c76:	7020                	.insn	2, 0x7020
  202c78:	6168                	.insn	2, 0x6168
  202c7a:	000a6573          	csrrsi	a0,0x0,20
  202c7e:	2d2d                	.insn	2, 0x2d2d
  202c80:	202d                	.insn	2, 0x202d
  202c82:	656d                	.insn	2, 0x656d
  202c84:	736d                	.insn	2, 0x736d
  202c86:	7465                	.insn	2, 0x7465
  202c88:	2d20                	.insn	2, 0x2d20
  202c8a:	2d2d                	.insn	2, 0x2d2d
  202c8c:	000a                	.insn	2, 0x000a
  202c8e:	2d2d                	.insn	2, 0x2d2d
  202c90:	202d                	.insn	2, 0x202d
  202c92:	6979                	.insn	2, 0x6979
  202c94:	6c65                	.insn	2, 0x6c65
  202c96:	2064                	.insn	2, 0x2064
  202c98:	2d2d                	.insn	2, 0x2d2d
  202c9a:	0a2d                	.insn	2, 0x0a2d
  202c9c:	4300                	.insn	2, 0x4300
  202c9e:	4352                	.insn	2, 0x4352
  202ca0:	4620                	.insn	2, 0x4620
  202ca2:	4941                	.insn	2, 0x4941
  202ca4:	454c                	.insn	2, 0x454c
  202ca6:	2044                	.insn	2, 0x2044
  202ca8:	6628                	.insn	2, 0x6628
  202caa:	6e69                	.insn	2, 0x6e69
  202cac:	6c61                	.insn	2, 0x6c61
  202cae:	0a29                	.insn	2, 0x0a29
  202cb0:	5b00                	.insn	2, 0x5b00
  202cb2:	656d                	.insn	2, 0x656d
  202cb4:	5f6d                	.insn	2, 0x5f6d
  202cb6:	63656863          	bltu	a0,s6,2032e6 <$d.4+0x1d1>
  202cba:	72205d6b          	.insn	4, 0x72205d6b
  202cbe:	6e61                	.insn	2, 0x6e61
  202cc0:	6f64                	.insn	2, 0x6f64
  202cc2:	206d                	.insn	2, 0x206d
  202cc4:	6572                	.insn	2, 0x6572
  202cc6:	6461                	.insn	2, 0x6461
  202cc8:	2620                	.insn	2, 0x2620
  202cca:	7620                	.insn	2, 0x7620
  202ccc:	7265                	.insn	2, 0x7265
  202cce:	6669                	.insn	2, 0x6669
  202cd0:	2079                	.insn	2, 0x2079
  202cd2:	6870                	.insn	2, 0x6870
  202cd4:	7361                	.insn	2, 0x7361
  202cd6:	0a65                	.insn	2, 0x0a65
  202cd8:	3100                	.insn	2, 0x3100
  202cda:	3030                	.insn	2, 0x3030
  202cdc:	7500                	.insn	2, 0x7500
  202cde:	65676173          	csrrsi	sp,hviprio1h,14
  202ce2:	203a                	.insn	2, 0x203a
  202ce4:	7564                	.insn	2, 0x7564
  202ce6:	706d                	.insn	2, 0x706d
  202ce8:	5b20                	.insn	2, 0x5b20
  202cea:	7366666f          	jal	a2,269420 <__free_ram+0x13420>
  202cee:	7465                	.insn	2, 0x7465
  202cf0:	685f 7865 205d      	.insn	6, 0x205d7865685f
  202cf6:	6e656c5b          	.insn	4, 0x6e656c5b
  202cfa:	685f 7865 0a5d      	.insn	6, 0x0a5d7865685f
  202d00:	3000                	.insn	2, 0x3000
  202d02:	3231                	.insn	2, 0x3231
  202d04:	36353433          	.insn	4, 0x36353433
  202d08:	41393837          	lui	a6,0x41393
  202d0c:	4342                	.insn	2, 0x4342
  202d0e:	4544                	.insn	2, 0x4544
  202d10:	0046                	.insn	2, 0x0046

00202d12 <$d.1>:
  202d12:	4552                	.insn	2, 0x4552
  202d14:	4441                	.insn	2, 0x4441
  202d16:	4620                	.insn	2, 0x4620
  202d18:	4941                	.insn	2, 0x4941
  202d1a:	204c                	.insn	2, 0x204c
  202d1c:	6572                	.insn	2, 0x6572
  202d1e:	7274                	.insn	2, 0x7274
  202d20:	3d79                	.insn	2, 0x3d79
  202d22:	6425                	.insn	2, 0x6425
  202d24:	000a                	.insn	2, 0x000a
  202d26:	2f2e                	.insn	2, 0x2f2e
  202d28:	2f637273          	csrrci	tp,0x2f6,6
  202d2c:	6e72656b          	.insn	4, 0x6e72656b
  202d30:	6c65                	.insn	2, 0x6c65
  202d32:	632e                	.insn	2, 0x632e
  202d34:	2d00                	.insn	2, 0x2d00
  202d36:	2d2d                	.insn	2, 0x2d2d
  202d38:	202d                	.insn	2, 0x202d
  202d3a:	432d4453          	.insn	4, 0x432d4453
  202d3e:	7261                	.insn	2, 0x7261
  202d40:	2064                	.insn	2, 0x2064
  202d42:	4649                	.insn	2, 0x4649
  202d44:	6120                	.insn	2, 0x6120
  202d46:	6464                	.insn	2, 0x6464
  202d48:	6572                	.insn	2, 0x6572
  202d4a:	6d207373          	csrrci	t1,0x6d2,0
  202d4e:	7061                	.insn	2, 0x7061
  202d50:	7320                	.insn	2, 0x7320
  202d52:	6174                	.insn	2, 0x6174
  202d54:	7472                	.insn	2, 0x7472
  202d56:	202e                	.insn	2, 0x202e
  202d58:	2d2d                	.insn	2, 0x2d2d
  202d5a:	2d2d                	.insn	2, 0x2d2d
  202d5c:	000a                	.insn	2, 0x000a
  202d5e:	4150                	.insn	2, 0x4150
  202d60:	494e                	.insn	2, 0x494e
  202d62:	25203a43          	.insn	4, 0x25203a43
  202d66:	64253a73          	csrrc	s4,0x642,a0
  202d6a:	203a                	.insn	2, 0x203a
  202d6c:	6e75                	.insn	2, 0x6e75
  202d6e:	7865                	.insn	2, 0x7865
  202d70:	6570                	.insn	2, 0x6570
  202d72:	64657463          	bgeu	a0,t1,2033ba <_binary_shell_bin_start+0x47>
  202d76:	7420                	.insn	2, 0x7420
  202d78:	6172                	.insn	2, 0x6172
  202d7a:	2070                	.insn	2, 0x2070
  202d7c:	75616373          	csrrsi	t1,0x756,2
  202d80:	253d6573          	csrrsi	a0,vsireg3,26
  202d84:	2078                	.insn	2, 0x2078
  202d86:	61767473          	csrrci	s0,0x617,12
  202d8a:	3d6c                	.insn	2, 0x3d6c
  202d8c:	7825                	.insn	2, 0x7825
  202d8e:	7320                	.insn	2, 0x7320
  202d90:	7065                	.insn	2, 0x7065
  202d92:	78253d63          	.insn	4, 0x78253d63
  202d96:	0a0a                	.insn	2, 0x0a0a
  202d98:	5000                	.insn	2, 0x5000
  202d9a:	4f5f4353          	.insn	4, 0x4f5f4353
  202d9e:	6f422053          	.insn	4, 0x6f422053
  202da2:	5320746f          	jal	s0,20a2d4 <_binary_shell_bin_start+0x6f61>
  202da6:	6174                	.insn	2, 0x6174
  202da8:	7472                	.insn	2, 0x7472
  202daa:	2e2e                	.insn	2, 0x2e2e
  202dac:	2e2e                	.insn	2, 0x2e2e
  202dae:	2e2e                	.insn	2, 0x2e2e
  202db0:	2e2e                	.insn	2, 0x2e2e
  202db2:	0a2e                	.insn	2, 0x0a2e
	...

00202db5 <$d.3>:
  202db5:	725f6173          	csrrsi	sp,mhpmevent5h,30
  202db9:	6e75                	.insn	2, 0x6e75
  202dbb:	7320                	.insn	2, 0x7320
  202dbd:	6174                	.insn	2, 0x6174
  202dbf:	7472                	.insn	2, 0x7472
  202dc1:	0a2e                	.insn	2, 0x0a2e
  202dc3:	2d00                	.insn	2, 0x2d00
  202dc5:	2d2d                	.insn	2, 0x2d2d
  202dc7:	202d                	.insn	2, 0x202d
  202dc9:	63204153          	.insn	4, 0x63204153
  202dcd:	2065726f          	jal	tp,259fd3 <__free_ram+0x3fd3>
  202dd1:	6461                	.insn	2, 0x6461
  202dd3:	7264                	.insn	2, 0x7264
  202dd5:	7365                	.insn	2, 0x7365
  202dd7:	616d2073          	csrs	0x616,s10
  202ddb:	2070                	.insn	2, 0x2070
  202ddd:	72617473          	csrrci	s0,mhpmevent6h,2
  202de1:	2e74                	.insn	2, 0x2e74
  202de3:	2d20                	.insn	2, 0x2d20
  202de5:	2d2d                	.insn	2, 0x2d2d
  202de7:	0a2d                	.insn	2, 0x0a2d
  202de9:	3000                	.insn	2, 0x3000
  202deb:	3a38                	.insn	2, 0x3a38
  202ded:	3734                	.insn	2, 0x3734
  202def:	343a                	.insn	2, 0x343a
  202df1:	0038                	.insn	2, 0x0038
  202df3:	2d2d                	.insn	2, 0x2d2d
  202df5:	2d2d                	.insn	2, 0x2d2d
  202df7:	7520                	.insn	2, 0x7520
  202df9:	20726573          	csrrsi	a0,0x207,4
  202dfd:	6d69                	.insn	2, 0x6d69
  202dff:	6761                	.insn	2, 0x6761
  202e01:	2065                	.insn	2, 0x2065
  202e03:	616d                	.insn	2, 0x616d
  202e05:	2070                	.insn	2, 0x2070
  202e07:	72617473          	csrrci	s0,mhpmevent6h,2
  202e0b:	2e74                	.insn	2, 0x2e74
  202e0d:	2d20                	.insn	2, 0x2d20
  202e0f:	2d2d                	.insn	2, 0x2d2d
  202e11:	0a2d                	.insn	2, 0x0a2d
  202e13:	4300                	.insn	2, 0x4300
  202e15:	4352                	.insn	2, 0x4352
  202e17:	4f20                	.insn	2, 0x4f20
  202e19:	7228204b          	.insn	4, 0x7228204b
  202e1d:	7465                	.insn	2, 0x7465
  202e1f:	7972                	.insn	2, 0x7972
  202e21:	253d                	.insn	2, 0x253d
  202e23:	2964                	.insn	2, 0x2964
  202e25:	000a                	.insn	2, 0x000a
  202e27:	2d2d                	.insn	2, 0x2d2d
  202e29:	2d2d                	.insn	2, 0x2d2d
  202e2b:	5320                	.insn	2, 0x5320
  202e2d:	2041                	.insn	2, 0x2041
  202e2f:	65726f63          	bltu	tp,s7,20348d <_binary_shell_bin_start+0x11a>
  202e33:	6420                	.insn	2, 0x6420
  202e35:	7461                	.insn	2, 0x7461
  202e37:	2061                	.insn	2, 0x2061
  202e39:	61206277          	.insn	4, 0x61206277
  202e3d:	6464                	.insn	2, 0x6464
  202e3f:	6572                	.insn	2, 0x6572
  202e41:	6d207373          	csrrci	t1,0x6d2,0
  202e45:	7061                	.insn	2, 0x7061
  202e47:	7320                	.insn	2, 0x7320
  202e49:	6174                	.insn	2, 0x6174
  202e4b:	7472                	.insn	2, 0x7472
  202e4d:	202e                	.insn	2, 0x202e
  202e4f:	2d2d                	.insn	2, 0x2d2d
  202e51:	2d2d                	.insn	2, 0x2d2d
  202e53:	000a                	.insn	2, 0x000a
  202e55:	2d2d                	.insn	2, 0x2d2d
  202e57:	2d2d                	.insn	2, 0x2d2d
  202e59:	5320                	.insn	2, 0x5320
  202e5b:	2041                	.insn	2, 0x2041
  202e5d:	65726f63          	bltu	tp,s7,2034bb <_binary_shell_bin_start+0x148>
  202e61:	6420                	.insn	2, 0x6420
  202e63:	7461                	.insn	2, 0x7461
  202e65:	2061                	.insn	2, 0x2061
  202e67:	6461                	.insn	2, 0x6461
  202e69:	7264                	.insn	2, 0x7264
  202e6b:	7365                	.insn	2, 0x7365
  202e6d:	616d2073          	csrs	0x616,s10
  202e71:	2070                	.insn	2, 0x2070
  202e73:	72617473          	csrrci	s0,mhpmevent6h,2
  202e77:	2e74                	.insn	2, 0x2e74
  202e79:	2d20                	.insn	2, 0x2d20
  202e7b:	2d2d                	.insn	2, 0x2d2d
  202e7d:	0a2d                	.insn	2, 0x0a2d
  202e7f:	4300                	.insn	2, 0x4300
  202e81:	4352                	.insn	2, 0x4352
  202e83:	4e20                	.insn	2, 0x4e20
  202e85:	65722047          	.insn	4, 0x65722047
  202e89:	7274                	.insn	2, 0x7274
  202e8b:	3d79                	.insn	2, 0x3d79
  202e8d:	6425                	.insn	2, 0x6425
  202e8f:	2820                	.insn	2, 0x2820
  202e91:	636c6163          	bltu	s8,s6,2034b3 <_binary_shell_bin_start+0x140>
  202e95:	253d                	.insn	2, 0x253d
  202e97:	2078                	.insn	2, 0x2078
  202e99:	7768                	.insn	2, 0x7768
  202e9b:	253d                	.insn	2, 0x253d
  202e9d:	2978                	.insn	2, 0x2978
  202e9f:	000a                	.insn	2, 0x000a
  202ea1:	6d656d5b          	.insn	4, 0x6d656d5b
  202ea5:	635f 6568 6b63      	.insn	6, 0x6b636568635f
  202eab:	205d                	.insn	2, 0x205d
  202ead:	28204b4f          	.insn	4, 0x28204b4f
  202eb1:	5652                	.insn	2, 0x5652
  202eb3:	20493233          	.insn	4, 0x20493233
  202eb7:	65666173          	csrrsi	sp,hviprio1h,12
  202ebb:	0a29                	.insn	2, 0x0a29
  202ebd:	5b00                	.insn	2, 0x5b00
  202ebf:	656d                	.insn	2, 0x656d
  202ec1:	5f6d                	.insn	2, 0x5f6d
  202ec3:	63656863          	bltu	a0,s6,2034f3 <_binary_shell_bin_start+0x180>
  202ec7:	4e205d6b          	.insn	4, 0x4e205d6b
  202ecb:	21212147          	.insn	4, 0x21212147
  202ecf:	2820                	.insn	2, 0x2820
  202ed1:	5652                	.insn	2, 0x5652
  202ed3:	20493233          	.insn	4, 0x20493233
  202ed7:	6166                	.insn	2, 0x6166
  202ed9:	6c69                	.insn	2, 0x6c69
  202edb:	0a29                	.insn	2, 0x0a29
  202edd:	0a00                	.insn	2, 0x0a00
  202edf:	2d2d2d2b          	.insn	4, 0x2d2d2d2b
  202ee3:	2d2d                	.insn	2, 0x2d2d
  202ee5:	2d2d                	.insn	2, 0x2d2d
  202ee7:	2d2d                	.insn	2, 0x2d2d
  202ee9:	2d2d                	.insn	2, 0x2d2d
  202eeb:	2d2d                	.insn	2, 0x2d2d
  202eed:	2d2d                	.insn	2, 0x2d2d
  202eef:	2d2d                	.insn	2, 0x2d2d
  202ef1:	2d2d                	.insn	2, 0x2d2d
  202ef3:	2d2d                	.insn	2, 0x2d2d
  202ef5:	2d2d                	.insn	2, 0x2d2d
  202ef7:	2d2d                	.insn	2, 0x2d2d
  202ef9:	2d2d                	.insn	2, 0x2d2d
  202efb:	2d2d                	.insn	2, 0x2d2d
  202efd:	2d2d                	.insn	2, 0x2d2d
  202eff:	2d2d                	.insn	2, 0x2d2d
  202f01:	2d2d                	.insn	2, 0x2d2d
  202f03:	2d2d                	.insn	2, 0x2d2d
  202f05:	2d2d                	.insn	2, 0x2d2d
  202f07:	2d2d                	.insn	2, 0x2d2d
  202f09:	2d2d                	.insn	2, 0x2d2d
  202f0b:	2d2d                	.insn	2, 0x2d2d
  202f0d:	2d2d                	.insn	2, 0x2d2d
  202f0f:	2d2d                	.insn	2, 0x2d2d
  202f11:	2b2d                	.insn	2, 0x2b2d
  202f13:	7c0a                	.insn	2, 0x7c0a
  202f15:	2020                	.insn	2, 0x2020
  202f17:	2020                	.insn	2, 0x2020
  202f19:	2020                	.insn	2, 0x2020
  202f1b:	2020                	.insn	2, 0x2020
  202f1d:	2020                	.insn	2, 0x2020
  202f1f:	2020                	.insn	2, 0x2020
  202f21:	2020                	.insn	2, 0x2020
  202f23:	2020                	.insn	2, 0x2020
  202f25:	2020                	.insn	2, 0x2020
  202f27:	2020                	.insn	2, 0x2020
  202f29:	5350                	.insn	2, 0x5350
  202f2b:	534f5f43          	.insn	4, 0x534f5f43
  202f2f:	2020                	.insn	2, 0x2020
  202f31:	2020                	.insn	2, 0x2020
  202f33:	2020                	.insn	2, 0x2020
  202f35:	2020                	.insn	2, 0x2020
  202f37:	2020                	.insn	2, 0x2020
  202f39:	2020                	.insn	2, 0x2020
  202f3b:	2020                	.insn	2, 0x2020
  202f3d:	2020                	.insn	2, 0x2020
  202f3f:	2020                	.insn	2, 0x2020
  202f41:	2020                	.insn	2, 0x2020
  202f43:	2020                	.insn	2, 0x2020
  202f45:	2020                	.insn	2, 0x2020
  202f47:	0a7c                	.insn	2, 0x0a7c
  202f49:	207c                	.insn	2, 0x207c
  202f4b:	2020                	.insn	2, 0x2020
  202f4d:	2020                	.insn	2, 0x2020
  202f4f:	2020                	.insn	2, 0x2020
  202f51:	2020                	.insn	2, 0x2020
  202f53:	2020                	.insn	2, 0x2020
  202f55:	4d20                	.insn	2, 0x4d20
  202f57:	6e69                	.insn	2, 0x6e69
  202f59:	6d69                	.insn	2, 0x6d69
  202f5b:	6c61                	.insn	2, 0x6c61
  202f5d:	5220                	.insn	2, 0x5220
  202f5f:	5349                	.insn	2, 0x5349
  202f61:	20562d43          	.insn	4, 0x20562d43
  202f65:	6e72654b          	.insn	4, 0x6e72654b
  202f69:	6c65                	.insn	2, 0x6c65
  202f6b:	4220                	.insn	2, 0x4220
  202f6d:	20746f6f          	jal	t5,249973 <__bss_end+0x13e5f>
  202f71:	2020                	.insn	2, 0x2020
  202f73:	2020                	.insn	2, 0x2020
  202f75:	2020                	.insn	2, 0x2020
  202f77:	2020                	.insn	2, 0x2020
  202f79:	2020                	.insn	2, 0x2020
  202f7b:	7c20                	.insn	2, 0x7c20
  202f7d:	2b0a                	.insn	2, 0x2b0a
  202f7f:	2d2d                	.insn	2, 0x2d2d
  202f81:	2d2d                	.insn	2, 0x2d2d
  202f83:	2d2d                	.insn	2, 0x2d2d
  202f85:	2d2d                	.insn	2, 0x2d2d
  202f87:	2d2d                	.insn	2, 0x2d2d
  202f89:	2d2d                	.insn	2, 0x2d2d
  202f8b:	2d2d                	.insn	2, 0x2d2d
  202f8d:	2d2d                	.insn	2, 0x2d2d
  202f8f:	2d2d                	.insn	2, 0x2d2d
  202f91:	2d2d                	.insn	2, 0x2d2d
  202f93:	2d2d                	.insn	2, 0x2d2d
  202f95:	2d2d                	.insn	2, 0x2d2d
  202f97:	2d2d                	.insn	2, 0x2d2d
  202f99:	2d2d                	.insn	2, 0x2d2d
  202f9b:	2d2d                	.insn	2, 0x2d2d
  202f9d:	2d2d                	.insn	2, 0x2d2d
  202f9f:	2d2d                	.insn	2, 0x2d2d
  202fa1:	2d2d                	.insn	2, 0x2d2d
  202fa3:	2d2d                	.insn	2, 0x2d2d
  202fa5:	2d2d                	.insn	2, 0x2d2d
  202fa7:	2d2d                	.insn	2, 0x2d2d
  202fa9:	2d2d                	.insn	2, 0x2d2d
  202fab:	2d2d                	.insn	2, 0x2d2d
  202fad:	2d2d                	.insn	2, 0x2d2d
  202faf:	2d2d                	.insn	2, 0x2d2d
  202fb1:	207c0a2b          	.insn	4, 0x207c0a2b
  202fb5:	7542                	.insn	2, 0x7542
  202fb7:	6c69                	.insn	2, 0x6c69
  202fb9:	2064                	.insn	2, 0x2064
  202fbb:	203a                	.insn	2, 0x203a
  202fbd:	7325                	.insn	2, 0x7325
  202fbf:	2520                	.insn	2, 0x2520
  202fc1:	207c0a73          	.insn	4, 0x207c0a73
  202fc5:	20555043          	.insn	4, 0x20555043
  202fc9:	2020                	.insn	2, 0x2020
  202fcb:	203a                	.insn	2, 0x203a
  202fcd:	5652                	.insn	2, 0x5652
  202fcf:	28203233          	.insn	4, 0x28203233
  202fd3:	65707553          	.insn	4, 0x65707553
  202fd7:	7672                	.insn	2, 0x7672
  202fd9:	7369                	.insn	2, 0x7369
  202fdb:	6d20726f          	jal	tp,20a6ad <_binary_shell_bin_start+0x733a>
  202fdf:	2965646f          	jal	s0,259275 <__free_ram+0x3275>
  202fe3:	7c0a                	.insn	2, 0x7c0a
  202fe5:	4d20                	.insn	2, 0x4d20
  202fe7:	554d                	.insn	2, 0x554d
  202fe9:	2020                	.insn	2, 0x2020
  202feb:	3a20                	.insn	2, 0x3a20
  202fed:	5320                	.insn	2, 0x5320
  202fef:	3356                	.insn	2, 0x3356
  202ff1:	0a32                	.insn	2, 0x0a32
  202ff3:	207c                	.insn	2, 0x207c
  202ff5:	4155                	.insn	2, 0x4155
  202ff7:	5452                	.insn	2, 0x5452
  202ff9:	2020                	.insn	2, 0x2020
  202ffb:	203a                	.insn	2, 0x203a
  202ffd:	20494253          	.insn	4, 0x20494253
  203001:	736e6f63          	bltu	t3,s6,20373f <_binary_shell_bin_start+0x3cc>
  203005:	20656c6f          	jal	s8,25920b <__free_ram+0x320b>
  203009:	7c0a726f          	jal	tp,2aa7c9 <__free_ram+0x547c9>
  20300d:	5520                	.insn	2, 0x5520
  20300f:	5241                	.insn	2, 0x5241
  203011:	2054                	.insn	2, 0x2054
  203013:	3a20                	.insn	2, 0x3a20
  203015:	4d20                	.insn	2, 0x4d20
  203017:	494d                	.insn	2, 0x494d
  203019:	6f63204f          	.insn	4, 0x6f63204f
  20301d:	736e                	.insn	2, 0x736e
  20301f:	0a656c6f          	jal	s8,2590c5 <__free_ram+0x30c5>
  203023:	207c                	.insn	2, 0x207c
  203025:	20444d43          	.insn	4, 0x20444d43
  203029:	2020                	.insn	2, 0x2020
  20302b:	203a                	.insn	2, 0x203a
  20302d:	6568                	.insn	2, 0x6568
  20302f:	6c6c                	.insn	2, 0x6c6c
  203031:	70202c6f          	jal	s8,205733 <_binary_shell_bin_start+0x23c0>
  203035:	6972                	.insn	2, 0x6972
  203037:	656d                	.insn	2, 0x656d
  203039:	64202c73          	csrr	s8,0x642
  20303d:	6d75                	.insn	2, 0x6d75
  20303f:	2c70                	.insn	2, 0x2c70
  203041:	7320                	.insn	2, 0x7320
  203043:	5f61                	.insn	2, 0x5f61
  203045:	72617473          	csrrci	s0,mhpmevent6h,2
  203049:	0a74                	.insn	2, 0x0a74
  20304b:	207c                	.insn	2, 0x207c
  20304d:	7571                	.insn	2, 0x7571
  20304f:	7469                	.insn	2, 0x7469
  203051:	2020                	.insn	2, 0x2020
  203053:	203a                	.insn	2, 0x203a
  203055:	2b6c7443          	.insn	4, 0x2b6c7443
  203059:	2041                	.insn	2, 0x2041
  20305b:	71202e43          	.insn	4, 0x71202e43
  20305f:	0a2e                	.insn	2, 0x0a2e
  203061:	2d2d2d2b          	.insn	4, 0x2d2d2d2b
  203065:	2d2d                	.insn	2, 0x2d2d
  203067:	2d2d                	.insn	2, 0x2d2d
  203069:	2d2d                	.insn	2, 0x2d2d
  20306b:	2d2d                	.insn	2, 0x2d2d
  20306d:	2d2d                	.insn	2, 0x2d2d
  20306f:	2d2d                	.insn	2, 0x2d2d
  203071:	2d2d                	.insn	2, 0x2d2d
  203073:	2d2d                	.insn	2, 0x2d2d
  203075:	2d2d                	.insn	2, 0x2d2d
  203077:	2d2d                	.insn	2, 0x2d2d
  203079:	2d2d                	.insn	2, 0x2d2d
  20307b:	2d2d                	.insn	2, 0x2d2d
  20307d:	2d2d                	.insn	2, 0x2d2d
  20307f:	2d2d                	.insn	2, 0x2d2d
  203081:	2d2d                	.insn	2, 0x2d2d
  203083:	2d2d                	.insn	2, 0x2d2d
  203085:	2d2d                	.insn	2, 0x2d2d
  203087:	2d2d                	.insn	2, 0x2d2d
  203089:	2d2d                	.insn	2, 0x2d2d
  20308b:	2d2d                	.insn	2, 0x2d2d
  20308d:	2d2d                	.insn	2, 0x2d2d
  20308f:	2d2d                	.insn	2, 0x2d2d
  203091:	2d2d                	.insn	2, 0x2d2d
  203093:	2b2d                	.insn	2, 0x2b2d
  203095:	000a                	.insn	2, 0x000a
  203097:	4150                	.insn	2, 0x4150
  203099:	494e                	.insn	2, 0x494e
  20309b:	25203a43          	.insn	4, 0x25203a43
  20309f:	64253a73          	csrrc	s4,0x642,a0
  2030a3:	203a                	.insn	2, 0x203a
  2030a5:	6e75                	.insn	2, 0x6e75
  2030a7:	7865                	.insn	2, 0x7865
  2030a9:	6570                	.insn	2, 0x6570
  2030ab:	64657463          	bgeu	a0,t1,2036f3 <_binary_shell_bin_start+0x380>
  2030af:	7320                	.insn	2, 0x7320
  2030b1:	7379                	.insn	2, 0x7379
  2030b3:	6c6c6163          	bltu	s8,t1,203775 <_binary_shell_bin_start+0x402>
  2030b7:	6120                	.insn	2, 0x6120
  2030b9:	78253d33          	.insn	4, 0x78253d33
  2030bd:	0a0a                	.insn	2, 0x0a0a
  2030bf:	5600                	.insn	2, 0x5600
  2030c1:	7265                	.insn	2, 0x7265
  2030c3:	203a                	.insn	2, 0x203a
  2030c5:	6574                	.insn	2, 0x6574
  2030c7:	315f7473          	csrrci	s0,0x315,30
  2030cb:	342e                	.insn	2, 0x342e
  2030cd:	322e                	.insn	2, 0x322e
  2030cf:	000a                	.insn	2, 0x000a
  2030d1:	6d656d5b          	.insn	4, 0x6d656d5b
  2030d5:	635f 6568 6b63      	.insn	6, 0x6b636568635f
  2030db:	205d                	.insn	2, 0x205d
  2030dd:	6172                	.insn	2, 0x6172
  2030df:	646e                	.insn	2, 0x646e
  2030e1:	77206d6f          	jal	s10,209853 <_binary_shell_bin_start+0x64e0>
  2030e5:	6972                	.insn	2, 0x6972
  2030e7:	6574                	.insn	2, 0x6574
  2030e9:	7020                	.insn	2, 0x7020
  2030eb:	6168                	.insn	2, 0x6168
  2030ed:	000a6573          	csrrsi	a0,0x0,20
  2030f1:	7830                	.insn	2, 0x7830
  2030f3:	3032                	.insn	2, 0x3032
  2030f5:	3030                	.insn	2, 0x3030
  2030f7:	3030                	.insn	2, 0x3030
  2030f9:	2d00                	.insn	2, 0x2d00
  2030fb:	2d2d                	.insn	2, 0x2d2d
  2030fd:	202d                	.insn	2, 0x202d
  2030ff:	4d4d                	.insn	2, 0x4d4d
  203101:	4f49                	.insn	2, 0x4f49
  203103:	6d20                	.insn	2, 0x6d20
  203105:	7061                	.insn	2, 0x7061
  203107:	7320                	.insn	2, 0x7320
  203109:	6174                	.insn	2, 0x6174
  20310b:	7472                	.insn	2, 0x7472
  20310d:	202e                	.insn	2, 0x202e
  20310f:	2d2d                	.insn	2, 0x2d2d
  203111:	2d2d                	.insn	2, 0x2d2d
  203113:	000a                	.insn	2, 0x000a

00203115 <$d.4>:
  203115:	4150                	.insn	2, 0x4150
  203117:	494e                	.insn	2, 0x494e
  203119:	25203a43          	.insn	4, 0x25203a43
  20311d:	64253a73          	csrrc	s4,0x642,a0
  203121:	203a                	.insn	2, 0x203a
  203123:	2074756f          	jal	a0,24ab29 <__bss_end+0x15015>
  203127:	6d20666f          	jal	a2,2097f9 <_binary_shell_bin_start+0x6486>
  20312b:	6d65                	.insn	2, 0x6d65
  20312d:	0a79726f          	jal	tp,29a9d3 <__free_ram+0x449d3>
  203131:	5b00                	.insn	2, 0x5b00
  203133:	656d                	.insn	2, 0x656d
  203135:	5f6d                	.insn	2, 0x5f6d
  203137:	63656863          	bltu	a0,s6,203767 <_binary_shell_bin_start+0x3f4>
  20313b:	73205d6b          	.insn	4, 0x73205d6b
  20313f:	7165                	.insn	2, 0x7165
  203141:	6575                	.insn	2, 0x6575
  203143:	746e                	.insn	2, 0x746e
  203145:	6169                	.insn	2, 0x6169
  203147:	206c                	.insn	2, 0x206c
  203149:	74697277          	.insn	4, 0x74697277
  20314d:	2065                	.insn	2, 0x2065
  20314f:	6870                	.insn	2, 0x6870
  203151:	7361                	.insn	2, 0x7361
  203153:	0a65                	.insn	2, 0x0a65
  203155:	4a00                	.insn	2, 0x4a00
  203157:	6e75                	.insn	2, 0x6e75
  203159:	2020                	.insn	2, 0x2020
  20315b:	2036                	.insn	2, 0x2036
  20315d:	3032                	.insn	2, 0x3032
  20315f:	3632                	.insn	2, 0x3632
  203161:	5b00                	.insn	2, 0x5b00
  203163:	6e69                	.insn	2, 0x6e69
  203165:	6f66                	.insn	2, 0x6f66
  203167:	205d                	.insn	2, 0x205d
  203169:	656c                	.insn	2, 0x656c
  20316b:	206e                	.insn	2, 0x206e
  20316d:	6f74                	.insn	2, 0x6f74
  20316f:	6962206f          	j	225805 <procs+0xd5>
  203173:	3e282067          	.insn	4, 0x3e282067
  203177:	7830                	.insn	2, 0x7830
  203179:	5825                	.insn	2, 0x5825
  20317b:	2c29                	.insn	2, 0x2c29
  20317d:	7220                	.insn	2, 0x7220
  20317f:	646e756f          	jal	a0,2ea7c5 <__free_ram+0x947c5>
  203183:	6420                	.insn	2, 0x6420
  203185:	206e776f          	jal	a4,2ea38b <__free_ram+0x9438b>
  203189:	6f74                	.insn	2, 0x6f74
  20318b:	3020                	.insn	2, 0x3020
  20318d:	2578                	.insn	2, 0x2578
  20318f:	0a58                	.insn	2, 0x0a58
  203191:	5000                	.insn	2, 0x5000
  203193:	4e41                	.insn	2, 0x4e41
  203195:	4349                	.insn	2, 0x4349
  203197:	203a                	.insn	2, 0x203a
  203199:	7325                	.insn	2, 0x7325
  20319b:	253a                	.insn	2, 0x253a
  20319d:	3a64                	.insn	2, 0x3a64
  20319f:	7520                	.insn	2, 0x7520
  2031a1:	616e                	.insn	2, 0x616e
  2031a3:	696c                	.insn	2, 0x696c
  2031a5:	64656e67          	.insn	4, 0x64656e67
  2031a9:	7020                	.insn	2, 0x7020
  2031ab:	6461                	.insn	2, 0x6461
  2031ad:	7264                	.insn	2, 0x7264
  2031af:	2520                	.insn	2, 0x2520
  2031b1:	0a78                	.insn	2, 0x0a78
  2031b3:	6300                	.insn	2, 0x6300
  2031b5:	6572                	.insn	2, 0x6572
  2031b7:	7461                	.insn	2, 0x7461
  2031b9:	5f65                	.insn	2, 0x5f65
  2031bb:	7270                	.insn	2, 0x7270
  2031bd:	7365636f          	jal	t1,2598f3 <__free_ram+0x38f3>
  2031c1:	6e455f73          	csrrwi	t5,0x6e4,10
  2031c5:	0a64                	.insn	2, 0x0a64
  2031c7:	4d00                	.insn	2, 0x4d00
  2031c9:	4d45                	.insn	2, 0x4d45
  2031cb:	4520                	.insn	2, 0x4520
  2031cd:	5252                	.insn	2, 0x5252
  2031cf:	6120524f          	.insn	4, 0x6120524f
  2031d3:	6464                	.insn	2, 0x6464
  2031d5:	3d72                	.insn	2, 0x3d72
  2031d7:	7825                	.insn	2, 0x7825
  2031d9:	7220                	.insn	2, 0x7220
  2031db:	6165                	.insn	2, 0x6165
  2031dd:	3d64                	.insn	2, 0x3d64
  2031df:	7825                	.insn	2, 0x7825
  2031e1:	6520                	.insn	2, 0x6520
  2031e3:	7078                	.insn	2, 0x7078
  2031e5:	253d                	.insn	2, 0x253d
  2031e7:	0a78                	.insn	2, 0x0a78
  2031e9:	0a00                	.insn	2, 0x0a00
  2031eb:	5000                	.insn	2, 0x5000
  2031ed:	4e41                	.insn	2, 0x4e41
  2031ef:	4349                	.insn	2, 0x4349
  2031f1:	203a                	.insn	2, 0x203a
  2031f3:	7325                	.insn	2, 0x7325
  2031f5:	253a                	.insn	2, 0x253a
  2031f7:	3a64                	.insn	2, 0x3a64
  2031f9:	7320                	.insn	2, 0x7320
  2031fb:	63746977          	.insn	4, 0x63746977
  2031ff:	6568                	.insn	2, 0x6568
  203201:	2064                	.insn	2, 0x2064
  203203:	6f74                	.insn	2, 0x6f74
  203205:	6920                	.insn	2, 0x6920
  203207:	6c64                	.insn	2, 0x6c64
  203209:	2065                	.insn	2, 0x2065
  20320b:	7270                	.insn	2, 0x7270
  20320d:	7365636f          	jal	t1,259943 <__free_ram+0x3943>
  203211:	50000a73          	.insn	4, 0x50000a73
  203215:	4e41                	.insn	2, 0x4e41
  203217:	4349                	.insn	2, 0x4349
  203219:	203a                	.insn	2, 0x203a
  20321b:	7325                	.insn	2, 0x7325
  20321d:	253a                	.insn	2, 0x253a
  20321f:	3a64                	.insn	2, 0x3a64
  203221:	5020                	.insn	2, 0x5020
  203223:	696d2043          	.insn	4, 0x696d2043
  203227:	696c6173          	csrrsi	sp,0x696,24
  20322b:	64656e67          	.insn	4, 0x64656e67
  20322f:	7320                	.insn	2, 0x7320
  203231:	7065                	.insn	2, 0x7065
  203233:	78253d63          	.insn	4, 0x78253d63
  203237:	7320                	.insn	2, 0x7320
  203239:	7674                	.insn	2, 0x7674
  20323b:	6c61                	.insn	2, 0x6c61
  20323d:	253d                	.insn	2, 0x253d
  20323f:	2078                	.insn	2, 0x2078
  203241:	61747373          	csrrci	t1,0x617,8
  203245:	7574                	.insn	2, 0x7574
  203247:	78253d73          	csrrc	s10,0x782,a0
  20324b:	0a0a                	.insn	2, 0x0a0a
  20324d:	2d00                	.insn	2, 0x2d00
  20324f:	2d2d                	.insn	2, 0x2d2d
  203251:	6320                	.insn	2, 0x6320
  203253:	6572                	.insn	2, 0x6572
  203255:	7461                	.insn	2, 0x7461
  203257:	5f65                	.insn	2, 0x5f65
  203259:	7270                	.insn	2, 0x7270
  20325b:	7365636f          	jal	t1,259991 <__free_ram+0x3991>
  20325f:	20325f73          	csrrwi	t5,0x203,4
  203263:	2d2d                	.insn	2, 0x2d2d
  203265:	0a2d                	.insn	2, 0x0a2d
  203267:	7000                	.insn	2, 0x7000
  203269:	6f72                	.insn	2, 0x6f72
  20326b:	73736563          	bltu	t1,s7,203995 <_binary_shell_bin_start+0x622>
  20326f:	2520                	.insn	2, 0x2520
  203271:	2064                	.insn	2, 0x2064
  203273:	7865                	.insn	2, 0x7865
  203275:	7469                	.insn	2, 0x7469
  203277:	6465                	.insn	2, 0x6465
  203279:	000a                	.insn	2, 0x000a
  20327b:	7375                	.insn	2, 0x7375
  20327d:	6761                	.insn	2, 0x6761
  20327f:	3a65                	.insn	2, 0x3a65
  203281:	6420                	.insn	2, 0x6420
  203283:	706d                	.insn	2, 0x706d
  203285:	5b20                	.insn	2, 0x5b20
  203287:	7366666f          	jal	a2,2699bd <__free_ram+0x139bd>
  20328b:	7465                	.insn	2, 0x7465
  20328d:	685f 7865 205d      	.insn	6, 0x205d7865685f
  203293:	6e656c5b          	.insn	4, 0x6e656c5b
  203297:	685f 7865 0a5d      	.insn	6, 0x0a5d7865685f
  20329d:	7300                	.insn	2, 0x7300
  20329f:	5f61                	.insn	2, 0x5f61
  2032a1:	7572                	.insn	2, 0x7572
  2032a3:	206e                	.insn	2, 0x206e
  2032a5:	6e65                	.insn	2, 0x6e65
  2032a7:	2e64                	.insn	2, 0x2e64
  2032a9:	0a0a                	.insn	2, 0x0a0a
  2032ab:	2d00                	.insn	2, 0x2d00
  2032ad:	2d2d                	.insn	2, 0x2d2d
  2032af:	202d                	.insn	2, 0x202d
  2032b1:	7375                	.insn	2, 0x7375
  2032b3:	7265                	.insn	2, 0x7265
  2032b5:	7320                	.insn	2, 0x7320
  2032b7:	6174                	.insn	2, 0x6174
  2032b9:	6d206b63          	bltu	zero,s2,20398f <_binary_shell_bin_start+0x61c>
  2032bd:	7061                	.insn	2, 0x7061
  2032bf:	7320                	.insn	2, 0x7320
  2032c1:	6174                	.insn	2, 0x6174
  2032c3:	7472                	.insn	2, 0x7472
  2032c5:	202e                	.insn	2, 0x202e
  2032c7:	2d2d                	.insn	2, 0x2d2d
  2032c9:	2d2d                	.insn	2, 0x2d2d
  2032cb:	000a                	.insn	2, 0x000a
  2032cd:	6d656d5b          	.insn	4, 0x6d656d5b
  2032d1:	635f 6568 6b63      	.insn	6, 0x6b636568635f
  2032d7:	205d                	.insn	2, 0x205d
  2032d9:	6172                	.insn	2, 0x6172
  2032db:	676e                	.insn	2, 0x676e
  2032dd:	2065                	.insn	2, 0x2065
  2032df:	7825                	.insn	2, 0x7825
  2032e1:	2d20                	.insn	2, 0x2d20
  2032e3:	2520                	.insn	2, 0x2520
  2032e5:	0a78                	.insn	2, 0x0a78
  2032e7:	5000                	.insn	2, 0x5000
  2032e9:	4e41                	.insn	2, 0x4e41
  2032eb:	4349                	.insn	2, 0x4349
  2032ed:	203a                	.insn	2, 0x203a
  2032ef:	7325                	.insn	2, 0x7325
  2032f1:	253a                	.insn	2, 0x253a
  2032f3:	3a64                	.insn	2, 0x3a64
  2032f5:	7520                	.insn	2, 0x7520
  2032f7:	616e                	.insn	2, 0x616e
  2032f9:	696c                	.insn	2, 0x696c
  2032fb:	64656e67          	.insn	4, 0x64656e67
  2032ff:	7620                	.insn	2, 0x7620
  203301:	6461                	.insn	2, 0x6461
  203303:	7264                	.insn	2, 0x7264
  203305:	2520                	.insn	2, 0x2520
  203307:	0a78                	.insn	2, 0x0a78
  203309:	2d00                	.insn	2, 0x2d00
  20330b:	2d2d                	.insn	2, 0x2d2d
  20330d:	7920                	.insn	2, 0x7920
  20330f:	6569                	.insn	2, 0x6569
  203311:	646c                	.insn	2, 0x646c
  203313:	6520                	.insn	2, 0x6520
  203315:	646e                	.insn	2, 0x646e
  203317:	2d20                	.insn	2, 0x2d20
  203319:	2d2d                	.insn	2, 0x2d2d
  20331b:	000a                	.insn	2, 0x000a

0020331d <print_hex8.HEX>:
    static const char HEX[] = "0123456789abcdef";
  20331d:	3130                	.insn	2, 0x3130
  20331f:	3332                	.insn	2, 0x3332
  203321:	3534                	.insn	2, 0x3534
  203323:	3736                	.insn	2, 0x3736
  203325:	3938                	.insn	2, 0x3938
  203327:	6261                	.insn	2, 0x6261
  203329:	66656463          	bltu	a0,t1,203991 <_binary_shell_bin_start+0x61e>
  20332d:	5000                	.insn	2, 0x5000
  20332f:	4e41                	.insn	2, 0x4e41
  203331:	4349                	.insn	2, 0x4349
  203333:	203a                	.insn	2, 0x203a
  203335:	7325                	.insn	2, 0x7325
  203337:	253a                	.insn	2, 0x253a
  203339:	3a64                	.insn	2, 0x3a64
  20333b:	6e20                	.insn	2, 0x6e20
  20333d:	7266206f          	j	265a63 <__free_ram+0xfa63>
  203341:	6565                	.insn	2, 0x6565
  203343:	7020                	.insn	2, 0x7020
  203345:	6f72                	.insn	2, 0x6f72
  203347:	73736563          	bltu	t1,s7,203a71 <_binary_shell_bin_start+0x6fe>
  20334b:	7320                	.insn	2, 0x7320
  20334d:	6f6c                	.insn	2, 0x6f6c
  20334f:	7374                	.insn	2, 0x7374
  203351:	000a                	.insn	2, 0x000a

00203353 <$d.1>:
  203353:	203a                	.insn	2, 0x203a
  203355:	2d00                	.insn	2, 0x2d00
  203357:	2d2d                	.insn	2, 0x2d2d
  203359:	202d                	.insn	2, 0x202d
  20335b:	6e72656b          	.insn	4, 0x6e72656b
  20335f:	6c65                	.insn	2, 0x6c65
  203361:	6d20                	.insn	2, 0x6d20
  203363:	7061                	.insn	2, 0x7061
  203365:	7320                	.insn	2, 0x7320
  203367:	6174                	.insn	2, 0x6174
  203369:	7472                	.insn	2, 0x7472
  20336b:	202e                	.insn	2, 0x202e
  20336d:	2d2d                	.insn	2, 0x2d2d
  20336f:	2d2d                	.insn	2, 0x2d2d
  203371:	000a                	.insn	2, 0x000a

00203373 <_binary_shell_bin_start>:
  203373:	00422537          	lui	a0,0x422
  203377:	39050513          	addi	a0,a0,912 # 422390 <__free_ram_end+0xcc390>
  20337b:	00050113          	mv	sp,a0
  20337f:	00000097          	auipc	ra,0x0
  203383:	010080e7          	jalr	16(ra) # 20338f <_binary_shell_bin_start+0x1c>
  203387:	00000097          	auipc	ra,0x0
  20338b:	7fc080e7          	jalr	2044(ra) # 203b83 <_binary_shell_bin_start+0x810>
  20338f:	f4010113          	addi	sp,sp,-192
  203393:	0a112e23          	sw	ra,188(sp)
  203397:	0a812c23          	sw	s0,184(sp)
  20339b:	0a912a23          	sw	s1,180(sp)
  20339f:	0b212823          	sw	s2,176(sp)
  2033a3:	0b312623          	sw	s3,172(sp)
  2033a7:	0b412423          	sw	s4,168(sp)
  2033ab:	0b512223          	sw	s5,164(sp)
  2033af:	0b612023          	sw	s6,160(sp)
  2033b3:	09712e23          	sw	s7,156(sp)
  2033b7:	09812c23          	sw	s8,152(sp)
  2033bb:	09912a23          	sw	s9,148(sp)
  2033bf:	09a12823          	sw	s10,144(sp)
  2033c3:	09b12623          	sw	s11,140(sp)
  2033c7:	00401537          	lui	a0,0x401
  2033cb:	31f50513          	addi	a0,a0,799 # 40131f <__free_ram_end+0xab31f>
  2033cf:	00001097          	auipc	ra,0x1
  2033d3:	c00080e7          	jalr	-1024(ra) # 203fcf <_binary_shell_bin_start+0xc5c>
  2033d7:	02000d93          	li	s11,32
  2033db:	00a00b13          	li	s6,10
  2033df:	00c00d13          	li	s10,12
  2033e3:	00800c93          	li	s9,8
  2033e7:	06c10c13          	addi	s8,sp,108
  2033eb:	00900b93          	li	s7,9
  2033ef:	04c10a13          	addi	s4,sp,76
  2033f3:	00401537          	lui	a0,0x401
  2033f7:	30750513          	addi	a0,a0,775 # 401307 <__free_ram_end+0xab307>
  2033fb:	04a12423          	sw	a0,72(sp)
  2033ff:	00401537          	lui	a0,0x401
  203403:	2af50513          	addi	a0,a0,687 # 4012af <__free_ram_end+0xab2af>
  203407:	02a12e23          	sw	a0,60(sp)
  20340b:	00401537          	lui	a0,0x401
  20340f:	32d50513          	addi	a0,a0,813 # 40132d <__free_ram_end+0xab32d>
  203413:	04a12223          	sw	a0,68(sp)
  203417:	00401537          	lui	a0,0x401
  20341b:	2c850513          	addi	a0,a0,712 # 4012c8 <__free_ram_end+0xab2c8>
  20341f:	04a12023          	sw	a0,64(sp)
  203423:	00018537          	lui	a0,0x18
  203427:	6a050513          	addi	a0,a0,1696 # 186a0 <$d.4+0x15f33>
  20342b:	02a12623          	sw	a0,44(sp)
  20342f:	00401537          	lui	a0,0x401
  203433:	36050513          	addi	a0,a0,864 # 401360 <__free_ram_end+0xab360>
  203437:	00a12c23          	sw	a0,24(sp)
  20343b:	00401537          	lui	a0,0x401
  20343f:	2fe50513          	addi	a0,a0,766 # 4012fe <__free_ram_end+0xab2fe>
  203443:	02a12c23          	sw	a0,56(sp)
  203447:	00401537          	lui	a0,0x401
  20344b:	29450513          	addi	a0,a0,660 # 401294 <__free_ram_end+0xab294>
  20344f:	00a12823          	sw	a0,16(sp)
  203453:	00401537          	lui	a0,0x401
  203457:	2a750513          	addi	a0,a0,679 # 4012a7 <__free_ram_end+0xab2a7>
  20345b:	02a12a23          	sw	a0,52(sp)
  20345f:	00401537          	lui	a0,0x401
  203463:	34750513          	addi	a0,a0,839 # 401347 <__free_ram_end+0xab347>
  203467:	00a12623          	sw	a0,12(sp)
  20346b:	00401537          	lui	a0,0x401
  20346f:	31850513          	addi	a0,a0,792 # 401318 <__free_ram_end+0xab318>
  203473:	02a12823          	sw	a0,48(sp)
  203477:	00401537          	lui	a0,0x401
  20347b:	30d50513          	addi	a0,a0,781 # 40130d <__free_ram_end+0xab30d>
  20347f:	00a12a23          	sw	a0,20(sp)
  203483:	00401537          	lui	a0,0x401
  203487:	37f50513          	addi	a0,a0,895 # 40137f <__free_ram_end+0xab37f>
  20348b:	02a12423          	sw	a0,40(sp)
  20348f:	00401537          	lui	a0,0x401
  203493:	37a50513          	addi	a0,a0,890 # 40137a <__free_ram_end+0xab37a>
  203497:	02a12223          	sw	a0,36(sp)
  20349b:	00401537          	lui	a0,0x401
  20349f:	31d50513          	addi	a0,a0,797 # 40131d <__free_ram_end+0xab31d>
  2034a3:	02a12023          	sw	a0,32(sp)
  2034a7:	00401537          	lui	a0,0x401
  2034ab:	2cf50513          	addi	a0,a0,719 # 4012cf <__free_ram_end+0xab2cf>
  2034af:	00a12e23          	sw	a0,28(sp)
  2034b3:	01f00993          	li	s3,31
  2034b7:	07f00913          	li	s2,127
  2034bb:	00d00413          	li	s0,13
  2034bf:	0140006f          	j	2034d3 <_binary_shell_bin_start+0x160>
  2034c3:	03c12503          	lw	a0,60(sp)
  2034c7:	00001097          	auipc	ra,0x1
  2034cb:	b08080e7          	jalr	-1272(ra) # 203fcf <_binary_shell_bin_start+0xc5c>
  2034cf:	04c10a13          	addi	s4,sp,76
  2034d3:	01b00513          	li	a0,27
  2034d7:	00001097          	auipc	ra,0x1
  2034db:	a44080e7          	jalr	-1468(ra) # 203f1b <_binary_shell_bin_start+0xba8>
  2034df:	05b00513          	li	a0,91
  2034e3:	00001097          	auipc	ra,0x1
  2034e7:	a38080e7          	jalr	-1480(ra) # 203f1b <_binary_shell_bin_start+0xba8>
  2034eb:	03300513          	li	a0,51
  2034ef:	00001097          	auipc	ra,0x1
  2034f3:	a2c080e7          	jalr	-1492(ra) # 203f1b <_binary_shell_bin_start+0xba8>
  2034f7:	03400513          	li	a0,52
  2034fb:	00001097          	auipc	ra,0x1
  2034ff:	a20080e7          	jalr	-1504(ra) # 203f1b <_binary_shell_bin_start+0xba8>
  203503:	06d00513          	li	a0,109
  203507:	00001097          	auipc	ra,0x1
  20350b:	a14080e7          	jalr	-1516(ra) # 203f1b <_binary_shell_bin_start+0xba8>
  20350f:	05000513          	li	a0,80
  203513:	00001097          	auipc	ra,0x1
  203517:	a08080e7          	jalr	-1528(ra) # 203f1b <_binary_shell_bin_start+0xba8>
  20351b:	05300513          	li	a0,83
  20351f:	00001097          	auipc	ra,0x1
  203523:	9fc080e7          	jalr	-1540(ra) # 203f1b <_binary_shell_bin_start+0xba8>
  203527:	04300513          	li	a0,67
  20352b:	00001097          	auipc	ra,0x1
  20352f:	9f0080e7          	jalr	-1552(ra) # 203f1b <_binary_shell_bin_start+0xba8>
  203533:	05f00513          	li	a0,95
  203537:	00001097          	auipc	ra,0x1
  20353b:	9e4080e7          	jalr	-1564(ra) # 203f1b <_binary_shell_bin_start+0xba8>
  20353f:	04f00513          	li	a0,79
  203543:	00001097          	auipc	ra,0x1
  203547:	9d8080e7          	jalr	-1576(ra) # 203f1b <_binary_shell_bin_start+0xba8>
  20354b:	05300513          	li	a0,83
  20354f:	00001097          	auipc	ra,0x1
  203553:	9cc080e7          	jalr	-1588(ra) # 203f1b <_binary_shell_bin_start+0xba8>
  203557:	03e00513          	li	a0,62
  20355b:	00001097          	auipc	ra,0x1
  20355f:	9c0080e7          	jalr	-1600(ra) # 203f1b <_binary_shell_bin_start+0xba8>
  203563:	02000513          	li	a0,32
  203567:	00001097          	auipc	ra,0x1
  20356b:	9b4080e7          	jalr	-1612(ra) # 203f1b <_binary_shell_bin_start+0xba8>
  20356f:	01b00513          	li	a0,27
  203573:	00001097          	auipc	ra,0x1
  203577:	9a8080e7          	jalr	-1624(ra) # 203f1b <_binary_shell_bin_start+0xba8>
  20357b:	05b00513          	li	a0,91
  20357f:	00001097          	auipc	ra,0x1
  203583:	99c080e7          	jalr	-1636(ra) # 203f1b <_binary_shell_bin_start+0xba8>
  203587:	03000513          	li	a0,48
  20358b:	00001097          	auipc	ra,0x1
  20358f:	990080e7          	jalr	-1648(ra) # 203f1b <_binary_shell_bin_start+0xba8>
  203593:	06d00513          	li	a0,109
  203597:	00001097          	auipc	ra,0x1
  20359b:	984080e7          	jalr	-1660(ra) # 203f1b <_binary_shell_bin_start+0xba8>
  20359f:	00000493          	li	s1,0
  2035a3:	00c0006f          	j	2035af <_binary_shell_bin_start+0x23c>
  2035a7:	03251463          	bne	a0,s2,2035cf <_binary_shell_bin_start+0x25c>
  2035ab:	04904463          	bgtz	s1,2035f3 <_binary_shell_bin_start+0x280>
  2035af:	00001097          	auipc	ra,0x1
  2035b3:	e9c080e7          	jalr	-356(ra) # 20444b <_binary_shell_bin_start+0x10d8>
  2035b7:	01651463          	bne	a0,s6,2035bf <_binary_shell_bin_start+0x24c>
  2035bb:	fe048ae3          	beqz	s1,2035af <_binary_shell_bin_start+0x23c>
  2035bf:	fead44e3          	blt	s10,a0,2035a7 <_binary_shell_bin_start+0x234>
  2035c3:	ff9504e3          	beq	a0,s9,2035ab <_binary_shell_bin_start+0x238>
  2035c7:	01651663          	bne	a0,s6,2035d3 <_binary_shell_bin_start+0x260>
  2035cb:	0580006f          	j	203623 <_binary_shell_bin_start+0x2b0>
  2035cf:	04850a63          	beq	a0,s0,203623 <_binary_shell_bin_start+0x2b0>
  2035d3:	00a9c463          	blt	s3,a0,2035db <_binary_shell_bin_start+0x268>
  2035d7:	fd751ce3          	bne	a0,s7,2035af <_binary_shell_bin_start+0x23c>
  2035db:	01e00593          	li	a1,30
  2035df:	ee95cae3          	blt	a1,s1,2034d3 <_binary_shell_bin_start+0x160>
  2035e3:	009c05b3          	add	a1,s8,s1
  2035e7:	00148493          	addi	s1,s1,1
  2035eb:	00a58023          	sb	a0,0(a1)
  2035ef:	0240006f          	j	203613 <_binary_shell_bin_start+0x2a0>
  2035f3:	fff48493          	addi	s1,s1,-1
  2035f7:	00800513          	li	a0,8
  2035fb:	00001097          	auipc	ra,0x1
  2035ff:	920080e7          	jalr	-1760(ra) # 203f1b <_binary_shell_bin_start+0xba8>
  203603:	02000513          	li	a0,32
  203607:	00001097          	auipc	ra,0x1
  20360b:	914080e7          	jalr	-1772(ra) # 203f1b <_binary_shell_bin_start+0xba8>
  20360f:	00800513          	li	a0,8
  203613:	0ff57513          	zext.b	a0,a0
  203617:	00001097          	auipc	ra,0x1
  20361b:	904080e7          	jalr	-1788(ra) # 203f1b <_binary_shell_bin_start+0xba8>
  20361f:	f91ff06f          	j	2035af <_binary_shell_bin_start+0x23c>
  203623:	00a00513          	li	a0,10
  203627:	00001097          	auipc	ra,0x1
  20362b:	8f4080e7          	jalr	-1804(ra) # 203f1b <_binary_shell_bin_start+0xba8>
  20362f:	009c0533          	add	a0,s8,s1
  203633:	00050023          	sb	zero,0(a0)
  203637:	e8048ee3          	beqz	s1,2034d3 <_binary_shell_bin_start+0x160>
  20363b:	06c10513          	addi	a0,sp,108
  20363f:	0080006f          	j	203647 <_binary_shell_bin_start+0x2d4>
  203643:	00150513          	addi	a0,a0,1
  203647:	00054583          	lbu	a1,0(a0)
  20364b:	ff758ce3          	beq	a1,s7,203643 <_binary_shell_bin_start+0x2d0>
  20364f:	ffb58ae3          	beq	a1,s11,203643 <_binary_shell_bin_start+0x2d0>
  203653:	e80580e3          	beqz	a1,2034d3 <_binary_shell_bin_start+0x160>
  203657:	00000493          	li	s1,0
  20365b:	00048a93          	mv	s5,s1
  20365f:	00050593          	mv	a1,a0
  203663:	00148493          	addi	s1,s1,1
  203667:	002a9513          	slli	a0,s5,0x2
  20366b:	00aa0533          	add	a0,s4,a0
  20366f:	00b52023          	sw	a1,0(a0)
  203673:	00158513          	addi	a0,a1,1
  203677:	0005c603          	lbu	a2,0(a1)
  20367b:	04060263          	beqz	a2,2036bf <_binary_shell_bin_start+0x34c>
  20367f:	01760e63          	beq	a2,s7,20369b <_binary_shell_bin_start+0x328>
  203683:	01b60c63          	beq	a2,s11,20369b <_binary_shell_bin_start+0x328>
  203687:	00158593          	addi	a1,a1,1
  20368b:	00150513          	addi	a0,a0,1
  20368f:	0005c603          	lbu	a2,0(a1)
  203693:	fe0616e3          	bnez	a2,20367f <_binary_shell_bin_start+0x30c>
  203697:	0280006f          	j	2036bf <_binary_shell_bin_start+0x34c>
  20369b:	00058023          	sb	zero,0(a1)
  20369f:	0080006f          	j	2036a7 <_binary_shell_bin_start+0x334>
  2036a3:	00150513          	addi	a0,a0,1
  2036a7:	00054583          	lbu	a1,0(a0)
  2036ab:	ffb58ce3          	beq	a1,s11,2036a3 <_binary_shell_bin_start+0x330>
  2036af:	ff758ae3          	beq	a1,s7,2036a3 <_binary_shell_bin_start+0x330>
  2036b3:	00058663          	beqz	a1,2036bf <_binary_shell_bin_start+0x34c>
  2036b7:	00600593          	li	a1,6
  2036bb:	fb55f0e3          	bgeu	a1,s5,20365b <_binary_shell_bin_start+0x2e8>
  2036bf:	04c12a03          	lw	s4,76(sp)
  2036c3:	000a0513          	mv	a0,s4
  2036c7:	04812583          	lw	a1,72(sp)
  2036cb:	00001097          	auipc	ra,0x1
  2036cf:	8c4080e7          	jalr	-1852(ra) # 203f8f <_binary_shell_bin_start+0xc1c>
  2036d3:	de0508e3          	beqz	a0,2034c3 <_binary_shell_bin_start+0x150>
  2036d7:	000a0513          	mv	a0,s4
  2036db:	04412583          	lw	a1,68(sp)
  2036df:	00001097          	auipc	ra,0x1
  2036e3:	8b0080e7          	jalr	-1872(ra) # 203f8f <_binary_shell_bin_start+0xc1c>
  2036e7:	0a050463          	beqz	a0,20378f <_binary_shell_bin_start+0x41c>
  2036eb:	000a0513          	mv	a0,s4
  2036ef:	04012583          	lw	a1,64(sp)
  2036f3:	00001097          	auipc	ra,0x1
  2036f7:	89c080e7          	jalr	-1892(ra) # 203f8f <_binary_shell_bin_start+0xc1c>
  2036fb:	0e050263          	beqz	a0,2037df <_binary_shell_bin_start+0x46c>
  2036ff:	000a0513          	mv	a0,s4
  203703:	03812583          	lw	a1,56(sp)
  203707:	00001097          	auipc	ra,0x1
  20370b:	888080e7          	jalr	-1912(ra) # 203f8f <_binary_shell_bin_start+0xc1c>
  20370f:	0e050e63          	beqz	a0,20380b <_binary_shell_bin_start+0x498>
  203713:	000a0513          	mv	a0,s4
  203717:	03412583          	lw	a1,52(sp)
  20371b:	00001097          	auipc	ra,0x1
  20371f:	874080e7          	jalr	-1932(ra) # 203f8f <_binary_shell_bin_start+0xc1c>
  203723:	12050a63          	beqz	a0,203857 <_binary_shell_bin_start+0x4e4>
  203727:	000a0513          	mv	a0,s4
  20372b:	03012583          	lw	a1,48(sp)
  20372f:	00001097          	auipc	ra,0x1
  203733:	860080e7          	jalr	-1952(ra) # 203f8f <_binary_shell_bin_start+0xc1c>
  203737:	14050e63          	beqz	a0,203893 <_binary_shell_bin_start+0x520>
  20373b:	000a0513          	mv	a0,s4
  20373f:	02812583          	lw	a1,40(sp)
  203743:	00001097          	auipc	ra,0x1
  203747:	84c080e7          	jalr	-1972(ra) # 203f8f <_binary_shell_bin_start+0xc1c>
  20374b:	2a050463          	beqz	a0,2039f3 <_binary_shell_bin_start+0x680>
  20374f:	000a0513          	mv	a0,s4
  203753:	02412583          	lw	a1,36(sp)
  203757:	00001097          	auipc	ra,0x1
  20375b:	838080e7          	jalr	-1992(ra) # 203f8f <_binary_shell_bin_start+0xc1c>
  20375f:	28050a63          	beqz	a0,2039f3 <_binary_shell_bin_start+0x680>
  203763:	000a0513          	mv	a0,s4
  203767:	02012583          	lw	a1,32(sp)
  20376b:	00001097          	auipc	ra,0x1
  20376f:	824080e7          	jalr	-2012(ra) # 203f8f <_binary_shell_bin_start+0xc1c>
  203773:	28050063          	beqz	a0,2039f3 <_binary_shell_bin_start+0x680>
  203777:	01c12503          	lw	a0,28(sp)
  20377b:	000a0593          	mv	a1,s4
  20377f:	00001097          	auipc	ra,0x1
  203783:	850080e7          	jalr	-1968(ra) # 203fcf <_binary_shell_bin_start+0xc5c>
  203787:	04c10a13          	addi	s4,sp,76
  20378b:	d49ff06f          	j	2034d3 <_binary_shell_bin_start+0x160>
  20378f:	10000593          	li	a1,256
  203793:	0a0a8063          	beqz	s5,203833 <_binary_shell_bin_start+0x4c0>
  203797:	05012683          	lw	a3,80(sp)
  20379b:	00268693          	addi	a3,a3,2
  20379f:	04c10a13          	addi	s4,sp,76
  2037a3:	00500893          	li	a7,5
  2037a7:	0080006f          	j	2037af <_binary_shell_bin_start+0x43c>
  2037ab:	00168693          	addi	a3,a3,1
  2037af:	ffe6c603          	lbu	a2,-2(a3)
  2037b3:	ff760ce3          	beq	a2,s7,2037ab <_binary_shell_bin_start+0x438>
  2037b7:	ffb60ae3          	beq	a2,s11,2037ab <_binary_shell_bin_start+0x438>
  2037bb:	03000513          	li	a0,48
  2037bf:	08a61463          	bne	a2,a0,203847 <_binary_shell_bin_start+0x4d4>
  2037c3:	fff6c503          	lbu	a0,-1(a3)
  2037c7:	02056513          	ori	a0,a0,32
  2037cb:	07800613          	li	a2,120
  2037cf:	0ec51663          	bne	a0,a2,2038bb <_binary_shell_bin_start+0x548>
  2037d3:	0006c603          	lbu	a2,0(a3)
  2037d7:	0e061663          	bnez	a2,2038c3 <_binary_shell_bin_start+0x550>
  2037db:	0740006f          	j	20384f <_binary_shell_bin_start+0x4dc>
  2037df:	04c10a13          	addi	s4,sp,76
  2037e3:	080a8a63          	beqz	s5,203877 <_binary_shell_bin_start+0x504>
  2037e7:	05012503          	lw	a0,80(sp)
  2037eb:	00001097          	auipc	ra,0x1
  2037ef:	aec080e7          	jalr	-1300(ra) # 2042d7 <_binary_shell_bin_start+0xf64>
  2037f3:	02c12583          	lw	a1,44(sp)
  2037f7:	08a5f863          	bgeu	a1,a0,203887 <_binary_shell_bin_start+0x514>
  2037fb:	01812503          	lw	a0,24(sp)
  2037ff:	00000097          	auipc	ra,0x0
  203803:	7d0080e7          	jalr	2000(ra) # 203fcf <_binary_shell_bin_start+0xc5c>
  203807:	ccdff06f          	j	2034d3 <_binary_shell_bin_start+0x160>
  20380b:	000a8a63          	beqz	s5,20381f <_binary_shell_bin_start+0x4ac>
  20380f:	05012503          	lw	a0,80(sp)
  203813:	00001097          	auipc	ra,0x1
  203817:	ac4080e7          	jalr	-1340(ra) # 2042d7 <_binary_shell_bin_start+0xf64>
  20381b:	09a51663          	bne	a0,s10,2038a7 <_binary_shell_bin_start+0x534>
  20381f:	00c00513          	li	a0,12
  203823:	00000097          	auipc	ra,0x0
  203827:	378080e7          	jalr	888(ra) # 203b9b <_binary_shell_bin_start+0x828>
  20382b:	04c10a13          	addi	s4,sp,76
  20382f:	ca5ff06f          	j	2034d3 <_binary_shell_bin_start+0x160>
  203833:	00200537          	lui	a0,0x200
  203837:	04c10a13          	addi	s4,sp,76
  20383b:	00000097          	auipc	ra,0x0
  20383f:	714080e7          	jalr	1812(ra) # 203f4f <_binary_shell_bin_start+0xbdc>
  203843:	c91ff06f          	j	2034d3 <_binary_shell_bin_start+0x160>
  203847:	ffe68693          	addi	a3,a3,-2
  20384b:	06061c63          	bnez	a2,2038c3 <_binary_shell_bin_start+0x550>
  20384f:	00200537          	lui	a0,0x200
  203853:	0cc0006f          	j	20391f <_binary_shell_bin_start+0x5ac>
  203857:	04c10a13          	addi	s4,sp,76
  20385b:	100a8c63          	beqz	s5,203973 <_binary_shell_bin_start+0x600>
  20385f:	05012503          	lw	a0,80(sp)
  203863:	00001097          	auipc	ra,0x1
  203867:	a74080e7          	jalr	-1420(ra) # 2042d7 <_binary_shell_bin_start+0xf64>
  20386b:	00000097          	auipc	ra,0x0
  20386f:	6d8080e7          	jalr	1752(ra) # 203f43 <_binary_shell_bin_start+0xbd0>
  203873:	c61ff06f          	j	2034d3 <_binary_shell_bin_start+0x160>
  203877:	3e800513          	li	a0,1000
  20387b:	00000097          	auipc	ra,0x0
  20387f:	24c080e7          	jalr	588(ra) # 203ac7 <_binary_shell_bin_start+0x754>
  203883:	c51ff06f          	j	2034d3 <_binary_shell_bin_start+0x160>
  203887:	00000097          	auipc	ra,0x0
  20388b:	240080e7          	jalr	576(ra) # 203ac7 <_binary_shell_bin_start+0x754>
  20388f:	c45ff06f          	j	2034d3 <_binary_shell_bin_start+0x160>
  203893:	01412503          	lw	a0,20(sp)
  203897:	00000097          	auipc	ra,0x0
  20389b:	738080e7          	jalr	1848(ra) # 203fcf <_binary_shell_bin_start+0xc5c>
  20389f:	04c10a13          	addi	s4,sp,76
  2038a3:	c31ff06f          	j	2034d3 <_binary_shell_bin_start+0x160>
  2038a7:	01012503          	lw	a0,16(sp)
  2038ab:	00000097          	auipc	ra,0x0
  2038af:	724080e7          	jalr	1828(ra) # 203fcf <_binary_shell_bin_start+0xc5c>
  2038b3:	04c10a13          	addi	s4,sp,76
  2038b7:	c1dff06f          	j	2034d3 <_binary_shell_bin_start+0x160>
  2038bb:	ffe68693          	addi	a3,a3,-2
  2038bf:	03000613          	li	a2,48
  2038c3:	00000513          	li	a0,0
  2038c7:	00168693          	addi	a3,a3,1
  2038cb:	0200006f          	j	2038eb <_binary_shell_bin_start+0x578>
  2038cf:	0ff67793          	zext.b	a5,a2
  2038d3:	0006c603          	lbu	a2,0(a3)
  2038d7:	00f70733          	add	a4,a4,a5
  2038db:	00451513          	slli	a0,a0,0x4
  2038df:	00a76533          	or	a0,a4,a0
  2038e3:	00168693          	addi	a3,a3,1
  2038e7:	02060c63          	beqz	a2,20391f <_binary_shell_bin_start+0x5ac>
  2038eb:	fd060713          	addi	a4,a2,-48
  2038ef:	0ff77793          	zext.b	a5,a4
  2038f3:	fd000713          	li	a4,-48
  2038f7:	fd67ece3          	bltu	a5,s6,2038cf <_binary_shell_bin_start+0x55c>
  2038fb:	f9f60713          	addi	a4,a2,-97
  2038ff:	0ff77793          	zext.b	a5,a4
  203903:	fa900713          	li	a4,-87
  203907:	00600813          	li	a6,6
  20390b:	fd07e2e3          	bltu	a5,a6,2038cf <_binary_shell_bin_start+0x55c>
  20390f:	fbf60713          	addi	a4,a2,-65
  203913:	0ff77793          	zext.b	a5,a4
  203917:	fc900713          	li	a4,-55
  20391b:	faf8fae3          	bgeu	a7,a5,2038cf <_binary_shell_bin_start+0x55c>
  20391f:	00200613          	li	a2,2
  203923:	0cc48263          	beq	s1,a2,2039e7 <_binary_shell_bin_start+0x674>
  203927:	05412683          	lw	a3,84(sp)
  20392b:	00268693          	addi	a3,a3,2
  20392f:	0080006f          	j	203937 <_binary_shell_bin_start+0x5c4>
  203933:	00168693          	addi	a3,a3,1
  203937:	ffe6c603          	lbu	a2,-2(a3)
  20393b:	ff760ce3          	beq	a2,s7,203933 <_binary_shell_bin_start+0x5c0>
  20393f:	ffb60ae3          	beq	a2,s11,203933 <_binary_shell_bin_start+0x5c0>
  203943:	03000713          	li	a4,48
  203947:	02e61063          	bne	a2,a4,203967 <_binary_shell_bin_start+0x5f4>
  20394b:	fff6c603          	lbu	a2,-1(a3)
  20394f:	02066613          	ori	a2,a2,32
  203953:	07800713          	li	a4,120
  203957:	02e61663          	bne	a2,a4,203983 <_binary_shell_bin_start+0x610>
  20395b:	0006c603          	lbu	a2,0(a3)
  20395f:	02061663          	bnez	a2,20398b <_binary_shell_bin_start+0x618>
  203963:	0840006f          	j	2039e7 <_binary_shell_bin_start+0x674>
  203967:	ffe68693          	addi	a3,a3,-2
  20396b:	02061063          	bnez	a2,20398b <_binary_shell_bin_start+0x618>
  20396f:	0780006f          	j	2039e7 <_binary_shell_bin_start+0x674>
  203973:	00c12503          	lw	a0,12(sp)
  203977:	00000097          	auipc	ra,0x0
  20397b:	658080e7          	jalr	1624(ra) # 203fcf <_binary_shell_bin_start+0xc5c>
  20397f:	b55ff06f          	j	2034d3 <_binary_shell_bin_start+0x160>
  203983:	ffe68693          	addi	a3,a3,-2
  203987:	03000613          	li	a2,48
  20398b:	00000593          	li	a1,0
  20398f:	00168693          	addi	a3,a3,1
  203993:	0200006f          	j	2039b3 <_binary_shell_bin_start+0x640>
  203997:	0ff67793          	zext.b	a5,a2
  20399b:	0006c603          	lbu	a2,0(a3)
  20399f:	00f70733          	add	a4,a4,a5
  2039a3:	00459593          	slli	a1,a1,0x4
  2039a7:	00b765b3          	or	a1,a4,a1
  2039ab:	00168693          	addi	a3,a3,1
  2039af:	02060c63          	beqz	a2,2039e7 <_binary_shell_bin_start+0x674>
  2039b3:	fd060713          	addi	a4,a2,-48
  2039b7:	0ff77793          	zext.b	a5,a4
  2039bb:	fd000713          	li	a4,-48
  2039bf:	fd67ece3          	bltu	a5,s6,203997 <_binary_shell_bin_start+0x624>
  2039c3:	f9f60713          	addi	a4,a2,-97
  2039c7:	0ff77793          	zext.b	a5,a4
  2039cb:	fa900713          	li	a4,-87
  2039cf:	00600813          	li	a6,6
  2039d3:	fd07e2e3          	bltu	a5,a6,203997 <_binary_shell_bin_start+0x624>
  2039d7:	fbf60713          	addi	a4,a2,-65
  2039db:	0ff77793          	zext.b	a5,a4
  2039df:	fc900713          	li	a4,-55
  2039e3:	faf8fae3          	bgeu	a7,a5,203997 <_binary_shell_bin_start+0x624>
  2039e7:	00000097          	auipc	ra,0x0
  2039eb:	568080e7          	jalr	1384(ra) # 203f4f <_binary_shell_bin_start+0xbdc>
  2039ef:	ae5ff06f          	j	2034d3 <_binary_shell_bin_start+0x160>
  2039f3:	00000097          	auipc	ra,0x0
  2039f7:	190080e7          	jalr	400(ra) # 203b83 <_binary_shell_bin_start+0x810>
  2039fb:	00250613          	addi	a2,a0,2 # 200002 <boot+0x2>
  2039ff:	00900693          	li	a3,9
  203a03:	02000713          	li	a4,32
  203a07:	0080006f          	j	203a0f <_binary_shell_bin_start+0x69c>
  203a0b:	00160613          	addi	a2,a2,1
  203a0f:	ffe64503          	lbu	a0,-2(a2)
  203a13:	fed50ce3          	beq	a0,a3,203a0b <_binary_shell_bin_start+0x698>
  203a17:	fee50ae3          	beq	a0,a4,203a0b <_binary_shell_bin_start+0x698>
  203a1b:	03000693          	li	a3,48
  203a1f:	02d51063          	bne	a0,a3,203a3f <_binary_shell_bin_start+0x6cc>
  203a23:	fff64503          	lbu	a0,-1(a2)
  203a27:	02056513          	ori	a0,a0,32
  203a2b:	07800693          	li	a3,120
  203a2f:	02d51063          	bne	a0,a3,203a4f <_binary_shell_bin_start+0x6dc>
  203a33:	00064503          	lbu	a0,0(a2)
  203a37:	02051063          	bnez	a0,203a57 <_binary_shell_bin_start+0x6e4>
  203a3b:	00c0006f          	j	203a47 <_binary_shell_bin_start+0x6d4>
  203a3f:	ffe60613          	addi	a2,a2,-2
  203a43:	00051a63          	bnez	a0,203a57 <_binary_shell_bin_start+0x6e4>
  203a47:	fff00513          	li	a0,-1
  203a4b:	00008067          	ret
  203a4f:	ffe60613          	addi	a2,a2,-2
  203a53:	03000513          	li	a0,48
  203a57:	00000693          	li	a3,0
  203a5b:	00160613          	addi	a2,a2,1
  203a5f:	00a00713          	li	a4,10
  203a63:	00600793          	li	a5,6
  203a67:	00500813          	li	a6,5
  203a6b:	0200006f          	j	203a8b <_binary_shell_bin_start+0x718>
  203a6f:	0ff57293          	zext.b	t0,a0
  203a73:	00064503          	lbu	a0,0(a2)
  203a77:	005888b3          	add	a7,a7,t0
  203a7b:	00469693          	slli	a3,a3,0x4
  203a7f:	00d8e6b3          	or	a3,a7,a3
  203a83:	00160613          	addi	a2,a2,1
  203a87:	02050a63          	beqz	a0,203abb <_binary_shell_bin_start+0x748>
  203a8b:	fd050893          	addi	a7,a0,-48
  203a8f:	0ff8f293          	zext.b	t0,a7
  203a93:	fd000893          	li	a7,-48
  203a97:	fce2ece3          	bltu	t0,a4,203a6f <_binary_shell_bin_start+0x6fc>
  203a9b:	f9f50893          	addi	a7,a0,-97
  203a9f:	0ff8f293          	zext.b	t0,a7
  203aa3:	fa900893          	li	a7,-87
  203aa7:	fcf2e4e3          	bltu	t0,a5,203a6f <_binary_shell_bin_start+0x6fc>
  203aab:	fbf50893          	addi	a7,a0,-65
  203aaf:	0ff8f293          	zext.b	t0,a7
  203ab3:	fc900893          	li	a7,-55
  203ab7:	fa587ce3          	bgeu	a6,t0,203a6f <_binary_shell_bin_start+0x6fc>
  203abb:	00000513          	li	a0,0
  203abf:	00d5a023          	sw	a3,0(a1)
  203ac3:	00008067          	ret
  203ac7:	fe010113          	addi	sp,sp,-32
  203acb:	00112e23          	sw	ra,28(sp)
  203acf:	00812c23          	sw	s0,24(sp)
  203ad3:	00912a23          	sw	s1,20(sp)
  203ad7:	01212823          	sw	s2,16(sp)
  203adb:	01312623          	sw	s3,12(sp)
  203adf:	00200913          	li	s2,2
  203ae3:	00050413          	mv	s0,a0
  203ae7:	00000493          	li	s1,0
  203aeb:	07256463          	bltu	a0,s2,203b53 <_binary_shell_bin_start+0x7e0>
  203aef:	00401537          	lui	a0,0x401
  203af3:	33250993          	addi	s3,a0,818 # 401332 <__free_ram_end+0xab332>
  203af7:	00c0006f          	j	203b03 <_binary_shell_bin_start+0x790>
  203afb:	00190913          	addi	s2,s2,1
  203aff:	05246063          	bltu	s0,s2,203b3f <_binary_shell_bin_start+0x7cc>
  203b03:	00090513          	mv	a0,s2
  203b07:	00001097          	auipc	ra,0x1
  203b0b:	8c0080e7          	jalr	-1856(ra) # 2043c7 <_binary_shell_bin_start+0x1054>
  203b0f:	fe0506e3          	beqz	a0,203afb <_binary_shell_bin_start+0x788>
  203b13:	00098513          	mv	a0,s3
  203b17:	00090593          	mv	a1,s2
  203b1b:	00000097          	auipc	ra,0x0
  203b1f:	4b4080e7          	jalr	1204(ra) # 203fcf <_binary_shell_bin_start+0xc5c>
  203b23:	00148493          	addi	s1,s1,1
  203b27:	0074f513          	andi	a0,s1,7
  203b2b:	fc0518e3          	bnez	a0,203afb <_binary_shell_bin_start+0x788>
  203b2f:	00a00513          	li	a0,10
  203b33:	00000097          	auipc	ra,0x0
  203b37:	3e8080e7          	jalr	1000(ra) # 203f1b <_binary_shell_bin_start+0xba8>
  203b3b:	fc1ff06f          	j	203afb <_binary_shell_bin_start+0x788>
  203b3f:	0074f513          	andi	a0,s1,7
  203b43:	00050863          	beqz	a0,203b53 <_binary_shell_bin_start+0x7e0>
  203b47:	00a00513          	li	a0,10
  203b4b:	00000097          	auipc	ra,0x0
  203b4f:	3d0080e7          	jalr	976(ra) # 203f1b <_binary_shell_bin_start+0xba8>
  203b53:	00401537          	lui	a0,0x401
  203b57:	2e450513          	addi	a0,a0,740 # 4012e4 <__free_ram_end+0xab2e4>
  203b5b:	00048593          	mv	a1,s1
  203b5f:	00040613          	mv	a2,s0
  203b63:	01c12083          	lw	ra,28(sp)
  203b67:	01812403          	lw	s0,24(sp)
  203b6b:	01412483          	lw	s1,20(sp)
  203b6f:	01012903          	lw	s2,16(sp)
  203b73:	00c12983          	lw	s3,12(sp)
  203b77:	02010113          	addi	sp,sp,32
  203b7b:	00000317          	auipc	t1,0x0
  203b7f:	45430067          	jr	1108(t1) # 203fcf <_binary_shell_bin_start+0xc5c>
  203b83:	00800693          	li	a3,8
  203b87:	00000593          	li	a1,0
  203b8b:	00000613          	li	a2,0
  203b8f:	00000513          	li	a0,0
  203b93:	00000073          	ecall
  203b97:	0000006f          	j	203b97 <_binary_shell_bin_start+0x824>
  203b9b:	c8010113          	addi	sp,sp,-896
  203b9f:	36112e23          	sw	ra,892(sp)
  203ba3:	36812c23          	sw	s0,888(sp)
  203ba7:	36912a23          	sw	s1,884(sp)
  203bab:	37212823          	sw	s2,880(sp)
  203baf:	37312623          	sw	s3,876(sp)
  203bb3:	37412423          	sw	s4,872(sp)
  203bb7:	37512223          	sw	s5,868(sp)
  203bbb:	00050413          	mv	s0,a0
  203bbf:	14050463          	beqz	a0,203d07 <_binary_shell_bin_start+0x994>
  203bc3:	00000913          	li	s2,0
  203bc7:	00000493          	li	s1,0
  203bcb:	2d410993          	addi	s3,sp,724
  203bcf:	24410a13          	addi	s4,sp,580
  203bd3:	2d410a93          	addi	s5,sp,724
  203bd7:	00c00593          	li	a1,12
  203bdb:	00048513          	mv	a0,s1
  203bdf:	00001097          	auipc	ra,0x1
  203be3:	880080e7          	jalr	-1920(ra) # 20445f <_binary_shell_bin_start+0x10ec>
  203be7:	00a40533          	add	a0,s0,a0
  203beb:	00a98533          	add	a0,s3,a0
  203bef:	000a0593          	mv	a1,s4
  203bf3:	000a8613          	mv	a2,s5
  203bf7:	00048693          	mv	a3,s1
  203bfb:	00090713          	mv	a4,s2
  203bff:	00169793          	slli	a5,a3,0x1
  203c03:	00278793          	addi	a5,a5,2
  203c07:	00f60023          	sb	a5,0(a2)
  203c0b:	00570793          	addi	a5,a4,5
  203c0f:	00f58023          	sb	a5,0(a1)
  203c13:	00170713          	addi	a4,a4,1
  203c17:	00168693          	addi	a3,a3,1
  203c1b:	00160613          	addi	a2,a2,1
  203c1f:	00158593          	addi	a1,a1,1
  203c23:	fca61ee3          	bne	a2,a0,203bff <_binary_shell_bin_start+0x88c>
  203c27:	00148493          	addi	s1,s1,1
  203c2b:	00390913          	addi	s2,s2,3
  203c2f:	00ca8a93          	addi	s5,s5,12
  203c33:	00ca0a13          	addi	s4,s4,12
  203c37:	fa8490e3          	bne	s1,s0,203bd7 <_binary_shell_bin_start+0x864>
  203c3b:	00600513          	li	a0,6
  203c3f:	2ea107a3          	sb	a0,751(sp)
  203c43:	00200513          	li	a0,2
  203c47:	28a101a3          	sb	a0,643(sp)
  203c4b:	2d410913          	addi	s2,sp,724
  203c4f:	24410793          	addi	a5,sp,580
  203c53:	00410813          	addi	a6,sp,4
  203c57:	00300893          	li	a7,3
  203c5b:	00090513          	mv	a0,s2
  203c5f:	00078593          	mv	a1,a5
  203c63:	00080613          	mv	a2,a6
  203c67:	00088693          	mv	a3,a7
  203c6b:	00040713          	mv	a4,s0
  203c6f:	00000073          	ecall
  203c73:	00050793          	mv	a5,a0
  203c77:	04100593          	li	a1,65
  203c7b:	00058513          	mv	a0,a1
  203c7f:	00100693          	li	a3,1
  203c83:	00000073          	ecall
  203c87:	00a00593          	li	a1,10
  203c8b:	00058513          	mv	a0,a1
  203c8f:	00100693          	li	a3,1
  203c93:	00000073          	ecall
  203c97:	18040e63          	beqz	s0,203e33 <_binary_shell_bin_start+0xac0>
  203c9b:	00000493          	li	s1,0
  203c9f:	02000993          	li	s3,32
  203ca3:	00a00a13          	li	s4,10
  203ca7:	2d410a93          	addi	s5,sp,724
  203cab:	00c00593          	li	a1,12
  203caf:	00048513          	mv	a0,s1
  203cb3:	00000097          	auipc	ra,0x0
  203cb7:	7ac080e7          	jalr	1964(ra) # 20445f <_binary_shell_bin_start+0x10ec>
  203cbb:	00a40533          	add	a0,s0,a0
  203cbf:	00a905b3          	add	a1,s2,a0
  203cc3:	000a8613          	mv	a2,s5
  203cc7:	00064703          	lbu	a4,0(a2)
  203ccb:	00070513          	mv	a0,a4
  203ccf:	00a00693          	li	a3,10
  203cd3:	00000073          	ecall
  203cd7:	00098513          	mv	a0,s3
  203cdb:	00100693          	li	a3,1
  203cdf:	00000073          	ecall
  203ce3:	00160613          	addi	a2,a2,1
  203ce7:	feb610e3          	bne	a2,a1,203cc7 <_binary_shell_bin_start+0x954>
  203ceb:	000a0513          	mv	a0,s4
  203cef:	00100693          	li	a3,1
  203cf3:	00000073          	ecall
  203cf7:	00148493          	addi	s1,s1,1
  203cfb:	00ca8a93          	addi	s5,s5,12
  203cff:	fa8496e3          	bne	s1,s0,203cab <_binary_shell_bin_start+0x938>
  203d03:	0600006f          	j	203d63 <_binary_shell_bin_start+0x9f0>
  203d07:	00600513          	li	a0,6
  203d0b:	2ea107a3          	sb	a0,751(sp)
  203d0f:	00200513          	li	a0,2
  203d13:	28a101a3          	sb	a0,643(sp)
  203d17:	2d410793          	addi	a5,sp,724
  203d1b:	24410813          	addi	a6,sp,580
  203d1f:	00410893          	addi	a7,sp,4
  203d23:	00300293          	li	t0,3
  203d27:	00078513          	mv	a0,a5
  203d2b:	00080593          	mv	a1,a6
  203d2f:	00088613          	mv	a2,a7
  203d33:	00028693          	mv	a3,t0
  203d37:	00040713          	mv	a4,s0
  203d3b:	00000073          	ecall
  203d3f:	00050793          	mv	a5,a0
  203d43:	04100593          	li	a1,65
  203d47:	00058513          	mv	a0,a1
  203d4b:	00100693          	li	a3,1
  203d4f:	00000073          	ecall
  203d53:	00a00593          	li	a1,10
  203d57:	00058513          	mv	a0,a1
  203d5b:	00100693          	li	a3,1
  203d5f:	00000073          	ecall
  203d63:	00a00593          	li	a1,10
  203d67:	00058513          	mv	a0,a1
  203d6b:	00100693          	li	a3,1
  203d6f:	00000073          	ecall
  203d73:	04200613          	li	a2,66
  203d77:	00060513          	mv	a0,a2
  203d7b:	00100693          	li	a3,1
  203d7f:	00000073          	ecall
  203d83:	00058513          	mv	a0,a1
  203d87:	00100693          	li	a3,1
  203d8b:	00000073          	ecall
  203d8f:	06040a63          	beqz	s0,203e03 <_binary_shell_bin_start+0xa90>
  203d93:	00000493          	li	s1,0
  203d97:	24410913          	addi	s2,sp,580
  203d9b:	02000993          	li	s3,32
  203d9f:	00a00a13          	li	s4,10
  203da3:	24410a93          	addi	s5,sp,580
  203da7:	00c00593          	li	a1,12
  203dab:	00048513          	mv	a0,s1
  203daf:	00000097          	auipc	ra,0x0
  203db3:	6b0080e7          	jalr	1712(ra) # 20445f <_binary_shell_bin_start+0x10ec>
  203db7:	00a40533          	add	a0,s0,a0
  203dbb:	00a905b3          	add	a1,s2,a0
  203dbf:	000a8613          	mv	a2,s5
  203dc3:	00064703          	lbu	a4,0(a2)
  203dc7:	00070513          	mv	a0,a4
  203dcb:	00a00693          	li	a3,10
  203dcf:	00000073          	ecall
  203dd3:	00098513          	mv	a0,s3
  203dd7:	00100693          	li	a3,1
  203ddb:	00000073          	ecall
  203ddf:	00160613          	addi	a2,a2,1
  203de3:	feb610e3          	bne	a2,a1,203dc3 <_binary_shell_bin_start+0xa50>
  203de7:	000a0513          	mv	a0,s4
  203deb:	00100693          	li	a3,1
  203def:	00000073          	ecall
  203df3:	00148493          	addi	s1,s1,1
  203df7:	00ca8a93          	addi	s5,s5,12
  203dfb:	fa8496e3          	bne	s1,s0,203da7 <_binary_shell_bin_start+0xa34>
  203dff:	0600006f          	j	203e5f <_binary_shell_bin_start+0xaec>
  203e03:	00a00593          	li	a1,10
  203e07:	00058513          	mv	a0,a1
  203e0b:	00100693          	li	a3,1
  203e0f:	00000073          	ecall
  203e13:	04300613          	li	a2,67
  203e17:	00060513          	mv	a0,a2
  203e1b:	00100693          	li	a3,1
  203e1f:	00000073          	ecall
  203e23:	00058513          	mv	a0,a1
  203e27:	00100693          	li	a3,1
  203e2b:	00000073          	ecall
  203e2f:	0b80006f          	j	203ee7 <_binary_shell_bin_start+0xb74>
  203e33:	00a00593          	li	a1,10
  203e37:	00058513          	mv	a0,a1
  203e3b:	00100693          	li	a3,1
  203e3f:	00000073          	ecall
  203e43:	04200613          	li	a2,66
  203e47:	00060513          	mv	a0,a2
  203e4b:	00100693          	li	a3,1
  203e4f:	00000073          	ecall
  203e53:	00058513          	mv	a0,a1
  203e57:	00100693          	li	a3,1
  203e5b:	00000073          	ecall
  203e5f:	00a00593          	li	a1,10
  203e63:	00058513          	mv	a0,a1
  203e67:	00100693          	li	a3,1
  203e6b:	00000073          	ecall
  203e6f:	04300613          	li	a2,67
  203e73:	00060513          	mv	a0,a2
  203e77:	00100693          	li	a3,1
  203e7b:	00000073          	ecall
  203e7f:	00058513          	mv	a0,a1
  203e83:	00100693          	li	a3,1
  203e87:	00000073          	ecall
  203e8b:	04040e63          	beqz	s0,203ee7 <_binary_shell_bin_start+0xb74>
  203e8f:	00000593          	li	a1,0
  203e93:	00410613          	addi	a2,sp,4
  203e97:	02000713          	li	a4,32
  203e9b:	00a00793          	li	a5,10
  203e9f:	00060813          	mv	a6,a2
  203ea3:	00040893          	mv	a7,s0
  203ea7:	00082283          	lw	t0,0(a6) # 41393000 <__free_ram_end+0x4103d000>
  203eab:	00028513          	mv	a0,t0
  203eaf:	00a00693          	li	a3,10
  203eb3:	00000073          	ecall
  203eb7:	00070513          	mv	a0,a4
  203ebb:	00100693          	li	a3,1
  203ebf:	00000073          	ecall
  203ec3:	fff88893          	addi	a7,a7,-1
  203ec7:	00480813          	addi	a6,a6,4
  203ecb:	fc089ee3          	bnez	a7,203ea7 <_binary_shell_bin_start+0xb34>
  203ecf:	00078513          	mv	a0,a5
  203ed3:	00100693          	li	a3,1
  203ed7:	00000073          	ecall
  203edb:	00158593          	addi	a1,a1,1
  203edf:	03060613          	addi	a2,a2,48
  203ee3:	fa859ee3          	bne	a1,s0,203e9f <_binary_shell_bin_start+0xb2c>
  203ee7:	00a00593          	li	a1,10
  203eeb:	00058513          	mv	a0,a1
  203eef:	00100693          	li	a3,1
  203ef3:	00000073          	ecall
  203ef7:	37c12083          	lw	ra,892(sp)
  203efb:	37812403          	lw	s0,888(sp)
  203eff:	37412483          	lw	s1,884(sp)
  203f03:	37012903          	lw	s2,880(sp)
  203f07:	36c12983          	lw	s3,876(sp)
  203f0b:	36812a03          	lw	s4,872(sp)
  203f0f:	36412a83          	lw	s5,868(sp)
  203f13:	38010113          	addi	sp,sp,896
  203f17:	00008067          	ret
  203f1b:	00050593          	mv	a1,a0
  203f1f:	00058513          	mv	a0,a1
  203f23:	00100693          	li	a3,1
  203f27:	00000073          	ecall
  203f2b:	00008067          	ret
  203f2f:	00050593          	mv	a1,a0
  203f33:	00058513          	mv	a0,a1
  203f37:	00a00693          	li	a3,10
  203f3b:	00000073          	ecall
  203f3f:	00008067          	ret
  203f43:	00400693          	li	a3,4
  203f47:	00000073          	ecall
  203f4b:	00008067          	ret
  203f4f:	00500693          	li	a3,5
  203f53:	00000073          	ecall
  203f57:	00008067          	ret
  203f5b:	0005c603          	lbu	a2,0(a1)
  203f5f:	00050693          	mv	a3,a0
  203f63:	02060263          	beqz	a2,203f87 <_binary_shell_bin_start+0xc14>
  203f67:	00158593          	addi	a1,a1,1
  203f6b:	00050713          	mv	a4,a0
  203f6f:	00c70023          	sb	a2,0(a4)
  203f73:	0005c603          	lbu	a2,0(a1)
  203f77:	00170693          	addi	a3,a4,1
  203f7b:	00158593          	addi	a1,a1,1
  203f7f:	00068713          	mv	a4,a3
  203f83:	fe0616e3          	bnez	a2,203f6f <_binary_shell_bin_start+0xbfc>
  203f87:	00068023          	sb	zero,0(a3)
  203f8b:	00008067          	ret
  203f8f:	00054603          	lbu	a2,0(a0)
  203f93:	02060663          	beqz	a2,203fbf <_binary_shell_bin_start+0xc4c>
  203f97:	00150513          	addi	a0,a0,1
  203f9b:	0005c683          	lbu	a3,0(a1)
  203f9f:	0ff67713          	zext.b	a4,a2
  203fa3:	00d71a63          	bne	a4,a3,203fb7 <_binary_shell_bin_start+0xc44>
  203fa7:	00054603          	lbu	a2,0(a0)
  203fab:	00158593          	addi	a1,a1,1
  203faf:	00150513          	addi	a0,a0,1
  203fb3:	fe0614e3          	bnez	a2,203f9b <_binary_shell_bin_start+0xc28>
  203fb7:	0ff67513          	zext.b	a0,a2
  203fbb:	0080006f          	j	203fc3 <_binary_shell_bin_start+0xc50>
  203fbf:	00000513          	li	a0,0
  203fc3:	0005c583          	lbu	a1,0(a1)
  203fc7:	40b50533          	sub	a0,a0,a1
  203fcb:	00008067          	ret
  203fcf:	f9010113          	addi	sp,sp,-112
  203fd3:	04112623          	sw	ra,76(sp)
  203fd7:	04812423          	sw	s0,72(sp)
  203fdb:	04912223          	sw	s1,68(sp)
  203fdf:	05212023          	sw	s2,64(sp)
  203fe3:	03312e23          	sw	s3,60(sp)
  203fe7:	03412c23          	sw	s4,56(sp)
  203feb:	03512a23          	sw	s5,52(sp)
  203fef:	03612823          	sw	s6,48(sp)
  203ff3:	03712623          	sw	s7,44(sp)
  203ff7:	03812423          	sw	s8,40(sp)
  203ffb:	03912223          	sw	s9,36(sp)
  203fff:	03a12023          	sw	s10,32(sp)
  204003:	01b12e23          	sw	s11,28(sp)
  204007:	00050a93          	mv	s5,a0
  20400b:	07112623          	sw	a7,108(sp)
  20400f:	07012423          	sw	a6,104(sp)
  204013:	06f12223          	sw	a5,100(sp)
  204017:	06e12023          	sw	a4,96(sp)
  20401b:	04d12e23          	sw	a3,92(sp)
  20401f:	04c12c23          	sw	a2,88(sp)
  204023:	04b12a23          	sw	a1,84(sp)
  204027:	05410513          	addi	a0,sp,84
  20402b:	00a12c23          	sw	a0,24(sp)
  20402f:	02500913          	li	s2,37
  204033:	07200993          	li	s3,114
  204037:	06400713          	li	a4,100
  20403b:	00d10b13          	addi	s6,sp,13
  20403f:	00900b93          	li	s7,9
  204043:	00100c13          	li	s8,1
  204047:	07300d13          	li	s10,115
  20404b:	07800d93          	li	s11,120
  20404f:	00401537          	lui	a0,0x401
  204053:	33650c93          	addi	s9,a0,822 # 401336 <__free_ram_end+0xab336>
  204057:	00c0006f          	j	204063 <_binary_shell_bin_start+0xcf0>
  20405b:	22050863          	beqz	a0,20428b <_binary_shell_bin_start+0xf18>
  20405f:	001a8a93          	addi	s5,s5,1
  204063:	000ac583          	lbu	a1,0(s5)
  204067:	01258e63          	beq	a1,s2,204083 <_binary_shell_bin_start+0xd10>
  20406b:	22058863          	beqz	a1,20429b <_binary_shell_bin_start+0xf28>
  20406f:	00058513          	mv	a0,a1
  204073:	00100693          	li	a3,1
  204077:	00000073          	ecall
  20407b:	001a8a93          	addi	s5,s5,1
  20407f:	fe5ff06f          	j	204063 <_binary_shell_bin_start+0xcf0>
  204083:	001ac503          	lbu	a0,1(s5)
  204087:	001a8a93          	addi	s5,s5,1
  20408b:	02a9ce63          	blt	s3,a0,2040c7 <_binary_shell_bin_start+0xd54>
  20408f:	13250863          	beq	a0,s2,2041bf <_binary_shell_bin_start+0xe4c>
  204093:	fce514e3          	bne	a0,a4,20405b <_binary_shell_bin_start+0xce8>
  204097:	01812503          	lw	a0,24(sp)
  20409b:	00450593          	addi	a1,a0,4
  20409f:	00b12c23          	sw	a1,24(sp)
  2040a3:	00052403          	lw	s0,0(a0)
  2040a7:	16044263          	bltz	s0,20420b <_binary_shell_bin_start+0xe98>
  2040ab:	16041a63          	bnez	s0,20421f <_binary_shell_bin_start+0xeac>
  2040af:	03000593          	li	a1,48
  2040b3:	00058513          	mv	a0,a1
  2040b7:	00100693          	li	a3,1
  2040bb:	00000073          	ecall
  2040bf:	001a8a93          	addi	s5,s5,1
  2040c3:	fa1ff06f          	j	204063 <_binary_shell_bin_start+0xcf0>
  2040c7:	11a50663          	beq	a0,s10,2041d3 <_binary_shell_bin_start+0xe60>
  2040cb:	f9b51ae3          	bne	a0,s11,20405f <_binary_shell_bin_start+0xcec>
  2040cf:	01812503          	lw	a0,24(sp)
  2040d3:	00450593          	addi	a1,a0,4
  2040d7:	00b12c23          	sw	a1,24(sp)
  2040db:	00052583          	lw	a1,0(a0)
  2040df:	01c5d513          	srli	a0,a1,0x1c
  2040e3:	00ac8533          	add	a0,s9,a0
  2040e7:	00054603          	lbu	a2,0(a0)
  2040eb:	00060513          	mv	a0,a2
  2040ef:	00100693          	li	a3,1
  2040f3:	00000073          	ecall
  2040f7:	00459513          	slli	a0,a1,0x4
  2040fb:	01c55513          	srli	a0,a0,0x1c
  2040ff:	00ac8533          	add	a0,s9,a0
  204103:	00054603          	lbu	a2,0(a0)
  204107:	00060513          	mv	a0,a2
  20410b:	00100693          	li	a3,1
  20410f:	00000073          	ecall
  204113:	00859513          	slli	a0,a1,0x8
  204117:	01c55513          	srli	a0,a0,0x1c
  20411b:	00ac8533          	add	a0,s9,a0
  20411f:	00054603          	lbu	a2,0(a0)
  204123:	00060513          	mv	a0,a2
  204127:	00100693          	li	a3,1
  20412b:	00000073          	ecall
  20412f:	00c59513          	slli	a0,a1,0xc
  204133:	01c55513          	srli	a0,a0,0x1c
  204137:	00ac8533          	add	a0,s9,a0
  20413b:	00054603          	lbu	a2,0(a0)
  20413f:	00060513          	mv	a0,a2
  204143:	00100693          	li	a3,1
  204147:	00000073          	ecall
  20414b:	01059513          	slli	a0,a1,0x10
  20414f:	01c55513          	srli	a0,a0,0x1c
  204153:	00ac8533          	add	a0,s9,a0
  204157:	00054603          	lbu	a2,0(a0)
  20415b:	00060513          	mv	a0,a2
  20415f:	00100693          	li	a3,1
  204163:	00000073          	ecall
  204167:	01459513          	slli	a0,a1,0x14
  20416b:	01c55513          	srli	a0,a0,0x1c
  20416f:	00ac8533          	add	a0,s9,a0
  204173:	00054603          	lbu	a2,0(a0)
  204177:	00060513          	mv	a0,a2
  20417b:	00100693          	li	a3,1
  20417f:	00000073          	ecall
  204183:	01859513          	slli	a0,a1,0x18
