
./build/shell.elf:     ファイル形式 elf32-littleriscv


セクション .text の逆アセンブル:

00400000 <start>:

/* ===== エントリ ===== */
__attribute__((section(".text.start")))
__attribute__((naked))
void start(void) {
    __asm__ __volatile__(
  400000:	00423537          	lui	a0,0x423
  400004:	65050513          	addi	a0,a0,1616 # 423650 <__user_stack_top>
  400008:	00050113          	mv	sp,a0
  40000c:	00000097          	auipc	ra,0x0
  400010:	010080e7          	jalr	16(ra) # 40001c <main>
  400014:	00001097          	auipc	ra,0x1
  400018:	b20080e7          	jalr	-1248(ra) # 400b34 <exit>

0040001c <main>:
// shell.c
#include "user.h"
#include "fat32.h"

void main(void) {
  40001c:	ef010113          	addi	sp,sp,-272
  400020:	10112623          	sw	ra,268(sp)
  400024:	10812423          	sw	s0,264(sp)
  400028:	10912223          	sw	s1,260(sp)
  40002c:	11212023          	sw	s2,256(sp)
  400030:	0f312e23          	sw	s3,252(sp)
  400034:	0f412c23          	sw	s4,248(sp)
  400038:	0f512a23          	sw	s5,244(sp)
  40003c:	0f612823          	sw	s6,240(sp)
  400040:	0f712623          	sw	s7,236(sp)
  400044:	0f812423          	sw	s8,232(sp)
  400048:	0f912223          	sw	s9,228(sp)
  40004c:	0fa12023          	sw	s10,224(sp)
  400050:	0db12e23          	sw	s11,220(sp)

    // DUMP API call
    //call_dump_api();


    printf("shell start.\n");
  400054:	00402537          	lui	a0,0x402
  400058:	35650513          	addi	a0,a0,854 # 402356 <$d.1>
  40005c:	00001097          	auipc	ra,0x1
  400060:	f2c080e7          	jalr	-212(ra) # 400f88 <printf>
  400064:	00000d13          	li	s10,0
  400068:	00402537          	lui	a0,0x402
  40006c:	29750413          	addi	s0,a0,663 # 402297 <__modsi3+0x1c7>
  400070:	00402537          	lui	a0,0x402
  400074:	16750493          	addi	s1,a0,359 # 402167 <__modsi3+0x97>
  400078:	00402537          	lui	a0,0x402
  40007c:	29150513          	addi	a0,a0,657 # 402291 <__modsi3+0x1c1>
  400080:	08a12c23          	sw	a0,152(sp)
  400084:	00402537          	lui	a0,0x402
  400088:	20c50513          	addi	a0,a0,524 # 40220c <__modsi3+0x13c>
  40008c:	08a12623          	sw	a0,140(sp)
  400090:	00402537          	lui	a0,0x402
  400094:	36450513          	addi	a0,a0,868 # 402364 <$d.1+0xe>
  400098:	08a12a23          	sw	a0,148(sp)
  40009c:	00402537          	lui	a0,0x402
  4000a0:	23050513          	addi	a0,a0,560 # 402230 <__modsi3+0x160>
  4000a4:	08a12823          	sw	a0,144(sp)
  4000a8:	00402537          	lui	a0,0x402
  4000ac:	3d350513          	addi	a0,a0,979 # 4023d3 <$d.1+0x7d>
  4000b0:	06a12e23          	sw	a0,124(sp)
  4000b4:	00018537          	lui	a0,0x18
  4000b8:	6a050513          	addi	a0,a0,1696 # 186a0 <$d.5+0x16eaf>
  4000bc:	06a12c23          	sw	a0,120(sp)
  4000c0:	00402537          	lui	a0,0x402
  4000c4:	20250513          	addi	a0,a0,514 # 402202 <__modsi3+0x132>
  4000c8:	08a12423          	sw	a0,136(sp)
  4000cc:	00402537          	lui	a0,0x402
  4000d0:	26650513          	addi	a0,a0,614 # 402266 <__modsi3+0x196>
  4000d4:	08a12223          	sw	a0,132(sp)
  4000d8:	00402537          	lui	a0,0x402
  4000dc:	2a450513          	addi	a0,a0,676 # 4022a4 <__modsi3+0x1d4>
  4000e0:	06a12623          	sw	a0,108(sp)
  4000e4:	00402537          	lui	a0,0x402
  4000e8:	31a50513          	addi	a0,a0,794 # 40231a <__modsi3+0x24a>
  4000ec:	08a12023          	sw	a0,128(sp)
  4000f0:	00402537          	lui	a0,0x402
  4000f4:	2fa50513          	addi	a0,a0,762 # 4022fa <__modsi3+0x22a>
  4000f8:	06a12423          	sw	a0,104(sp)
  4000fc:	00402537          	lui	a0,0x402
  400100:	2c050513          	addi	a0,a0,704 # 4022c0 <__modsi3+0x1f0>
  400104:	06a12a23          	sw	a0,116(sp)
  400108:	00402537          	lui	a0,0x402
  40010c:	36950513          	addi	a0,a0,873 # 402369 <$d.1+0x13>
  400110:	06a12023          	sw	a0,96(sp)
  400114:	00402537          	lui	a0,0x402
  400118:	1d650513          	addi	a0,a0,470 # 4021d6 <__modsi3+0x106>
  40011c:	06a12823          	sw	a0,112(sp)
  400120:	00402537          	lui	a0,0x402
  400124:	3ba50513          	addi	a0,a0,954 # 4023ba <$d.1+0x64>
  400128:	04a12c23          	sw	a0,88(sp)
  40012c:	00402537          	lui	a0,0x402
  400130:	1de50513          	addi	a0,a0,478 # 4021de <__modsi3+0x10e>
  400134:	06a12223          	sw	a0,100(sp)
  400138:	00402537          	lui	a0,0x402
  40013c:	40250513          	addi	a0,a0,1026 # 402402 <$d.1+0x10>
  400140:	04a12823          	sw	a0,80(sp)
  400144:	00402537          	lui	a0,0x402
  400148:	1ae50513          	addi	a0,a0,430 # 4021ae <__modsi3+0xde>
  40014c:	04a12423          	sw	a0,72(sp)
  400150:	00402537          	lui	a0,0x402
  400154:	26f50513          	addi	a0,a0,623 # 40226f <__modsi3+0x19f>
  400158:	04a12e23          	sw	a0,92(sp)
  40015c:	00402537          	lui	a0,0x402
  400160:	2ca50513          	addi	a0,a0,714 # 4022ca <__modsi3+0x1fa>
  400164:	04a12223          	sw	a0,68(sp)
  400168:	00402537          	lui	a0,0x402
  40016c:	41c50513          	addi	a0,a0,1052 # 40241c <$d.1+0x2a>
  400170:	02a12a23          	sw	a0,52(sp)
  400174:	00402537          	lui	a0,0x402
  400178:	34350513          	addi	a0,a0,835 # 402343 <$d.2+0x8>
  40017c:	02a12823          	sw	a0,48(sp)
  400180:	00402537          	lui	a0,0x402
  400184:	38350513          	addi	a0,a0,899 # 402383 <$d.1+0x2d>
  400188:	02a12623          	sw	a0,44(sp)
  40018c:	00402537          	lui	a0,0x402
  400190:	39b50513          	addi	a0,a0,923 # 40239b <$d.1+0x45>
  400194:	02a12423          	sw	a0,40(sp)
  400198:	00402537          	lui	a0,0x402
  40019c:	2eb50513          	addi	a0,a0,747 # 4022eb <__modsi3+0x21b>
  4001a0:	02a12223          	sw	a0,36(sp)
  4001a4:	00402537          	lui	a0,0x402
  4001a8:	17450513          	addi	a0,a0,372 # 402174 <__modsi3+0xa4>
  4001ac:	04a12a23          	sw	a0,84(sp)
  4001b0:	00402537          	lui	a0,0x402
  4001b4:	17d50513          	addi	a0,a0,381 # 40217d <__modsi3+0xad>
  4001b8:	04a12623          	sw	a0,76(sp)
  4001bc:	00402537          	lui	a0,0x402
  4001c0:	13050513          	addi	a0,a0,304 # 402130 <__modsi3+0x60>
  4001c4:	02a12c23          	sw	a0,56(sp)
  4001c8:	00402537          	lui	a0,0x402
  4001cc:	38b50513          	addi	a0,a0,907 # 40238b <$d.1+0x35>
  4001d0:	04a12023          	sw	a0,64(sp)
  4001d4:	00402537          	lui	a0,0x402
  4001d8:	1e750513          	addi	a0,a0,487 # 4021e7 <__modsi3+0x117>
  4001dc:	00a12823          	sw	a0,16(sp)
  4001e0:	00402537          	lui	a0,0x402
  4001e4:	18750513          	addi	a0,a0,391 # 402187 <__modsi3+0xb7>
  4001e8:	00a12423          	sw	a0,8(sp)
  4001ec:	00402537          	lui	a0,0x402
  4001f0:	31550513          	addi	a0,a0,789 # 402315 <__modsi3+0x245>
  4001f4:	02a12e23          	sw	a0,60(sp)
  4001f8:	00402537          	lui	a0,0x402
  4001fc:	2b550513          	addi	a0,a0,693 # 4022b5 <__modsi3+0x1e5>
  400200:	00a12623          	sw	a0,12(sp)
  400204:	00402537          	lui	a0,0x402
  400208:	42950513          	addi	a0,a0,1065 # 402429 <$d.1+0x37>
  40020c:	02a12023          	sw	a0,32(sp)
  400210:	00402537          	lui	a0,0x402
  400214:	3ed50513          	addi	a0,a0,1005 # 4023ed <$d.1+0x97>
  400218:	00a12e23          	sw	a0,28(sp)
  40021c:	00402537          	lui	a0,0x402
  400220:	35450513          	addi	a0,a0,852 # 402354 <$d.2+0x19>
  400224:	00a12c23          	sw	a0,24(sp)
  400228:	00402537          	lui	a0,0x402
  40022c:	23750513          	addi	a0,a0,567 # 402237 <__modsi3+0x167>
  400230:	00a12a23          	sw	a0,20(sp)
  400234:	02000c93          	li	s9,32
  400238:	00a00c13          	li	s8,10
  40023c:	00c00b93          	li	s7,12
  400240:	00800b13          	li	s6,8
  400244:	00900a93          	li	s5,9
  400248:	01f00a13          	li	s4,31
  40024c:	07f00913          	li	s2,127
  400250:	0140006f          	j	400264 <main+0x248>
  400254:	08c12503          	lw	a0,140(sp)

        if (argc == 0) continue;

        /* ===== コマンド分岐 ===== */
        if (strcmp(argv[0], "hello") == 0) {
            printf("Hello world from shell!\n");
  400258:	00001097          	auipc	ra,0x1
  40025c:	d30080e7          	jalr	-720(ra) # 400f88 <printf>
  400260:	01f00a13          	li	s4,31
        putchar(0x1B); putchar('['); putchar('3'); putchar('4'); putchar('m'); // 青
  400264:	01b00513          	li	a0,27
  400268:	00001097          	auipc	ra,0x1
  40026c:	c40080e7          	jalr	-960(ra) # 400ea8 <putchar>
  400270:	05b00513          	li	a0,91
  400274:	00001097          	auipc	ra,0x1
  400278:	c34080e7          	jalr	-972(ra) # 400ea8 <putchar>
  40027c:	03300513          	li	a0,51
  400280:	00001097          	auipc	ra,0x1
  400284:	c28080e7          	jalr	-984(ra) # 400ea8 <putchar>
  400288:	03400513          	li	a0,52
  40028c:	00001097          	auipc	ra,0x1
  400290:	c1c080e7          	jalr	-996(ra) # 400ea8 <putchar>
  400294:	06d00513          	li	a0,109
  400298:	00001097          	auipc	ra,0x1
  40029c:	c10080e7          	jalr	-1008(ra) # 400ea8 <putchar>
        putchar('P');
  4002a0:	05000513          	li	a0,80
  4002a4:	00001097          	auipc	ra,0x1
  4002a8:	c04080e7          	jalr	-1020(ra) # 400ea8 <putchar>
        putchar('S');
  4002ac:	05300513          	li	a0,83
  4002b0:	00001097          	auipc	ra,0x1
  4002b4:	bf8080e7          	jalr	-1032(ra) # 400ea8 <putchar>
        putchar('C');
  4002b8:	04300513          	li	a0,67
  4002bc:	00001097          	auipc	ra,0x1
  4002c0:	bec080e7          	jalr	-1044(ra) # 400ea8 <putchar>
        putchar('_');
  4002c4:	05f00513          	li	a0,95
  4002c8:	00001097          	auipc	ra,0x1
  4002cc:	be0080e7          	jalr	-1056(ra) # 400ea8 <putchar>
        putchar('O');
  4002d0:	04f00513          	li	a0,79
  4002d4:	00001097          	auipc	ra,0x1
  4002d8:	bd4080e7          	jalr	-1068(ra) # 400ea8 <putchar>
        putchar('S');
  4002dc:	05300513          	li	a0,83
  4002e0:	00001097          	auipc	ra,0x1
  4002e4:	bc8080e7          	jalr	-1080(ra) # 400ea8 <putchar>
        putchar('>');
  4002e8:	03e00513          	li	a0,62
  4002ec:	00001097          	auipc	ra,0x1
  4002f0:	bbc080e7          	jalr	-1092(ra) # 400ea8 <putchar>
        putchar(' ');
  4002f4:	02000513          	li	a0,32
  4002f8:	00001097          	auipc	ra,0x1
  4002fc:	bb0080e7          	jalr	-1104(ra) # 400ea8 <putchar>
        putchar(0x1B); putchar('['); putchar('0'); putchar('m'); // リセット
  400300:	01b00513          	li	a0,27
  400304:	00001097          	auipc	ra,0x1
  400308:	ba4080e7          	jalr	-1116(ra) # 400ea8 <putchar>
  40030c:	05b00513          	li	a0,91
  400310:	00001097          	auipc	ra,0x1
  400314:	b98080e7          	jalr	-1128(ra) # 400ea8 <putchar>
  400318:	03000513          	li	a0,48
  40031c:	00001097          	auipc	ra,0x1
  400320:	b8c080e7          	jalr	-1140(ra) # 400ea8 <putchar>
  400324:	06d00513          	li	a0,109
  400328:	00000993          	li	s3,0
  40032c:	0ff57513          	zext.b	a0,a0
  400330:	00001097          	auipc	ra,0x1
  400334:	b78080e7          	jalr	-1160(ra) # 400ea8 <putchar>
  400338:	00c0006f          	j	400344 <main+0x328>
            if (ch == 8 || ch == 127) {
  40033c:	07251c63          	bne	a0,s2,4003b4 <main+0x398>
                if (len > 0) {
  400340:	0b304063          	bgtz	s3,4003e0 <main+0x3c4>
            uint32_t sw = poll_switch_api() & 0x03;
  400344:	00001097          	auipc	ra,0x1
  400348:	0cc080e7          	jalr	204(ra) # 401410 <poll_switch_api>
            bool sw1_pressed = ((prev_sw & 0x01) != 0) && ((sw & 0x01) == 0);
  40034c:	001d7593          	andi	a1,s10,1
            uint32_t sw = poll_switch_api() & 0x03;
  400350:	00050d93          	mv	s11,a0
            if (sw1_pressed) {
  400354:	00058c63          	beqz	a1,40036c <main+0x350>
  400358:	001df513          	andi	a0,s11,1
  40035c:	00051863          	bnez	a0,40036c <main+0x350>
                printf("SW1 pressed\n");
  400360:	00040513          	mv	a0,s0
  400364:	00001097          	auipc	ra,0x1
  400368:	c24080e7          	jalr	-988(ra) # 400f88 <printf>
  40036c:	001d5513          	srli	a0,s10,0x1
  400370:	002df593          	andi	a1,s11,2
  400374:	0015b593          	seqz	a1,a1
  400378:	00b57533          	and	a0,a0,a1
            if (sw2_pressed) {
  40037c:	00050863          	beqz	a0,40038c <main+0x370>
                printf("SW2 pressed\n");
  400380:	00048513          	mv	a0,s1
  400384:	00001097          	auipc	ra,0x1
  400388:	c04080e7          	jalr	-1020(ra) # 400f88 <printf>
  40038c:	003dfd13          	andi	s10,s11,3
            int ch = getchar_timeout();
  400390:	00001097          	auipc	ra,0x1
  400394:	060080e7          	jalr	96(ra) # 4013f0 <getchar_timeout>
            if (ch < 0) {
  400398:	fa0546e3          	bltz	a0,400344 <main+0x328>
            if (ch == '\n' && len == 0) {
  40039c:	01851463          	bne	a0,s8,4003a4 <main+0x388>
  4003a0:	fa0982e3          	beqz	s3,400344 <main+0x328>
            if (ch == 8 || ch == 127) {
  4003a4:	f8abcce3          	blt	s7,a0,40033c <main+0x320>
  4003a8:	f9650ce3          	beq	a0,s6,400340 <main+0x324>
  4003ac:	01851863          	bne	a0,s8,4003bc <main+0x3a0>
  4003b0:	0540006f          	j	400404 <main+0x3e8>
  4003b4:	00d00593          	li	a1,13
  4003b8:	04b50663          	beq	a0,a1,400404 <main+0x3e8>
  4003bc:	00aa6463          	bltu	s4,a0,4003c4 <main+0x3a8>
  4003c0:	f95512e3          	bne	a0,s5,400344 <main+0x328>
            if (len >= (int)sizeof(cmdline) - 1) {
  4003c4:	01e00593          	li	a1,30
  4003c8:	e935cee3          	blt	a1,s3,400264 <main+0x248>
            cmdline[len++] = (char)ch;
  4003cc:	0bc10593          	addi	a1,sp,188
  4003d0:	013585b3          	add	a1,a1,s3
  4003d4:	00198993          	addi	s3,s3,1
  4003d8:	00a58023          	sb	a0,0(a1)
  4003dc:	f51ff06f          	j	40032c <main+0x310>
                    len--;
  4003e0:	fff98993          	addi	s3,s3,-1
                    putchar('\b');
  4003e4:	00800513          	li	a0,8
  4003e8:	00001097          	auipc	ra,0x1
  4003ec:	ac0080e7          	jalr	-1344(ra) # 400ea8 <putchar>
                    putchar(' ');
  4003f0:	02000513          	li	a0,32
  4003f4:	00001097          	auipc	ra,0x1
  4003f8:	ab4080e7          	jalr	-1356(ra) # 400ea8 <putchar>
  4003fc:	00800513          	li	a0,8
  400400:	f2dff06f          	j	40032c <main+0x310>
                putchar('\n');
  400404:	00a00513          	li	a0,10
  400408:	00001097          	auipc	ra,0x1
  40040c:	aa0080e7          	jalr	-1376(ra) # 400ea8 <putchar>
                cmdline[len] = '\0';
  400410:	0bc10513          	addi	a0,sp,188
  400414:	01350533          	add	a0,a0,s3
  400418:	00050023          	sb	zero,0(a0)
  40041c:	e40984e3          	beqz	s3,400264 <main+0x248>
  400420:	0bc10513          	addi	a0,sp,188
  400424:	0080006f          	j	40042c <main+0x410>
        while (*p == ' ' || *p == '\t') p++;
  400428:	00150513          	addi	a0,a0,1
  40042c:	00054583          	lbu	a1,0(a0)
  400430:	ff558ce3          	beq	a1,s5,400428 <main+0x40c>
  400434:	ff958ae3          	beq	a1,s9,400428 <main+0x40c>
  400438:	e20586e3          	beqz	a1,400264 <main+0x248>
  40043c:	00000a13          	li	s4,0
  400440:	09c10693          	addi	a3,sp,156
  400444:	00600713          	li	a4,6
  400448:	00050593          	mv	a1,a0
  40044c:	000a0993          	mv	s3,s4
            argv[argc++] = p;
  400450:	001a0a13          	addi	s4,s4,1
  400454:	00299513          	slli	a0,s3,0x2
  400458:	00a68533          	add	a0,a3,a0
  40045c:	00b52023          	sw	a1,0(a0)
            while (*p && *p != ' ' && *p != '\t') p++;
  400460:	00158513          	addi	a0,a1,1
  400464:	0005c603          	lbu	a2,0(a1)
  400468:	04060063          	beqz	a2,4004a8 <main+0x48c>
  40046c:	01560e63          	beq	a2,s5,400488 <main+0x46c>
  400470:	01960c63          	beq	a2,s9,400488 <main+0x46c>
  400474:	00158593          	addi	a1,a1,1
  400478:	00150513          	addi	a0,a0,1
  40047c:	0005c603          	lbu	a2,0(a1)
  400480:	fe0616e3          	bnez	a2,40046c <main+0x450>
  400484:	0240006f          	j	4004a8 <main+0x48c>
            *p++ = '\0';
  400488:	00058023          	sb	zero,0(a1)
  40048c:	0080006f          	j	400494 <main+0x478>
  400490:	00150513          	addi	a0,a0,1
            while (*p == ' ' || *p == '\t') p++;
  400494:	00054583          	lbu	a1,0(a0)
  400498:	ff958ce3          	beq	a1,s9,400490 <main+0x474>
  40049c:	ff558ae3          	beq	a1,s5,400490 <main+0x474>
        while (*p && argc < ARGV_MAX) {
  4004a0:	00058463          	beqz	a1,4004a8 <main+0x48c>
  4004a4:	fb3772e3          	bgeu	a4,s3,400448 <main+0x42c>
        if (strcmp(argv[0], "hello") == 0) {
  4004a8:	09c12503          	lw	a0,156(sp)
  4004ac:	00050d93          	mv	s11,a0
  4004b0:	09812583          	lw	a1,152(sp)
  4004b4:	00001097          	auipc	ra,0x1
  4004b8:	e00080e7          	jalr	-512(ra) # 4012b4 <strcmp>
  4004bc:	d8050ce3          	beqz	a0,400254 <main+0x238>

        // ---- Dump ----
        } else if (strcmp(argv[0], "dump") == 0) {
  4004c0:	000d8513          	mv	a0,s11
  4004c4:	09412583          	lw	a1,148(sp)
  4004c8:	00001097          	auipc	ra,0x1
  4004cc:	dec080e7          	jalr	-532(ra) # 4012b4 <strcmp>
  4004d0:	14050463          	beqz	a0,400618 <main+0x5fc>
            unsigned lenb = (argc >= 3) ? parse_u32(argv[2]) : 0x100;
            hexdump((const void*)addr, lenb, (uintptr_t)addr);
        */

        // ---- 素数出力サンプル ----
        } else if (strcmp(argv[0], "primes") == 0) {
  4004d4:	000d8513          	mv	a0,s11
  4004d8:	09012583          	lw	a1,144(sp)
  4004dc:	00001097          	auipc	ra,0x1
  4004e0:	dd8080e7          	jalr	-552(ra) # 4012b4 <strcmp>
  4004e4:	01f00a13          	li	s4,31
  4004e8:	18050063          	beqz	a0,400668 <main+0x64c>
                }
            }
            cmd_primes(max);

        // ---- セルフテスト ----
        } else if (strcmp(argv[0], "self_test") == 0) {
  4004ec:	000d8513          	mv	a0,s11
  4004f0:	08812583          	lw	a1,136(sp)
  4004f4:	00001097          	auipc	ra,0x1
  4004f8:	dc0080e7          	jalr	-576(ra) # 4012b4 <strcmp>
  4004fc:	d60504e3          	beqz	a0,400264 <main+0x248>
            //TBD
            //cmd_primes(max);

        // ---- SynapEngine ----
        } else if (strcmp(argv[0], "sa_start") == 0) {
  400500:	000d8513          	mv	a0,s11
  400504:	08412583          	lw	a1,132(sp)
  400508:	00001097          	auipc	ra,0x1
  40050c:	dac080e7          	jalr	-596(ra) # 4012b4 <strcmp>
  400510:	1a050063          	beqz	a0,4006b0 <main+0x694>
            }
            // SA API call 
            call_sa_api(matrix_max);

        // ---- I2S MIC READ ----
        } else if (strcmp(argv[0], "mic_read") == 0) {
  400514:	000d8513          	mv	a0,s11
  400518:	08012583          	lw	a1,128(sp)
  40051c:	00001097          	auipc	ra,0x1
  400520:	d98080e7          	jalr	-616(ra) # 4012b4 <strcmp>
  400524:	1c050263          	beqz	a0,4006e8 <main+0x6cc>

            unsigned count = parse_u32(argv[1]);
            call_mic_api(count);

        // ---- I2S MIC WRITE to FILE ----
        } else if (strcmp(argv[0], "mic_write") == 0) {
  400528:	000d8513          	mv	a0,s11
  40052c:	07412583          	lw	a1,116(sp)
  400530:	00001097          	auipc	ra,0x1
  400534:	d84080e7          	jalr	-636(ra) # 4012b4 <strcmp>
  400538:	28050e63          	beqz	a0,4007d4 <main+0x7b8>
            unsigned count = parse_u32(argv[1]);
            //call_mic_write_api(count);
            call_mic_write_file(count);

        // ---- SDカードREAD ----
        } else if (strcmp(argv[0], "sd_read") == 0) {
  40053c:	000d8513          	mv	a0,s11
  400540:	07012583          	lw	a1,112(sp)
  400544:	00001097          	auipc	ra,0x1
  400548:	d70080e7          	jalr	-656(ra) # 4012b4 <strcmp>
  40054c:	2a050e63          	beqz	a0,400808 <main+0x7ec>

            unsigned sd_sector = parse_u32(argv[1]);
            call_sd_read_api(sd_sector);

        // ---- SDカードWRITE TEST----
        } else if (strcmp(argv[0], "sd_write") == 0) {
  400550:	000d8513          	mv	a0,s11
  400554:	06412583          	lw	a1,100(sp)
  400558:	00001097          	auipc	ra,0x1
  40055c:	d5c080e7          	jalr	-676(ra) # 4012b4 <strcmp>
  400560:	32050a63          	beqz	a0,400894 <main+0x878>
                goto prompt;
            }
            call_sd_write_test_api(sd_sector);

        // ---- FAT32 Info ----
        } else if (strcmp(argv[0], "fat32_info") == 0) {
  400564:	000d8513          	mv	a0,s11
  400568:	05c12583          	lw	a1,92(sp)
  40056c:	00001097          	auipc	ra,0x1
  400570:	d48080e7          	jalr	-696(ra) # 4012b4 <strcmp>
  400574:	34050c63          	beqz	a0,4008cc <main+0x8b0>
            printf("spc=%x\n",           g_fat32.sectors_per_cluster);
            printf("fat_begin=%x\n",     g_fat32.fat_begin);
            printf("data_begin=%x\n",    g_fat32.data_begin);

        // ---- FAT32 ls ----
        } else if (strcmp(argv[0], "fat32_ls") == 0) {
  400578:	000d8513          	mv	a0,s11
  40057c:	05412583          	lw	a1,84(sp)
  400580:	00001097          	auipc	ra,0x1
  400584:	d34080e7          	jalr	-716(ra) # 4012b4 <strcmp>
  400588:	36050263          	beqz	a0,4008ec <main+0x8d0>

            fat32_ls();

        // ---- FAT32 cat ----
        } else if (strcmp(argv[0], "fat32_cat") == 0) {
  40058c:	000d8513          	mv	a0,s11
  400590:	04c12583          	lw	a1,76(sp)
  400594:	00001097          	auipc	ra,0x1
  400598:	d20080e7          	jalr	-736(ra) # 4012b4 <strcmp>
  40059c:	34050e63          	beqz	a0,4008f8 <main+0x8dc>
            }

            fat32_cat(argv[1]);

        // ---- FAT32 touch ----
        } else if (strcmp(argv[0], "fat32_touch") == 0) {
  4005a0:	000d8513          	mv	a0,s11
  4005a4:	04012583          	lw	a1,64(sp)
  4005a8:	00001097          	auipc	ra,0x1
  4005ac:	d0c080e7          	jalr	-756(ra) # 4012b4 <strcmp>
  4005b0:	3a050e63          	beqz	a0,40096c <main+0x950>
            if (fat32_touch(argv[1]) != 0) {
                printf("fat32_touch failed\n");
            } 
            
        // ---- Helps出力 ----
        } else if (strcmp(argv[0], "help") == 0) {
  4005b4:	000d8513          	mv	a0,s11
  4005b8:	03c12583          	lw	a1,60(sp)
  4005bc:	00001097          	auipc	ra,0x1
  4005c0:	cf8080e7          	jalr	-776(ra) # 4012b4 <strcmp>
  4005c4:	3c050863          	beqz	a0,400994 <main+0x978>
            printf("  sa_start\n");
            printf("  sd_read\n");
            printf("  exit | quit | q\n");
            */

        } else if (strcmp(argv[0], "exit") == 0 ||
  4005c8:	000d8513          	mv	a0,s11
  4005cc:	02012583          	lw	a1,32(sp)
  4005d0:	00001097          	auipc	ra,0x1
  4005d4:	ce4080e7          	jalr	-796(ra) # 4012b4 <strcmp>
  4005d8:	3c050663          	beqz	a0,4009a4 <main+0x988>
                   strcmp(argv[0], "quit") == 0 ||
  4005dc:	000d8513          	mv	a0,s11
  4005e0:	01c12583          	lw	a1,28(sp)
  4005e4:	00001097          	auipc	ra,0x1
  4005e8:	cd0080e7          	jalr	-816(ra) # 4012b4 <strcmp>
  4005ec:	3a050c63          	beqz	a0,4009a4 <main+0x988>
                   strcmp(argv[0], "q") == 0) {
  4005f0:	000d8513          	mv	a0,s11
  4005f4:	01812583          	lw	a1,24(sp)
  4005f8:	00001097          	auipc	ra,0x1
  4005fc:	cbc080e7          	jalr	-836(ra) # 4012b4 <strcmp>
        } else if (strcmp(argv[0], "exit") == 0 ||
  400600:	3a050263          	beqz	a0,4009a4 <main+0x988>
  400604:	01412503          	lw	a0,20(sp)
            exit();
        
        } else {
            printf("unknown command: %s\n", argv[0]);
  400608:	000d8593          	mv	a1,s11
  40060c:	00001097          	auipc	ra,0x1
  400610:	97c080e7          	jalr	-1668(ra) # 400f88 <printf>
  400614:	c51ff06f          	j	400264 <main+0x248>
  400618:	10000593          	li	a1,256
            if (argc >= 2) {
  40061c:	06098863          	beqz	s3,40068c <main+0x670>
                if (parse_hex(argv[1], &val) == 0) {
  400620:	0a012683          	lw	a3,160(sp)
/* 簡易16進パーサ（"  0x1234" / "1234" 形式どちらも可） */
int parse_hex(const char *s, uintptr_t *out) {
    uintptr_t v = 0;

    /* skip leading spaces */
    while (*s == ' ' || *s == '\t') s++;
  400624:	00268693          	addi	a3,a3,2
  400628:	00600813          	li	a6,6
  40062c:	00500893          	li	a7,5
  400630:	0080006f          	j	400638 <main+0x61c>
  400634:	00168693          	addi	a3,a3,1
  400638:	ffe6c603          	lbu	a2,-2(a3)
  40063c:	ff560ce3          	beq	a2,s5,400634 <main+0x618>
  400640:	ff960ae3          	beq	a2,s9,400634 <main+0x618>
  400644:	03000513          	li	a0,48
  400648:	04a61c63          	bne	a2,a0,4006a0 <main+0x684>

    /* optional 0x / 0X */
    if (s[0] == '0' && (s[1] == 'x' || s[1] == 'X')) s += 2;
  40064c:	fff6c503          	lbu	a0,-1(a3)
  400650:	02056513          	ori	a0,a0,32
  400654:	07800613          	li	a2,120
  400658:	0ac51863          	bne	a0,a2,400708 <main+0x6ec>
    if (!*s) return -1;
  40065c:	0006c603          	lbu	a2,0(a3)
  400660:	0a061863          	bnez	a2,400710 <main+0x6f4>
  400664:	0440006f          	j	4006a8 <main+0x68c>
            if (argc >= 2) {
  400668:	06098663          	beqz	s3,4006d4 <main+0x6b8>
                max = parse_u32(argv[1]);
  40066c:	0a012503          	lw	a0,160(sp)
  400670:	00001097          	auipc	ra,0x1
  400674:	c84080e7          	jalr	-892(ra) # 4012f4 <parse_u32>
  400678:	00050593          	mv	a1,a0
  40067c:	07c12503          	lw	a0,124(sp)
  400680:	07812603          	lw	a2,120(sp)
                if (max > 100000) {
  400684:	04b67a63          	bgeu	a2,a1,4006d8 <main+0x6bc>
  400688:	2580006f          	j	4008e0 <main+0x8c4>
  40068c:	00200537          	lui	a0,0x200
  400690:	01f00a13          	li	s4,31
            call_dump_api(addr, len);
  400694:	00001097          	auipc	ra,0x1
  400698:	be0080e7          	jalr	-1056(ra) # 401274 <call_dump_api>
  40069c:	bc9ff06f          	j	400264 <main+0x248>
  4006a0:	ffe68693          	addi	a3,a3,-2
    if (!*s) return -1;
  4006a4:	06061663          	bnez	a2,400710 <main+0x6f4>
  4006a8:	00200537          	lui	a0,0x200
  4006ac:	0bc0006f          	j	400768 <main+0x74c>
            if (argc >= 2) {
  4006b0:	14098263          	beqz	s3,4007f4 <main+0x7d8>
                matrix_max = parse_u32(argv[1]);
  4006b4:	0a012503          	lw	a0,160(sp)
  4006b8:	00001097          	auipc	ra,0x1
  4006bc:	c3c080e7          	jalr	-964(ra) # 4012f4 <parse_u32>
  4006c0:	00050593          	mv	a1,a0
  4006c4:	06c12503          	lw	a0,108(sp)
                if (matrix_max > 4) {
  4006c8:	00400613          	li	a2,4
  4006cc:	12b67663          	bgeu	a2,a1,4007f8 <main+0x7dc>
  4006d0:	2100006f          	j	4008e0 <main+0x8c4>
  4006d4:	3e800593          	li	a1,1000
            cmd_primes(max);
  4006d8:	00058513          	mv	a0,a1
  4006dc:	00000097          	auipc	ra,0x0
  4006e0:	39c080e7          	jalr	924(ra) # 400a78 <cmd_primes>
  4006e4:	b81ff06f          	j	400264 <main+0x248>
  4006e8:	06812503          	lw	a0,104(sp)
            if (argc < 2) {
  4006ec:	1e098a63          	beqz	s3,4008e0 <main+0x8c4>
            unsigned count = parse_u32(argv[1]);
  4006f0:	0a012503          	lw	a0,160(sp)
  4006f4:	00001097          	auipc	ra,0x1
  4006f8:	c00080e7          	jalr	-1024(ra) # 4012f4 <parse_u32>
            call_mic_api(count);
  4006fc:	00000097          	auipc	ra,0x0
  400700:	7d4080e7          	jalr	2004(ra) # 400ed0 <call_mic_api>
  400704:	b61ff06f          	j	400264 <main+0x248>
  400708:	ffe68693          	addi	a3,a3,-2
  40070c:	03000613          	li	a2,48
  400710:	00000513          	li	a0,0

    while (*s) {
        char c = *s++;
        uint32_t d;
        if (c >= '0' && c <= '9') d = (uint32_t)(c - '0');
  400714:	00168693          	addi	a3,a3,1
  400718:	0200006f          	j	400738 <main+0x71c>
  40071c:	0ff67793          	zext.b	a5,a2
    while (*s) {
  400720:	0006c603          	lbu	a2,0(a3)
  400724:	00f70733          	add	a4,a4,a5
        else if (c >= 'a' && c <= 'f') d = 10u + (uint32_t)(c - 'a');
        else if (c >= 'A' && c <= 'F') d = 10u + (uint32_t)(c - 'A');
        else break;
        v = (v << 4) | d;
  400728:	00451513          	slli	a0,a0,0x4
  40072c:	00a76533          	or	a0,a4,a0
    while (*s) {
  400730:	00168693          	addi	a3,a3,1
  400734:	02060a63          	beqz	a2,400768 <main+0x74c>
        if (c >= '0' && c <= '9') d = (uint32_t)(c - '0');
  400738:	fd060713          	addi	a4,a2,-48
  40073c:	0ff77793          	zext.b	a5,a4
  400740:	fd000713          	li	a4,-48
  400744:	fd87ece3          	bltu	a5,s8,40071c <main+0x700>
        else if (c >= 'a' && c <= 'f') d = 10u + (uint32_t)(c - 'a');
  400748:	f9f60713          	addi	a4,a2,-97
  40074c:	0ff77793          	zext.b	a5,a4
  400750:	fa900713          	li	a4,-87
  400754:	fd07e4e3          	bltu	a5,a6,40071c <main+0x700>
        else if (c >= 'A' && c <= 'F') d = 10u + (uint32_t)(c - 'A');
  400758:	fbf60713          	addi	a4,a2,-65
  40075c:	0ff77793          	zext.b	a5,a4
  400760:	fc900713          	li	a4,-55
  400764:	faf8fce3          	bgeu	a7,a5,40071c <main+0x700>
            if (argc >= 3) {
  400768:	00200613          	li	a2,2
  40076c:	00ca1a63          	bne	s4,a2,400780 <main+0x764>
  400770:	01f00a13          	li	s4,31
            call_dump_api(addr, len);
  400774:	00001097          	auipc	ra,0x1
  400778:	b00080e7          	jalr	-1280(ra) # 401274 <call_dump_api>
  40077c:	ae9ff06f          	j	400264 <main+0x248>
                if (parse_hex(argv[2], &val) == 0) {
  400780:	0a412683          	lw	a3,164(sp)
    while (*s == ' ' || *s == '\t') s++;
  400784:	00268693          	addi	a3,a3,2
  400788:	0080006f          	j	400790 <main+0x774>
  40078c:	00168693          	addi	a3,a3,1
  400790:	ffe6c603          	lbu	a2,-2(a3)
  400794:	ff560ce3          	beq	a2,s5,40078c <main+0x770>
  400798:	ff960ae3          	beq	a2,s9,40078c <main+0x770>
  40079c:	03000713          	li	a4,48
  4007a0:	02e61263          	bne	a2,a4,4007c4 <main+0x7a8>
    if (s[0] == '0' && (s[1] == 'x' || s[1] == 'X')) s += 2;
  4007a4:	fff6c603          	lbu	a2,-1(a3)
  4007a8:	02066613          	ori	a2,a2,32
  4007ac:	07800713          	li	a4,120
  4007b0:	01f00a13          	li	s4,31
  4007b4:	06e61a63          	bne	a2,a4,400828 <main+0x80c>
    if (!*s) return -1;
  4007b8:	0006c603          	lbu	a2,0(a3)
  4007bc:	06061a63          	bnez	a2,400830 <main+0x814>
  4007c0:	0c80006f          	j	400888 <main+0x86c>
  4007c4:	ffe68693          	addi	a3,a3,-2
  4007c8:	01f00a13          	li	s4,31
  4007cc:	06061263          	bnez	a2,400830 <main+0x814>
  4007d0:	0b80006f          	j	400888 <main+0x86c>
  4007d4:	06012503          	lw	a0,96(sp)
            if (argc < 2) {
  4007d8:	10098463          	beqz	s3,4008e0 <main+0x8c4>
            unsigned count = parse_u32(argv[1]);
  4007dc:	0a012503          	lw	a0,160(sp)
  4007e0:	00001097          	auipc	ra,0x1
  4007e4:	b14080e7          	jalr	-1260(ra) # 4012f4 <parse_u32>
            call_mic_write_file(count);
  4007e8:	00000097          	auipc	ra,0x0
  4007ec:	6f4080e7          	jalr	1780(ra) # 400edc <call_mic_write_file>
  4007f0:	a75ff06f          	j	400264 <main+0x248>
  4007f4:	00400593          	li	a1,4
            call_sa_api(matrix_max);
  4007f8:	00058513          	mv	a0,a1
  4007fc:	00000097          	auipc	ra,0x0
  400800:	350080e7          	jalr	848(ra) # 400b4c <call_sa_api>
  400804:	a61ff06f          	j	400264 <main+0x248>
  400808:	05812503          	lw	a0,88(sp)
            if (argc < 2) {
  40080c:	0c098a63          	beqz	s3,4008e0 <main+0x8c4>
            unsigned sd_sector = parse_u32(argv[1]);
  400810:	0a012503          	lw	a0,160(sp)
  400814:	00001097          	auipc	ra,0x1
  400818:	ae0080e7          	jalr	-1312(ra) # 4012f4 <parse_u32>
            call_sd_read_api(sd_sector);
  40081c:	00001097          	auipc	ra,0x1
  400820:	a34080e7          	jalr	-1484(ra) # 401250 <call_sd_read_api>
  400824:	a41ff06f          	j	400264 <main+0x248>
  400828:	ffe68693          	addi	a3,a3,-2
  40082c:	03000613          	li	a2,48
  400830:	00000593          	li	a1,0
        if (c >= '0' && c <= '9') d = (uint32_t)(c - '0');
  400834:	00168693          	addi	a3,a3,1
  400838:	0200006f          	j	400858 <main+0x83c>
  40083c:	0ff67793          	zext.b	a5,a2
    while (*s) {
  400840:	0006c603          	lbu	a2,0(a3)
  400844:	00f70733          	add	a4,a4,a5
        v = (v << 4) | d;
  400848:	00459593          	slli	a1,a1,0x4
  40084c:	00b765b3          	or	a1,a4,a1
    while (*s) {
  400850:	00168693          	addi	a3,a3,1
  400854:	02060a63          	beqz	a2,400888 <main+0x86c>
        if (c >= '0' && c <= '9') d = (uint32_t)(c - '0');
  400858:	fd060713          	addi	a4,a2,-48
  40085c:	0ff77793          	zext.b	a5,a4
  400860:	fd000713          	li	a4,-48
  400864:	fd87ece3          	bltu	a5,s8,40083c <main+0x820>
        else if (c >= 'a' && c <= 'f') d = 10u + (uint32_t)(c - 'a');
  400868:	f9f60713          	addi	a4,a2,-97
  40086c:	0ff77793          	zext.b	a5,a4
  400870:	fa900713          	li	a4,-87
  400874:	fd07e4e3          	bltu	a5,a6,40083c <main+0x820>
        else if (c >= 'A' && c <= 'F') d = 10u + (uint32_t)(c - 'A');
  400878:	fbf60713          	addi	a4,a2,-65
  40087c:	0ff77793          	zext.b	a5,a4
  400880:	fc900713          	li	a4,-55
  400884:	faf8fce3          	bgeu	a7,a5,40083c <main+0x820>
            call_dump_api(addr, len);
  400888:	00001097          	auipc	ra,0x1
  40088c:	9ec080e7          	jalr	-1556(ra) # 401274 <call_dump_api>
  400890:	9d5ff06f          	j	400264 <main+0x248>
  400894:	05012503          	lw	a0,80(sp)
            if (argc < 2) {
  400898:	04098463          	beqz	s3,4008e0 <main+0x8c4>
            unsigned sd_sector = parse_u32(argv[1]);
  40089c:	0a012503          	lw	a0,160(sp)
  4008a0:	00001097          	auipc	ra,0x1
  4008a4:	a54080e7          	jalr	-1452(ra) # 4012f4 <parse_u32>
  4008a8:	00050593          	mv	a1,a0
            if (sd_sector < 5000) {
  4008ac:	00355613          	srli	a2,a0,0x3
  4008b0:	04812503          	lw	a0,72(sp)
  4008b4:	27100693          	li	a3,625
  4008b8:	02d66463          	bltu	a2,a3,4008e0 <main+0x8c4>
            call_sd_write_test_api(sd_sector);
  4008bc:	00058513          	mv	a0,a1
  4008c0:	00001097          	auipc	ra,0x1
  4008c4:	99c080e7          	jalr	-1636(ra) # 40125c <call_sd_write_test_api>
  4008c8:	99dff06f          	j	400264 <main+0x248>
            if (fat32_mount() != 0) {
  4008cc:	00001097          	auipc	ra,0x1
  4008d0:	c3c080e7          	jalr	-964(ra) # 401508 <fat32_mount>
  4008d4:	00050593          	mv	a1,a0
  4008d8:	04412503          	lw	a0,68(sp)
  4008dc:	02058a63          	beqz	a1,400910 <main+0x8f4>
  4008e0:	00000097          	auipc	ra,0x0
  4008e4:	6a8080e7          	jalr	1704(ra) # 400f88 <printf>
  4008e8:	97dff06f          	j	400264 <main+0x248>
            fat32_ls();
  4008ec:	00001097          	auipc	ra,0x1
  4008f0:	008080e7          	jalr	8(ra) # 4018f4 <fat32_ls>
  4008f4:	971ff06f          	j	400264 <main+0x248>
  4008f8:	03812503          	lw	a0,56(sp)
            if (argc < 2) {
  4008fc:	fe0982e3          	beqz	s3,4008e0 <main+0x8c4>
            fat32_cat(argv[1]);
  400900:	0a012503          	lw	a0,160(sp)
  400904:	00001097          	auipc	ra,0x1
  400908:	b18080e7          	jalr	-1256(ra) # 40141c <fat32_cat>
  40090c:	959ff06f          	j	400264 <main+0x248>
  400910:	00402537          	lui	a0,0x402
            printf("part_lba=%x\n",      g_fat32.part_lba);
  400914:	63052583          	lw	a1,1584(a0) # 402630 <g_fat32>
  400918:	63050993          	addi	s3,a0,1584
  40091c:	03412503          	lw	a0,52(sp)
  400920:	00000097          	auipc	ra,0x0
  400924:	668080e7          	jalr	1640(ra) # 400f88 <printf>
            printf("root_cluster=%x\n",  g_fat32.root_cluster);
  400928:	00c9a583          	lw	a1,12(s3)
  40092c:	03012503          	lw	a0,48(sp)
  400930:	00000097          	auipc	ra,0x0
  400934:	658080e7          	jalr	1624(ra) # 400f88 <printf>
            printf("spc=%x\n",           g_fat32.sectors_per_cluster);
  400938:	0109a583          	lw	a1,16(s3)
  40093c:	02c12503          	lw	a0,44(sp)
  400940:	00000097          	auipc	ra,0x0
  400944:	648080e7          	jalr	1608(ra) # 400f88 <printf>
            printf("fat_begin=%x\n",     g_fat32.fat_begin);
  400948:	0049a583          	lw	a1,4(s3)
  40094c:	02812503          	lw	a0,40(sp)
  400950:	00000097          	auipc	ra,0x0
  400954:	638080e7          	jalr	1592(ra) # 400f88 <printf>
            printf("data_begin=%x\n",    g_fat32.data_begin);
  400958:	0089a583          	lw	a1,8(s3)
  40095c:	02412503          	lw	a0,36(sp)
  400960:	00000097          	auipc	ra,0x0
  400964:	628080e7          	jalr	1576(ra) # 400f88 <printf>
  400968:	8fdff06f          	j	400264 <main+0x248>
  40096c:	01012503          	lw	a0,16(sp)
            if (argc < 2) {
  400970:	f60988e3          	beqz	s3,4008e0 <main+0x8c4>
            if (fat32_touch(argv[1]) != 0) {
  400974:	0a012503          	lw	a0,160(sp)
  400978:	00001097          	auipc	ra,0x1
  40097c:	208080e7          	jalr	520(ra) # 401b80 <fat32_touch>
  400980:	8e0502e3          	beqz	a0,400264 <main+0x248>
  400984:	00812503          	lw	a0,8(sp)
                printf("fat32_touch failed\n");
  400988:	00000097          	auipc	ra,0x0
  40098c:	600080e7          	jalr	1536(ra) # 400f88 <printf>
  400990:	8d5ff06f          	j	400264 <main+0x248>
  400994:	00c12503          	lw	a0,12(sp)
            printf("commands:\n");
  400998:	00000097          	auipc	ra,0x0
  40099c:	5f0080e7          	jalr	1520(ra) # 400f88 <printf>
  4009a0:	8c5ff06f          	j	400264 <main+0x248>
            exit();
  4009a4:	00000097          	auipc	ra,0x0
  4009a8:	190080e7          	jalr	400(ra) # 400b34 <exit>

004009ac <parse_hex>:
    while (*s == ' ' || *s == '\t') s++;
  4009ac:	00250613          	addi	a2,a0,2
  4009b0:	00900693          	li	a3,9
  4009b4:	02000713          	li	a4,32
  4009b8:	0080006f          	j	4009c0 <parse_hex+0x14>
  4009bc:	00160613          	addi	a2,a2,1
  4009c0:	ffe64503          	lbu	a0,-2(a2)
  4009c4:	fed50ce3          	beq	a0,a3,4009bc <parse_hex+0x10>
  4009c8:	fee50ae3          	beq	a0,a4,4009bc <parse_hex+0x10>
  4009cc:	03000693          	li	a3,48
  4009d0:	02d51063          	bne	a0,a3,4009f0 <parse_hex+0x44>
    if (s[0] == '0' && (s[1] == 'x' || s[1] == 'X')) s += 2;
  4009d4:	fff64503          	lbu	a0,-1(a2)
  4009d8:	02056513          	ori	a0,a0,32
  4009dc:	07800693          	li	a3,120
  4009e0:	02d51063          	bne	a0,a3,400a00 <parse_hex+0x54>
    if (!*s) return -1;
  4009e4:	00064503          	lbu	a0,0(a2)
  4009e8:	02051063          	bnez	a0,400a08 <parse_hex+0x5c>
  4009ec:	00c0006f          	j	4009f8 <parse_hex+0x4c>
  4009f0:	ffe60613          	addi	a2,a2,-2
  4009f4:	00051a63          	bnez	a0,400a08 <parse_hex+0x5c>
  4009f8:	fff00513          	li	a0,-1
    }
    *out = v;
    return 0;
  4009fc:	00008067          	ret
  400a00:	ffe60613          	addi	a2,a2,-2
  400a04:	03000513          	li	a0,48
  400a08:	00000693          	li	a3,0
        if (c >= '0' && c <= '9') d = (uint32_t)(c - '0');
  400a0c:	00160613          	addi	a2,a2,1
  400a10:	00a00713          	li	a4,10
  400a14:	00600793          	li	a5,6
  400a18:	00500813          	li	a6,5
  400a1c:	0200006f          	j	400a3c <parse_hex+0x90>
  400a20:	0ff57293          	zext.b	t0,a0
    while (*s) {
  400a24:	00064503          	lbu	a0,0(a2)
  400a28:	005888b3          	add	a7,a7,t0
        v = (v << 4) | d;
  400a2c:	00469693          	slli	a3,a3,0x4
  400a30:	00d8e6b3          	or	a3,a7,a3
    while (*s) {
  400a34:	00160613          	addi	a2,a2,1
  400a38:	02050a63          	beqz	a0,400a6c <parse_hex+0xc0>
        if (c >= '0' && c <= '9') d = (uint32_t)(c - '0');
  400a3c:	fd050893          	addi	a7,a0,-48
  400a40:	0ff8f293          	zext.b	t0,a7
  400a44:	fd000893          	li	a7,-48
  400a48:	fce2ece3          	bltu	t0,a4,400a20 <parse_hex+0x74>
        else if (c >= 'a' && c <= 'f') d = 10u + (uint32_t)(c - 'a');
  400a4c:	f9f50893          	addi	a7,a0,-97
  400a50:	0ff8f293          	zext.b	t0,a7
  400a54:	fa900893          	li	a7,-87
  400a58:	fcf2e4e3          	bltu	t0,a5,400a20 <parse_hex+0x74>
        else if (c >= 'A' && c <= 'F') d = 10u + (uint32_t)(c - 'A');
  400a5c:	fbf50893          	addi	a7,a0,-65
  400a60:	0ff8f293          	zext.b	t0,a7
  400a64:	fc900893          	li	a7,-55
  400a68:	fa587ce3          	bgeu	a6,t0,400a20 <parse_hex+0x74>
  400a6c:	00000513          	li	a0,0
    *out = v;
  400a70:	00d5a023          	sw	a3,0(a1)
  400a74:	00008067          	ret

00400a78 <cmd_primes>:
{
  400a78:	fe010113          	addi	sp,sp,-32
  400a7c:	00112e23          	sw	ra,28(sp)
  400a80:	00812c23          	sw	s0,24(sp)
  400a84:	00912a23          	sw	s1,20(sp)
  400a88:	01212823          	sw	s2,16(sp)
  400a8c:	01312623          	sw	s3,12(sp)
  400a90:	00200913          	li	s2,2
  400a94:	00050413          	mv	s0,a0
  400a98:	00000493          	li	s1,0
    for (unsigned n = 2; n <= max; n++) {
  400a9c:	07256463          	bltu	a0,s2,400b04 <cmd_primes+0x8c>
  400aa0:	00402537          	lui	a0,0x402
  400aa4:	39750993          	addi	s3,a0,919 # 402397 <$d.1+0x41>
  400aa8:	00c0006f          	j	400ab4 <cmd_primes+0x3c>
  400aac:	00190913          	addi	s2,s2,1
  400ab0:	05246063          	bltu	s0,s2,400af0 <cmd_primes+0x78>
        if (is_prime(n)) {
  400ab4:	00090513          	mv	a0,s2
  400ab8:	00001097          	auipc	ra,0x1
  400abc:	8e4080e7          	jalr	-1820(ra) # 40139c <is_prime>
  400ac0:	fe0506e3          	beqz	a0,400aac <cmd_primes+0x34>
            printf("%d ", (int)n);
  400ac4:	00098513          	mv	a0,s3
  400ac8:	00090593          	mv	a1,s2
  400acc:	00000097          	auipc	ra,0x0
  400ad0:	4bc080e7          	jalr	1212(ra) # 400f88 <printf>
            count++;
  400ad4:	00148493          	addi	s1,s1,1
            if ((count % 8) == 0)
  400ad8:	0074f513          	andi	a0,s1,7
  400adc:	fc0518e3          	bnez	a0,400aac <cmd_primes+0x34>
                putchar('\n');
  400ae0:	00a00513          	li	a0,10
  400ae4:	00000097          	auipc	ra,0x0
  400ae8:	3c4080e7          	jalr	964(ra) # 400ea8 <putchar>
  400aec:	fc1ff06f          	j	400aac <cmd_primes+0x34>
    if ((count % 8) != 0)
  400af0:	0074f513          	andi	a0,s1,7
  400af4:	00050863          	beqz	a0,400b04 <cmd_primes+0x8c>
        putchar('\n');
  400af8:	00a00513          	li	a0,10
  400afc:	00000097          	auipc	ra,0x0
  400b00:	3ac080e7          	jalr	940(ra) # 400ea8 <putchar>
    printf("total primes: %d (0..%d)\n", count, (int)max);
  400b04:	00402537          	lui	a0,0x402
  400b08:	24c50513          	addi	a0,a0,588 # 40224c <__modsi3+0x17c>
  400b0c:	00048593          	mv	a1,s1
  400b10:	00040613          	mv	a2,s0
  400b14:	01c12083          	lw	ra,28(sp)
  400b18:	01812403          	lw	s0,24(sp)
  400b1c:	01412483          	lw	s1,20(sp)
  400b20:	01012903          	lw	s2,16(sp)
  400b24:	00c12983          	lw	s3,12(sp)
  400b28:	02010113          	addi	sp,sp,32
  400b2c:	00000317          	auipc	t1,0x0
  400b30:	45c30067          	jr	1116(t1) # 400f88 <printf>

00400b34 <exit>:
    __asm__ __volatile__ (
  400b34:	05a00693          	li	a3,90
  400b38:	00000593          	li	a1,0
  400b3c:	00000613          	li	a2,0
  400b40:	00000513          	li	a0,0
  400b44:	00000073          	ecall
    for (;;);
  400b48:	0000006f          	j	400b48 <exit+0x14>

00400b4c <call_sa_api>:
{
  400b4c:	000065b7          	lui	a1,0x6
  400b50:	01058593          	addi	a1,a1,16 # 6010 <$d.5+0x481f>
  400b54:	40b10133          	sub	sp,sp,a1
  400b58:	00050793          	mv	a5,a0
    for (uint32_t i = 0; i < matrix_size; i++) {
  400b5c:	14050663          	beqz	a0,400ca8 <call_sa_api+0x15c>
  400b60:	00000513          	li	a0,0
  400b64:	00000593          	li	a1,0
  400b68:	00005637          	lui	a2,0x5
  400b6c:	01060613          	addi	a2,a2,16 # 5010 <$d.5+0x381f>
  400b70:	00c10633          	add	a2,sp,a2
  400b74:	000046b7          	lui	a3,0x4
  400b78:	01068693          	addi	a3,a3,16 # 4010 <$d.5+0x281f>
  400b7c:	00d106b3          	add	a3,sp,a3
  400b80:	00005737          	lui	a4,0x5
  400b84:	01070713          	addi	a4,a4,16 # 5010 <$d.5+0x381f>
  400b88:	00e10733          	add	a4,sp,a4
        for (uint32_t j = 0; j < matrix_size; j++) {
  400b8c:	00659813          	slli	a6,a1,0x6
  400b90:	01078833          	add	a6,a5,a6
  400b94:	01060833          	add	a6,a2,a6
  400b98:	00068893          	mv	a7,a3
  400b9c:	00070293          	mv	t0,a4
  400ba0:	00058313          	mv	t1,a1
  400ba4:	00050393          	mv	t2,a0
            matrix_A[i][j] = (uint8_t)(2*i + 2*j + 2);
  400ba8:	00131e13          	slli	t3,t1,0x1
  400bac:	002e0e13          	addi	t3,t3,2
  400bb0:	01c28023          	sb	t3,0(t0)
            matrix_B[i][j] = (uint8_t)(3*i + j + 5);
  400bb4:	00538e13          	addi	t3,t2,5
  400bb8:	01c88023          	sb	t3,0(a7)
        for (uint32_t j = 0; j < matrix_size; j++) {
  400bbc:	00138393          	addi	t2,t2,1
  400bc0:	00130313          	addi	t1,t1,1
  400bc4:	00128293          	addi	t0,t0,1
  400bc8:	00188893          	addi	a7,a7,1
  400bcc:	fd029ee3          	bne	t0,a6,400ba8 <call_sa_api+0x5c>
    for (uint32_t i = 0; i < matrix_size; i++) {
  400bd0:	00158593          	addi	a1,a1,1
  400bd4:	00350513          	addi	a0,a0,3
  400bd8:	04070713          	addi	a4,a4,64
  400bdc:	04068693          	addi	a3,a3,64
  400be0:	faf596e3          	bne	a1,a5,400b8c <call_sa_api+0x40>
  400be4:	00005537          	lui	a0,0x5
  400be8:	01050513          	addi	a0,a0,16 # 5010 <$d.5+0x381f>
  400bec:	00a10833          	add	a6,sp,a0
  400bf0:	00004537          	lui	a0,0x4
  400bf4:	01050513          	addi	a0,a0,16 # 4010 <$d.5+0x281f>
  400bf8:	00a108b3          	add	a7,sp,a0
  400bfc:	01010293          	addi	t0,sp,16
  400c00:	00a00313          	li	t1,10
    __asm__ __volatile__ (
  400c04:	00080513          	mv	a0,a6
  400c08:	00088593          	mv	a1,a7
  400c0c:	00028613          	mv	a2,t0
  400c10:	00030693          	mv	a3,t1
  400c14:	00078713          	mv	a4,a5
  400c18:	00000073          	ecall
  400c1c:	00050893          	mv	a7,a0
  400c20:	04100593          	li	a1,65
    __asm__ __volatile__ (
  400c24:	00058513          	mv	a0,a1
  400c28:	00100693          	li	a3,1
  400c2c:	00000073          	ecall
  400c30:	00030513          	mv	a0,t1
  400c34:	00100693          	li	a3,1
  400c38:	00000073          	ecall
    for (uint32_t i = 0; i < matrix_size; i++) {
  400c3c:	18078c63          	beqz	a5,400dd4 <call_sa_api+0x288>
  400c40:	00000593          	li	a1,0
  400c44:	02000613          	li	a2,32
  400c48:	00a00713          	li	a4,10
  400c4c:	00005537          	lui	a0,0x5
  400c50:	01050513          	addi	a0,a0,16 # 5010 <$d.5+0x381f>
  400c54:	00a108b3          	add	a7,sp,a0
        for (uint32_t j = 0; j < matrix_size; j++) {
  400c58:	00659513          	slli	a0,a1,0x6
  400c5c:	00a78533          	add	a0,a5,a0
  400c60:	00a802b3          	add	t0,a6,a0
  400c64:	00088313          	mv	t1,a7
            print_int((int)matrix_A[i][j]);
  400c68:	00034383          	lbu	t2,0(t1)
    __asm__ __volatile__ (
  400c6c:	00038513          	mv	a0,t2
  400c70:	05b00693          	li	a3,91
  400c74:	00000073          	ecall
    __asm__ __volatile__ (
  400c78:	00060513          	mv	a0,a2
  400c7c:	00100693          	li	a3,1
  400c80:	00000073          	ecall
        for (uint32_t j = 0; j < matrix_size; j++) {
  400c84:	00130313          	addi	t1,t1,1
  400c88:	fe5310e3          	bne	t1,t0,400c68 <call_sa_api+0x11c>
    __asm__ __volatile__ (
  400c8c:	00070513          	mv	a0,a4
  400c90:	00100693          	li	a3,1
  400c94:	00000073          	ecall
    for (uint32_t i = 0; i < matrix_size; i++) {
  400c98:	00158593          	addi	a1,a1,1
  400c9c:	04088893          	addi	a7,a7,64
  400ca0:	faf59ce3          	bne	a1,a5,400c58 <call_sa_api+0x10c>
  400ca4:	05c0006f          	j	400d00 <call_sa_api+0x1b4>
  400ca8:	00005537          	lui	a0,0x5
  400cac:	01050513          	addi	a0,a0,16 # 5010 <$d.5+0x381f>
  400cb0:	00a10833          	add	a6,sp,a0
  400cb4:	00004537          	lui	a0,0x4
  400cb8:	01050513          	addi	a0,a0,16 # 4010 <$d.5+0x281f>
  400cbc:	00a108b3          	add	a7,sp,a0
  400cc0:	01010293          	addi	t0,sp,16
  400cc4:	00a00313          	li	t1,10
    __asm__ __volatile__ (
  400cc8:	00080513          	mv	a0,a6
  400ccc:	00088593          	mv	a1,a7
  400cd0:	00028613          	mv	a2,t0
  400cd4:	00030693          	mv	a3,t1
  400cd8:	00078713          	mv	a4,a5
  400cdc:	00000073          	ecall
  400ce0:	00050813          	mv	a6,a0
  400ce4:	04100593          	li	a1,65
    __asm__ __volatile__ (
  400ce8:	00058513          	mv	a0,a1
  400cec:	00100693          	li	a3,1
  400cf0:	00000073          	ecall
  400cf4:	00030513          	mv	a0,t1
  400cf8:	00100693          	li	a3,1
  400cfc:	00000073          	ecall
  400d00:	00a00593          	li	a1,10
  400d04:	00058513          	mv	a0,a1
  400d08:	00100693          	li	a3,1
  400d0c:	00000073          	ecall
  400d10:	04200613          	li	a2,66
  400d14:	00060513          	mv	a0,a2
  400d18:	00100693          	li	a3,1
  400d1c:	00000073          	ecall
  400d20:	00058513          	mv	a0,a1
  400d24:	00100693          	li	a3,1
  400d28:	00000073          	ecall
    for (uint32_t i = 0; i < matrix_size; i++) {
  400d2c:	06078c63          	beqz	a5,400da4 <call_sa_api+0x258>
  400d30:	00000593          	li	a1,0
  400d34:	00004537          	lui	a0,0x4
  400d38:	01050513          	addi	a0,a0,16 # 4010 <$d.5+0x281f>
  400d3c:	00a10633          	add	a2,sp,a0
  400d40:	02000713          	li	a4,32
  400d44:	00a00813          	li	a6,10
  400d48:	00004537          	lui	a0,0x4
  400d4c:	01050513          	addi	a0,a0,16 # 4010 <$d.5+0x281f>
  400d50:	00a108b3          	add	a7,sp,a0
        for (uint32_t j = 0; j < matrix_size; j++) {
  400d54:	00659513          	slli	a0,a1,0x6
  400d58:	00a78533          	add	a0,a5,a0
  400d5c:	00a602b3          	add	t0,a2,a0
  400d60:	00088313          	mv	t1,a7
            print_int((int)matrix_B[i][j]);
  400d64:	00034383          	lbu	t2,0(t1)
    __asm__ __volatile__ (
  400d68:	00038513          	mv	a0,t2
  400d6c:	05b00693          	li	a3,91
  400d70:	00000073          	ecall
    __asm__ __volatile__ (
  400d74:	00070513          	mv	a0,a4
  400d78:	00100693          	li	a3,1
  400d7c:	00000073          	ecall
        for (uint32_t j = 0; j < matrix_size; j++) {
  400d80:	00130313          	addi	t1,t1,1
  400d84:	fe5310e3          	bne	t1,t0,400d64 <call_sa_api+0x218>
    __asm__ __volatile__ (
  400d88:	00080513          	mv	a0,a6
  400d8c:	00100693          	li	a3,1
  400d90:	00000073          	ecall
    for (uint32_t i = 0; i < matrix_size; i++) {
  400d94:	00158593          	addi	a1,a1,1
  400d98:	04088893          	addi	a7,a7,64
  400d9c:	faf59ce3          	bne	a1,a5,400d54 <call_sa_api+0x208>
  400da0:	0600006f          	j	400e00 <call_sa_api+0x2b4>
  400da4:	00a00593          	li	a1,10
    __asm__ __volatile__ (
  400da8:	00058513          	mv	a0,a1
  400dac:	00100693          	li	a3,1
  400db0:	00000073          	ecall
  400db4:	04300613          	li	a2,67
  400db8:	00060513          	mv	a0,a2
  400dbc:	00100693          	li	a3,1
  400dc0:	00000073          	ecall
  400dc4:	00058513          	mv	a0,a1
  400dc8:	00100693          	li	a3,1
  400dcc:	00000073          	ecall
  400dd0:	0b80006f          	j	400e88 <call_sa_api+0x33c>
  400dd4:	00a00593          	li	a1,10
  400dd8:	00058513          	mv	a0,a1
  400ddc:	00100693          	li	a3,1
  400de0:	00000073          	ecall
  400de4:	04200613          	li	a2,66
  400de8:	00060513          	mv	a0,a2
  400dec:	00100693          	li	a3,1
  400df0:	00000073          	ecall
  400df4:	00058513          	mv	a0,a1
  400df8:	00100693          	li	a3,1
  400dfc:	00000073          	ecall
  400e00:	00a00593          	li	a1,10
  400e04:	00058513          	mv	a0,a1
  400e08:	00100693          	li	a3,1
  400e0c:	00000073          	ecall
  400e10:	04300613          	li	a2,67
  400e14:	00060513          	mv	a0,a2
  400e18:	00100693          	li	a3,1
  400e1c:	00000073          	ecall
  400e20:	00058513          	mv	a0,a1
  400e24:	00100693          	li	a3,1
  400e28:	00000073          	ecall
    for (uint32_t i = 0; i < matrix_size; i++) {
  400e2c:	04078e63          	beqz	a5,400e88 <call_sa_api+0x33c>
  400e30:	00000593          	li	a1,0
  400e34:	01010613          	addi	a2,sp,16
  400e38:	02000713          	li	a4,32
  400e3c:	00a00813          	li	a6,10
  400e40:	00060893          	mv	a7,a2
  400e44:	00078293          	mv	t0,a5
            print_int((int)matrix_C[i][j]);
  400e48:	0008a303          	lw	t1,0(a7)
    __asm__ __volatile__ (
  400e4c:	00030513          	mv	a0,t1
  400e50:	05b00693          	li	a3,91
  400e54:	00000073          	ecall
    __asm__ __volatile__ (
  400e58:	00070513          	mv	a0,a4
  400e5c:	00100693          	li	a3,1
  400e60:	00000073          	ecall
        for (uint32_t j = 0; j < matrix_size; j++) {
  400e64:	fff28293          	addi	t0,t0,-1
  400e68:	00488893          	addi	a7,a7,4
  400e6c:	fc029ee3          	bnez	t0,400e48 <call_sa_api+0x2fc>
    __asm__ __volatile__ (
  400e70:	00080513          	mv	a0,a6
  400e74:	00100693          	li	a3,1
  400e78:	00000073          	ecall
    for (uint32_t i = 0; i < matrix_size; i++) {
  400e7c:	00158593          	addi	a1,a1,1
  400e80:	10060613          	addi	a2,a2,256
  400e84:	faf59ee3          	bne	a1,a5,400e40 <call_sa_api+0x2f4>
  400e88:	00a00593          	li	a1,10
    __asm__ __volatile__ (
  400e8c:	00058513          	mv	a0,a1
  400e90:	00100693          	li	a3,1
  400e94:	00000073          	ecall
}
  400e98:	00006537          	lui	a0,0x6
  400e9c:	01050513          	addi	a0,a0,16 # 6010 <$d.5+0x481f>
  400ea0:	00a10133          	add	sp,sp,a0
  400ea4:	00008067          	ret

00400ea8 <putchar>:
{
  400ea8:	00050593          	mv	a1,a0
    __asm__ __volatile__ (
  400eac:	00058513          	mv	a0,a1
  400eb0:	00100693          	li	a3,1
  400eb4:	00000073          	ecall
}
  400eb8:	00008067          	ret

00400ebc <print_int>:
{
  400ebc:	00050593          	mv	a1,a0
    __asm__ __volatile__ (
  400ec0:	00058513          	mv	a0,a1
  400ec4:	05b00693          	li	a3,91
  400ec8:	00000073          	ecall
}
  400ecc:	00008067          	ret

00400ed0 <call_mic_api>:
    __asm__ __volatile__(
  400ed0:	01400693          	li	a3,20
  400ed4:	00000073          	ecall
}
  400ed8:	00008067          	ret

00400edc <call_mic_write_file>:
{
  400edc:	fe010113          	addi	sp,sp,-32
  400ee0:	00112e23          	sw	ra,28(sp)
  400ee4:	00812c23          	sw	s0,24(sp)
  400ee8:	00912a23          	sw	s1,20(sp)
  400eec:	00050413          	mv	s0,a0
    if (fat32_find(
  400ef0:	00402537          	lui	a0,0x402
  400ef4:	33b50513          	addi	a0,a0,827 # 40233b <$d.2>
  400ef8:	01010593          	addi	a1,sp,16
  400efc:	00c10613          	addi	a2,sp,12
  400f00:	00000097          	auipc	ra,0x0
  400f04:	730080e7          	jalr	1840(ra) # 401630 <fat32_find>
  400f08:	00050863          	beqz	a0,400f18 <call_mic_write_file+0x3c>
        printf("MIC.TXT not found\n");
  400f0c:	00402537          	lui	a0,0x402
  400f10:	19b50513          	addi	a0,a0,411 # 40219b <__modsi3+0xcb>
  400f14:	0180006f          	j	400f2c <call_mic_write_file+0x50>
    if (cluster < 2) {
  400f18:	01012503          	lw	a0,16(sp)
  400f1c:	00100593          	li	a1,1
  400f20:	02a5e663          	bltu	a1,a0,400f4c <call_mic_write_file+0x70>
        printf("MIC.TXT has no cluster\n");
  400f24:	00402537          	lui	a0,0x402
  400f28:	32350513          	addi	a0,a0,803 # 402323 <__modsi3+0x253>
  400f2c:	00000097          	auipc	ra,0x0
  400f30:	05c080e7          	jalr	92(ra) # 400f88 <printf>
  400f34:	00000513          	li	a0,0
  400f38:	01c12083          	lw	ra,28(sp)
  400f3c:	01812403          	lw	s0,24(sp)
  400f40:	01412483          	lw	s1,20(sp)
}
  400f44:	02010113          	addi	sp,sp,32
  400f48:	00008067          	ret
        cluster_to_lba(cluster);
  400f4c:	00001097          	auipc	ra,0x1
  400f50:	988080e7          	jalr	-1656(ra) # 4018d4 <cluster_to_lba>
        cluster,
  400f54:	01012583          	lw	a1,16(sp)
        size
  400f58:	00c12683          	lw	a3,12(sp)
        cluster_to_lba(cluster);
  400f5c:	00050493          	mv	s1,a0
    printf(
  400f60:	00402537          	lui	a0,0x402
  400f64:	14950513          	addi	a0,a0,329 # 402149 <__modsi3+0x79>
  400f68:	00048613          	mv	a2,s1
  400f6c:	00000097          	auipc	ra,0x0
  400f70:	01c080e7          	jalr	28(ra) # 400f88 <printf>
    __asm__ __volatile__(
  400f74:	01500693          	li	a3,21
  400f78:	00048593          	mv	a1,s1
  400f7c:	00040513          	mv	a0,s0
  400f80:	00000073          	ecall
  400f84:	fb5ff06f          	j	400f38 <call_mic_write_file+0x5c>

00400f88 <printf>:
void printf(const char *fmt, ...) {
  400f88:	fb010113          	addi	sp,sp,-80
  400f8c:	02812623          	sw	s0,44(sp)
  400f90:	02912423          	sw	s1,40(sp)
  400f94:	03212223          	sw	s2,36(sp)
  400f98:	03312023          	sw	s3,32(sp)
  400f9c:	01412e23          	sw	s4,28(sp)
  400fa0:	00050293          	mv	t0,a0
  400fa4:	05112623          	sw	a7,76(sp)
  400fa8:	05012423          	sw	a6,72(sp)
  400fac:	04f12223          	sw	a5,68(sp)
  400fb0:	04e12023          	sw	a4,64(sp)
  400fb4:	02d12e23          	sw	a3,60(sp)
  400fb8:	02c12c23          	sw	a2,56(sp)
  400fbc:	02b12a23          	sw	a1,52(sp)
  400fc0:	03410513          	addi	a0,sp,52
    va_start(vargs, fmt);
  400fc4:	00a12c23          	sw	a0,24(sp)
  400fc8:	02500593          	li	a1,37
  400fcc:	07200613          	li	a2,114
  400fd0:	06400713          	li	a4,100
  400fd4:	02d00793          	li	a5,45
  400fd8:	ccccd537          	lui	a0,0xccccd
  400fdc:	ccd50813          	addi	a6,a0,-819 # cccccccd <USER_MAX+0xcc7ccccd>
  400fe0:	00a00893          	li	a7,10
  400fe4:	00d10313          	addi	t1,sp,13
  400fe8:	00900393          	li	t2,9
  400fec:	00100e13          	li	t3,1
  400ff0:	03000e93          	li	t4,48
  400ff4:	07300f13          	li	t5,115
  400ff8:	07800f93          	li	t6,120
  400ffc:	00402537          	lui	a0,0x402
  401000:	3a950413          	addi	s0,a0,937 # 4023a9 <$d.1+0x53>
  401004:	00c0006f          	j	401010 <printf+0x88>
            switch (*fmt) {
  401008:	20050863          	beqz	a0,401218 <printf+0x290>
        fmt++;
  40100c:	00128293          	addi	t0,t0,1
    while (*fmt) {
  401010:	0002c483          	lbu	s1,0(t0)
  401014:	00b48e63          	beq	s1,a1,401030 <printf+0xa8>
  401018:	20048863          	beqz	s1,401228 <printf+0x2a0>
    __asm__ __volatile__ (
  40101c:	00048513          	mv	a0,s1
  401020:	00100693          	li	a3,1
  401024:	00000073          	ecall
        fmt++;
  401028:	00128293          	addi	t0,t0,1
  40102c:	fe5ff06f          	j	401010 <printf+0x88>
            switch (*fmt) {
  401030:	0012c503          	lbu	a0,1(t0)
            fmt++;
  401034:	00128293          	addi	t0,t0,1
            switch (*fmt) {
  401038:	02a64c63          	blt	a2,a0,401070 <printf+0xe8>
  40103c:	12b50663          	beq	a0,a1,401168 <printf+0x1e0>
  401040:	fce514e3          	bne	a0,a4,401008 <printf+0x80>
                    int value = va_arg(vargs, int);
  401044:	01812503          	lw	a0,24(sp)
  401048:	00450693          	addi	a3,a0,4
  40104c:	00d12c23          	sw	a3,24(sp)
  401050:	00052483          	lw	s1,0(a0)
                    if (value < 0) {
  401054:	1604c063          	bltz	s1,4011b4 <printf+0x22c>
                    if (u == 0) {
  401058:	16049663          	bnez	s1,4011c4 <printf+0x23c>
    __asm__ __volatile__ (
  40105c:	000e8513          	mv	a0,t4
  401060:	00100693          	li	a3,1
  401064:	00000073          	ecall
        fmt++;
  401068:	00128293          	addi	t0,t0,1
  40106c:	fa5ff06f          	j	401010 <printf+0x88>
            switch (*fmt) {
  401070:	11e50663          	beq	a0,t5,40117c <printf+0x1f4>
  401074:	f9f51ce3          	bne	a0,t6,40100c <printf+0x84>
                    unsigned value = va_arg(vargs, unsigned);
  401078:	01812503          	lw	a0,24(sp)
  40107c:	00450693          	addi	a3,a0,4
  401080:	00d12c23          	sw	a3,24(sp)
  401084:	00052483          	lw	s1,0(a0)
                        unsigned nibble = (value >> (i * 4)) & 0xf;
  401088:	01c4d513          	srli	a0,s1,0x1c
                        putchar("0123456789abcdef"[nibble]);
  40108c:	00a40533          	add	a0,s0,a0
  401090:	00054903          	lbu	s2,0(a0)
    __asm__ __volatile__ (
  401094:	00090513          	mv	a0,s2
  401098:	00100693          	li	a3,1
  40109c:	00000073          	ecall
                        unsigned nibble = (value >> (i * 4)) & 0xf;
  4010a0:	00449513          	slli	a0,s1,0x4
  4010a4:	01c55513          	srli	a0,a0,0x1c
                        putchar("0123456789abcdef"[nibble]);
  4010a8:	00a40533          	add	a0,s0,a0
  4010ac:	00054903          	lbu	s2,0(a0)
    __asm__ __volatile__ (
  4010b0:	00090513          	mv	a0,s2
  4010b4:	00100693          	li	a3,1
  4010b8:	00000073          	ecall
                        unsigned nibble = (value >> (i * 4)) & 0xf;
  4010bc:	00849513          	slli	a0,s1,0x8
  4010c0:	01c55513          	srli	a0,a0,0x1c
                        putchar("0123456789abcdef"[nibble]);
  4010c4:	00a40533          	add	a0,s0,a0
  4010c8:	00054903          	lbu	s2,0(a0)
    __asm__ __volatile__ (
  4010cc:	00090513          	mv	a0,s2
  4010d0:	00100693          	li	a3,1
  4010d4:	00000073          	ecall
                        unsigned nibble = (value >> (i * 4)) & 0xf;
  4010d8:	00c49513          	slli	a0,s1,0xc
  4010dc:	01c55513          	srli	a0,a0,0x1c
                        putchar("0123456789abcdef"[nibble]);
  4010e0:	00a40533          	add	a0,s0,a0
  4010e4:	00054903          	lbu	s2,0(a0)
    __asm__ __volatile__ (
  4010e8:	00090513          	mv	a0,s2
  4010ec:	00100693          	li	a3,1
  4010f0:	00000073          	ecall
                        unsigned nibble = (value >> (i * 4)) & 0xf;
  4010f4:	01049513          	slli	a0,s1,0x10
  4010f8:	01c55513          	srli	a0,a0,0x1c
                        putchar("0123456789abcdef"[nibble]);
  4010fc:	00a40533          	add	a0,s0,a0
  401100:	00054903          	lbu	s2,0(a0)
    __asm__ __volatile__ (
  401104:	00090513          	mv	a0,s2
  401108:	00100693          	li	a3,1
  40110c:	00000073          	ecall
                        unsigned nibble = (value >> (i * 4)) & 0xf;
  401110:	01449513          	slli	a0,s1,0x14
  401114:	01c55513          	srli	a0,a0,0x1c
                        putchar("0123456789abcdef"[nibble]);
  401118:	00a40533          	add	a0,s0,a0
  40111c:	00054903          	lbu	s2,0(a0)
    __asm__ __volatile__ (
  401120:	00090513          	mv	a0,s2
  401124:	00100693          	li	a3,1
  401128:	00000073          	ecall
                        unsigned nibble = (value >> (i * 4)) & 0xf;
  40112c:	01849513          	slli	a0,s1,0x18
  401130:	01c55513          	srli	a0,a0,0x1c
                        putchar("0123456789abcdef"[nibble]);
  401134:	00a40533          	add	a0,s0,a0
  401138:	00054903          	lbu	s2,0(a0)
    __asm__ __volatile__ (
  40113c:	00090513          	mv	a0,s2
  401140:	00100693          	li	a3,1
  401144:	00000073          	ecall
                        unsigned nibble = (value >> (i * 4)) & 0xf;
  401148:	00f4f493          	andi	s1,s1,15
                        putchar("0123456789abcdef"[nibble]);
  40114c:	009404b3          	add	s1,s0,s1
  401150:	0004c483          	lbu	s1,0(s1)
    __asm__ __volatile__ (
  401154:	00048513          	mv	a0,s1
  401158:	00100693          	li	a3,1
  40115c:	00000073          	ecall
        fmt++;
  401160:	00128293          	addi	t0,t0,1
  401164:	eadff06f          	j	401010 <printf+0x88>
    __asm__ __volatile__ (
  401168:	00058513          	mv	a0,a1
  40116c:	00100693          	li	a3,1
  401170:	00000073          	ecall
        fmt++;
  401174:	00128293          	addi	t0,t0,1
  401178:	e99ff06f          	j	401010 <printf+0x88>
                    const char *s = va_arg(vargs, const char *);
  40117c:	01812503          	lw	a0,24(sp)
  401180:	00450693          	addi	a3,a0,4
  401184:	00d12c23          	sw	a3,24(sp)
  401188:	00052903          	lw	s2,0(a0)
                    while (*s) {
  40118c:	00094483          	lbu	s1,0(s2)
  401190:	e6048ee3          	beqz	s1,40100c <printf+0x84>
  401194:	00190913          	addi	s2,s2,1
    __asm__ __volatile__ (
  401198:	00048513          	mv	a0,s1
  40119c:	00100693          	li	a3,1
  4011a0:	00000073          	ecall
                    while (*s) {
  4011a4:	00094483          	lbu	s1,0(s2)
  4011a8:	00190913          	addi	s2,s2,1
  4011ac:	fe0496e3          	bnez	s1,401198 <printf+0x210>
  4011b0:	e5dff06f          	j	40100c <printf+0x84>
    __asm__ __volatile__ (
  4011b4:	00078513          	mv	a0,a5
  4011b8:	00100693          	li	a3,1
  4011bc:	00000073          	ecall
                        u = (unsigned int)(-(value + 1)) + 1;
  4011c0:	409004b3          	neg	s1,s1
  4011c4:	00000513          	li	a0,0
  4011c8:	00048693          	mv	a3,s1
  4011cc:	00050913          	mv	s2,a0
                        u /= 10;
  4011d0:	0304b4b3          	mulhu	s1,s1,a6
  4011d4:	0034d493          	srli	s1,s1,0x3
  4011d8:	03148533          	mul	a0,s1,a7
  4011dc:	40a68533          	sub	a0,a3,a0
                        buf[i++] = '0' + (u % 10);
  4011e0:	03056993          	ori	s3,a0,48
  4011e4:	00190513          	addi	a0,s2,1
  4011e8:	01230a33          	add	s4,t1,s2
  4011ec:	013a0023          	sb	s3,0(s4)
                    while (u > 0) {
  4011f0:	fcd3ece3          	bltu	t2,a3,4011c8 <printf+0x240>
                        putchar(buf[--i]);
  4011f4:	01230533          	add	a0,t1,s2
  4011f8:	00054483          	lbu	s1,0(a0)
    __asm__ __volatile__ (
  4011fc:	00048513          	mv	a0,s1
  401200:	00100693          	li	a3,1
  401204:	00000073          	ecall
                    while (i > 0) {
  401208:	00190513          	addi	a0,s2,1
  40120c:	fff90913          	addi	s2,s2,-1
  401210:	feae42e3          	blt	t3,a0,4011f4 <printf+0x26c>
  401214:	df9ff06f          	j	40100c <printf+0x84>
  401218:	02500593          	li	a1,37
    __asm__ __volatile__ (
  40121c:	00058513          	mv	a0,a1
  401220:	00100693          	li	a3,1
  401224:	00000073          	ecall
  401228:	02c12403          	lw	s0,44(sp)
  40122c:	02812483          	lw	s1,40(sp)
  401230:	02412903          	lw	s2,36(sp)
  401234:	02012983          	lw	s3,32(sp)
  401238:	01c12a03          	lw	s4,28(sp)
}
  40123c:	05010113          	addi	sp,sp,80
  401240:	00008067          	ret

00401244 <call_mic_write_api>:
    __asm__ __volatile__(
  401244:	01500693          	li	a3,21
  401248:	00000073          	ecall
}
  40124c:	00008067          	ret

00401250 <call_sd_read_api>:
    __asm__ __volatile__(
  401250:	01e00693          	li	a3,30
  401254:	00000073          	ecall
}
  401258:	00008067          	ret

0040125c <call_sd_write_test_api>:
    __asm__ __volatile__(
  40125c:	01f00693          	li	a3,31
  401260:	00000073          	ecall
}
  401264:	00008067          	ret

00401268 <call_sd_write_buf_api>:
    __asm__ __volatile__(
  401268:	02000693          	li	a3,32
  40126c:	00000073          	ecall
    return sd_api2(
  401270:	00008067          	ret

00401274 <call_dump_api>:
    __asm__ __volatile__(
  401274:	02800693          	li	a3,40
  401278:	00000073          	ecall
}
  40127c:	00008067          	ret

00401280 <strcpy>:
    while (*src)
  401280:	0005c603          	lbu	a2,0(a1)
  401284:	00050693          	mv	a3,a0
  401288:	02060263          	beqz	a2,4012ac <strcpy+0x2c>
  40128c:	00158593          	addi	a1,a1,1
  401290:	00050713          	mv	a4,a0
        *d++ = *src++;
  401294:	00c70023          	sb	a2,0(a4)
    while (*src)
  401298:	0005c603          	lbu	a2,0(a1)
        *d++ = *src++;
  40129c:	00170693          	addi	a3,a4,1
    while (*src)
  4012a0:	00158593          	addi	a1,a1,1
  4012a4:	00068713          	mv	a4,a3
  4012a8:	fe0616e3          	bnez	a2,401294 <strcpy+0x14>
    *d = '\0';
  4012ac:	00068023          	sb	zero,0(a3)
    return dst;
  4012b0:	00008067          	ret

004012b4 <strcmp>:
    while (*s1 && *s2) {
  4012b4:	00054603          	lbu	a2,0(a0)
  4012b8:	02060663          	beqz	a2,4012e4 <strcmp+0x30>
  4012bc:	00150513          	addi	a0,a0,1
  4012c0:	0005c683          	lbu	a3,0(a1)
  4012c4:	0ff67713          	zext.b	a4,a2
  4012c8:	00d71a63          	bne	a4,a3,4012dc <strcmp+0x28>
  4012cc:	00054603          	lbu	a2,0(a0)
        s2++;
  4012d0:	00158593          	addi	a1,a1,1
    while (*s1 && *s2) {
  4012d4:	00150513          	addi	a0,a0,1
  4012d8:	fe0614e3          	bnez	a2,4012c0 <strcmp+0xc>
    return *(unsigned char *)s1 - *(unsigned char *)s2;
  4012dc:	0ff67513          	zext.b	a0,a2
  4012e0:	0080006f          	j	4012e8 <strcmp+0x34>
  4012e4:	00000513          	li	a0,0
  4012e8:	0005c583          	lbu	a1,0(a1)
  4012ec:	40b50533          	sub	a0,a0,a1
  4012f0:	00008067          	ret

004012f4 <parse_u32>:
unsigned parse_u32(const char *s) {
  4012f4:	00050593          	mv	a1,a0
    if ((s[0] == '0') && (s[1] == 'x' || s[1] == 'X')) {
  4012f8:	00054503          	lbu	a0,0(a0)
  4012fc:	03000693          	li	a3,48
  401300:	00a00613          	li	a2,10
  401304:	02d51063          	bne	a0,a3,401324 <parse_u32+0x30>
  401308:	0015c503          	lbu	a0,1(a1)
  40130c:	02056513          	ori	a0,a0,32
  401310:	07800613          	li	a2,120
  401314:	00c51e63          	bne	a0,a2,401330 <parse_u32+0x3c>
    while (*s) {
  401318:	0025c503          	lbu	a0,2(a1)
        s += 2;
  40131c:	00258593          	addi	a1,a1,2
  401320:	01000613          	li	a2,16
  401324:	00050693          	mv	a3,a0
    while (*s) {
  401328:	00051663          	bnez	a0,401334 <parse_u32+0x40>
  40132c:	06c0006f          	j	401398 <parse_u32+0xa4>
  401330:	00a00613          	li	a2,10
  401334:	00000513          	li	a0,0
        if (c >= '0' && c <= '9')       d = (unsigned)(c - '0');
  401338:	00158593          	addi	a1,a1,1
  40133c:	00a00713          	li	a4,10
  401340:	00600793          	li	a5,6
  401344:	00500813          	li	a6,5
  401348:	fd068893          	addi	a7,a3,-48
  40134c:	0ff8f293          	zext.b	t0,a7
  401350:	fd000893          	li	a7,-48
  401354:	02e2e263          	bltu	t0,a4,401378 <parse_u32+0x84>
        else if (c >= 'a' && c <= 'f')  d = 10u + (unsigned)(c - 'a');
  401358:	f9f68893          	addi	a7,a3,-97
  40135c:	0ff8f293          	zext.b	t0,a7
  401360:	fa900893          	li	a7,-87
  401364:	00f2ea63          	bltu	t0,a5,401378 <parse_u32+0x84>
        else if (c >= 'A' && c <= 'F')  d = 10u + (unsigned)(c - 'A');
  401368:	fbf68893          	addi	a7,a3,-65
  40136c:	0ff8f293          	zext.b	t0,a7
  401370:	fc900893          	li	a7,-55
  401374:	02586263          	bltu	a6,t0,401398 <parse_u32+0xa4>
  401378:	0ff6f693          	zext.b	a3,a3
  40137c:	00d888b3          	add	a7,a7,a3
        if (d >= base) break;
  401380:	00c8fc63          	bgeu	a7,a2,401398 <parse_u32+0xa4>
    while (*s) {
  401384:	0005c683          	lbu	a3,0(a1)
        v = v * base + d;
  401388:	02c50533          	mul	a0,a0,a2
  40138c:	00a88533          	add	a0,a7,a0
    while (*s) {
  401390:	00158593          	addi	a1,a1,1
  401394:	fa069ae3          	bnez	a3,401348 <parse_u32+0x54>
    return v;
  401398:	00008067          	ret

0040139c <is_prime>:
{
  40139c:	00200593          	li	a1,2
    if (n < 2) return false;
  4013a0:	00b57663          	bgeu	a0,a1,4013ac <is_prime+0x10>
}
  4013a4:	00000513          	li	a0,0
  4013a8:	00008067          	ret
  4013ac:	00400613          	li	a2,4
  4013b0:	00100593          	li	a1,1
    for (unsigned i = 2; i * i <= n; i++) {
  4013b4:	02c56063          	bltu	a0,a2,4013d4 <is_prime+0x38>
  4013b8:	00200593          	li	a1,2
        if (n % i == 0)
  4013bc:	02b57633          	remu	a2,a0,a1
  4013c0:	00060863          	beqz	a2,4013d0 <is_prime+0x34>
    for (unsigned i = 2; i * i <= n; i++) {
  4013c4:	00158593          	addi	a1,a1,1
  4013c8:	02b586b3          	mul	a3,a1,a1
  4013cc:	fed578e3          	bgeu	a0,a3,4013bc <is_prime+0x20>
        if (n % i == 0)
  4013d0:	00c035b3          	snez	a1,a2
}
  4013d4:	00058513          	mv	a0,a1
  4013d8:	00008067          	ret

004013dc <getchar>:
    __asm__ __volatile__ (
  4013dc:	00200693          	li	a3,2
  4013e0:	00000073          	ecall
  4013e4:	00050593          	mv	a1,a0
    return ch;
  4013e8:	00058513          	mv	a0,a1
  4013ec:	00008067          	ret

004013f0 <getchar_timeout>:
    __asm__ __volatile__ (
  4013f0:	00300693          	li	a3,3
  4013f4:	00000073          	ecall
  4013f8:	00050593          	mv	a1,a0
    return ch;
  4013fc:	00058513          	mv	a0,a1
  401400:	00008067          	ret

00401404 <call_sd_read_buf_api>:
    __asm__ __volatile__(
  401404:	02100693          	li	a3,33
  401408:	00000073          	ecall
    return (int)a0;
  40140c:	00008067          	ret

00401410 <poll_switch_api>:
    __asm__ __volatile__(
  401410:	03200693          	li	a3,50
  401414:	00000073          	ecall
    return a0;
  401418:	00008067          	ret

0040141c <fat32_cat>:
static uint8_t fat32_buf[512];

fat32_info_t g_fat32;

int fat32_cat(const char *name)
{
  40141c:	de010113          	addi	sp,sp,-544
  401420:	20112e23          	sw	ra,540(sp)
  401424:	20812c23          	sw	s0,536(sp)
  401428:	20912a23          	sw	s1,532(sp)
  40142c:	00050413          	mv	s0,a0
    uint8_t buf[512];

    uint32_t cluster;
    uint32_t size;

    if (fat32_mount())
  401430:	00000097          	auipc	ra,0x0
  401434:	0d8080e7          	jalr	216(ra) # 401508 <fat32_mount>
  401438:	00050593          	mv	a1,a0
  40143c:	fff00513          	li	a0,-1
  401440:	0a059a63          	bnez	a1,4014f4 <fat32_cat+0xd8>
        return -1;

    if (fat32_find(name, &cluster, &size)) {
  401444:	01010593          	addi	a1,sp,16
  401448:	00c10613          	addi	a2,sp,12
  40144c:	00040513          	mv	a0,s0
  401450:	00000097          	auipc	ra,0x0
  401454:	1e0080e7          	jalr	480(ra) # 401630 <fat32_find>
  401458:	00050e63          	beqz	a0,401474 <fat32_cat+0x58>
        printf("file not found\n");
  40145c:	00402537          	lui	a0,0x402
  401460:	3f250513          	addi	a0,a0,1010 # 4023f2 <$d.1>
  401464:	00000097          	auipc	ra,0x0
  401468:	b24080e7          	jalr	-1244(ra) # 400f88 <printf>
  40146c:	fff00513          	li	a0,-1
  401470:	0840006f          	j	4014f4 <fat32_cat+0xd8>
        return -1;
    }

    uint32_t lba =
        cluster_to_lba(cluster);
  401474:	01012503          	lw	a0,16(sp)
    return -1;
}

uint32_t cluster_to_lba(uint32_t cluster)
{
    return g_fat32.data_begin +
  401478:	004025b7          	lui	a1,0x402
  40147c:	63058593          	addi	a1,a1,1584 # 402630 <g_fat32>
           (cluster - 2) *
           g_fat32.sectors_per_cluster;
  401480:	0105a603          	lw	a2,16(a1)
    return g_fat32.data_begin +
  401484:	0085a583          	lw	a1,8(a1)
           (cluster - 2) *
  401488:	ffe50513          	addi	a0,a0,-2
  40148c:	02a60533          	mul	a0,a2,a0
    return g_fat32.data_begin +
  401490:	00b50533          	add	a0,a0,a1
    if (call_sd_read_buf_api(lba, buf))
  401494:	01410593          	addi	a1,sp,20
  401498:	00000097          	auipc	ra,0x0
  40149c:	f6c080e7          	jalr	-148(ra) # 401404 <call_sd_read_buf_api>
  4014a0:	00050593          	mv	a1,a0
  4014a4:	fff00513          	li	a0,-1
  4014a8:	04059663          	bnez	a1,4014f4 <fat32_cat+0xd8>
  4014ac:	00c12503          	lw	a0,12(sp)
    for (uint32_t i = 0; i < size; i++) {
  4014b0:	02050a63          	beqz	a0,4014e4 <fat32_cat+0xc8>
  4014b4:	fff50513          	addi	a0,a0,-1
  4014b8:	1ff00593          	li	a1,511
  4014bc:	00b56463          	bltu	a0,a1,4014c4 <fat32_cat+0xa8>
  4014c0:	1ff00513          	li	a0,511
  4014c4:	01410413          	addi	s0,sp,20
  4014c8:	00850533          	add	a0,a0,s0
  4014cc:	00150493          	addi	s1,a0,1
        putchar(buf[i]);
  4014d0:	00044503          	lbu	a0,0(s0)
  4014d4:	00000097          	auipc	ra,0x0
  4014d8:	9d4080e7          	jalr	-1580(ra) # 400ea8 <putchar>
    for (uint32_t i = 0; i < size; i++) {
  4014dc:	00140413          	addi	s0,s0,1
  4014e0:	fe9418e3          	bne	s0,s1,4014d0 <fat32_cat+0xb4>
    putchar('\n');
  4014e4:	00a00513          	li	a0,10
  4014e8:	00000097          	auipc	ra,0x0
  4014ec:	9c0080e7          	jalr	-1600(ra) # 400ea8 <putchar>
  4014f0:	00000513          	li	a0,0
  4014f4:	21c12083          	lw	ra,540(sp)
  4014f8:	21812403          	lw	s0,536(sp)
  4014fc:	21412483          	lw	s1,532(sp)
}
  401500:	22010113          	addi	sp,sp,544
  401504:	00008067          	ret

00401508 <fat32_mount>:
}

int fat32_mount(void)
{
  401508:	ff010113          	addi	sp,sp,-16
  40150c:	00112623          	sw	ra,12(sp)
  401510:	00812423          	sw	s0,8(sp)
  401514:	00912223          	sw	s1,4(sp)
  401518:	01212023          	sw	s2,0(sp)
    uint8_t *buf = fat32_buf;

    if (call_sd_read_buf_api(0, buf))
  40151c:	00402537          	lui	a0,0x402
  401520:	43050493          	addi	s1,a0,1072 # 402430 <fat32_buf>
  401524:	00000513          	li	a0,0
  401528:	00048593          	mv	a1,s1
  40152c:	00000097          	auipc	ra,0x0
  401530:	ed8080e7          	jalr	-296(ra) # 401404 <call_sd_read_buf_api>
  401534:	fff00413          	li	s0,-1
  401538:	0c051e63          	bnez	a0,401614 <fat32_mount+0x10c>
        return -1;

    g_fat32.part_lba =
        ((uint32_t)buf[0x1C6]) |
        ((uint32_t)buf[0x1C7] << 8) |
  40153c:	1c74c503          	lbu	a0,455(s1)
        ((uint32_t)buf[0x1C6]) |
  401540:	1c64c583          	lbu	a1,454(s1)
        ((uint32_t)buf[0x1C8] << 16) |
  401544:	1c84c603          	lbu	a2,456(s1)
        ((uint32_t)buf[0x1C9] << 24);
  401548:	1c94c683          	lbu	a3,457(s1)
        ((uint32_t)buf[0x1C7] << 8) |
  40154c:	00851513          	slli	a0,a0,0x8
        ((uint32_t)buf[0x1C6]) |
  401550:	00b56533          	or	a0,a0,a1
        ((uint32_t)buf[0x1C8] << 16) |
  401554:	01061613          	slli	a2,a2,0x10
        ((uint32_t)buf[0x1C9] << 24);
  401558:	01869693          	slli	a3,a3,0x18
        ((uint32_t)buf[0x1C7] << 8) |
  40155c:	00d66633          	or	a2,a2,a3
        ((uint32_t)buf[0x1C8] << 16) |
  401560:	00c56533          	or	a0,a0,a2
    g_fat32.part_lba =
  401564:	00402937          	lui	s2,0x402
  401568:	62a92823          	sw	a0,1584(s2) # 402630 <g_fat32>

    if (call_sd_read_buf_api(g_fat32.part_lba, buf))
  40156c:	00048593          	mv	a1,s1
  401570:	00000097          	auipc	ra,0x0
  401574:	e94080e7          	jalr	-364(ra) # 401404 <call_sd_read_buf_api>
  401578:	08051e63          	bnez	a0,401614 <fat32_mount+0x10c>
        return -1;

    uint32_t reserved =
        ((uint32_t)buf[14]) |
  40157c:	00402537          	lui	a0,0x402
  401580:	43050513          	addi	a0,a0,1072 # 402430 <fat32_buf>
        ((uint32_t)buf[15] << 8);
  401584:	00f54583          	lbu	a1,15(a0)
        ((uint32_t)buf[14]) |
  401588:	00e54603          	lbu	a2,14(a0)
  40158c:	00000413          	li	s0,0
        ((uint32_t)buf[15] << 8);
  401590:	00859593          	slli	a1,a1,0x8
        ((uint32_t)buf[14]) |
  401594:	00c5e5b3          	or	a1,a1,a2
    uint32_t fat_count =
        (uint32_t)buf[16];

    uint32_t fat_size =
        ((uint32_t)buf[36]) |
        ((uint32_t)buf[37] << 8) |
  401598:	02554603          	lbu	a2,37(a0)
        ((uint32_t)buf[36]) |
  40159c:	02454683          	lbu	a3,36(a0)
        ((uint32_t)buf[38] << 16) |
  4015a0:	02654703          	lbu	a4,38(a0)
        ((uint32_t)buf[39] << 24);
  4015a4:	02754783          	lbu	a5,39(a0)
        ((uint32_t)buf[37] << 8) |
  4015a8:	00861613          	slli	a2,a2,0x8
        ((uint32_t)buf[36]) |
  4015ac:	00d66633          	or	a2,a2,a3
        ((uint32_t)buf[38] << 16) |
  4015b0:	01071713          	slli	a4,a4,0x10
        ((uint32_t)buf[39] << 24);
  4015b4:	01879793          	slli	a5,a5,0x18

    g_fat32.sectors_per_cluster =
        (uint32_t)buf[13];
  4015b8:	00d54683          	lbu	a3,13(a0)
        ((uint32_t)buf[37] << 8) |
  4015bc:	00f76733          	or	a4,a4,a5
        ((uint32_t)buf[38] << 16) |
  4015c0:	00e66633          	or	a2,a2,a4
    g_fat32.sectors_per_cluster =
  4015c4:	63090713          	addi	a4,s2,1584
  4015c8:	00d72823          	sw	a3,16(a4)

    g_fat32.root_cluster =
        ((uint32_t)buf[44]) |
        ((uint32_t)buf[45] << 8) |
  4015cc:	02d54683          	lbu	a3,45(a0)
        ((uint32_t)buf[44]) |
  4015d0:	02c54783          	lbu	a5,44(a0)
        ((uint32_t)buf[46] << 16) |
  4015d4:	02e54803          	lbu	a6,46(a0)
        ((uint32_t)buf[47] << 24);
  4015d8:	02f54883          	lbu	a7,47(a0)
        ((uint32_t)buf[45] << 8) |
  4015dc:	00869693          	slli	a3,a3,0x8
        ((uint32_t)buf[44]) |
  4015e0:	00f6e6b3          	or	a3,a3,a5
        ((uint32_t)buf[46] << 16) |
  4015e4:	01081813          	slli	a6,a6,0x10
        ((uint32_t)buf[47] << 24);
  4015e8:	01889893          	slli	a7,a7,0x18
        ((uint32_t)buf[45] << 8) |
  4015ec:	011867b3          	or	a5,a6,a7

    g_fat32.fat_begin =
        g_fat32.part_lba + reserved;
  4015f0:	63092803          	lw	a6,1584(s2)
        (uint32_t)buf[16];
  4015f4:	01054503          	lbu	a0,16(a0)
        ((uint32_t)buf[46] << 16) |
  4015f8:	00f6e6b3          	or	a3,a3,a5
    g_fat32.root_cluster =
  4015fc:	00d72623          	sw	a3,12(a4)
        g_fat32.part_lba + reserved;
  401600:	00b805b3          	add	a1,a6,a1
    g_fat32.fat_begin =
  401604:	00b72223          	sw	a1,4(a4)

    g_fat32.data_begin =
        g_fat32.fat_begin + fat_count * fat_size;
  401608:	02a60533          	mul	a0,a2,a0
  40160c:	00a58533          	add	a0,a1,a0
    g_fat32.data_begin =
  401610:	00a72423          	sw	a0,8(a4)

    return 0;
}
  401614:	00040513          	mv	a0,s0
  401618:	00c12083          	lw	ra,12(sp)
  40161c:	00812403          	lw	s0,8(sp)
  401620:	00412483          	lw	s1,4(sp)
  401624:	00012903          	lw	s2,0(sp)
  401628:	01010113          	addi	sp,sp,16
  40162c:	00008067          	ret

00401630 <fat32_find>:
{
  401630:	fc010113          	addi	sp,sp,-64
  401634:	02112e23          	sw	ra,60(sp)
  401638:	02812c23          	sw	s0,56(sp)
  40163c:	02912a23          	sw	s1,52(sp)
  401640:	03212823          	sw	s2,48(sp)
  401644:	03312623          	sw	s3,44(sp)
  401648:	03412423          	sw	s4,40(sp)
  40164c:	03512223          	sw	s5,36(sp)
  401650:	03612023          	sw	s6,32(sp)
  401654:	01712e23          	sw	s7,28(sp)
  401658:	01812c23          	sw	s8,24(sp)
  40165c:	01912a23          	sw	s9,20(sp)
  401660:	01a12823          	sw	s10,16(sp)
  401664:	00060413          	mv	s0,a2
  401668:	00058493          	mv	s1,a1
  40166c:	00050a13          	mv	s4,a0
    if (fat32_mount())
  401670:	00000097          	auipc	ra,0x0
  401674:	e98080e7          	jalr	-360(ra) # 401508 <fat32_mount>
  401678:	fff00913          	li	s2,-1
  40167c:	02051e63          	bnez	a0,4016b8 <fat32_find+0x88>
        cluster_to_lba(g_fat32.root_cluster);
  401680:	00402537          	lui	a0,0x402
  401684:	63050513          	addi	a0,a0,1584 # 402630 <g_fat32>
  401688:	00c52583          	lw	a1,12(a0)
           g_fat32.sectors_per_cluster;
  40168c:	01052603          	lw	a2,16(a0)
    return g_fat32.data_begin +
  401690:	00852503          	lw	a0,8(a0)
           (cluster - 2) *
  401694:	ffe58593          	addi	a1,a1,-2
  401698:	02b605b3          	mul	a1,a2,a1
    return g_fat32.data_begin +
  40169c:	00a58533          	add	a0,a1,a0
    if (call_sd_read_buf_api(root_lba, buf))
  4016a0:	004025b7          	lui	a1,0x402
  4016a4:	43058993          	addi	s3,a1,1072 # 402430 <fat32_buf>
  4016a8:	00098593          	mv	a1,s3
  4016ac:	00000097          	auipc	ra,0x0
  4016b0:	d58080e7          	jalr	-680(ra) # 401404 <call_sd_read_buf_api>
  4016b4:	04050063          	beqz	a0,4016f4 <fat32_find+0xc4>
}
  4016b8:	00090513          	mv	a0,s2
  4016bc:	03c12083          	lw	ra,60(sp)
  4016c0:	03812403          	lw	s0,56(sp)
  4016c4:	03412483          	lw	s1,52(sp)
  4016c8:	03012903          	lw	s2,48(sp)
  4016cc:	02c12983          	lw	s3,44(sp)
  4016d0:	02812a03          	lw	s4,40(sp)
  4016d4:	02412a83          	lw	s5,36(sp)
  4016d8:	02012b03          	lw	s6,32(sp)
  4016dc:	01c12b83          	lw	s7,28(sp)
  4016e0:	01812c03          	lw	s8,24(sp)
  4016e4:	01412c83          	lw	s9,20(sp)
  4016e8:	01012d03          	lw	s10,16(sp)
  4016ec:	04010113          	addi	sp,sp,64
  4016f0:	00008067          	ret
  4016f4:	01000a93          	li	s5,16
  4016f8:	0e500b13          	li	s6,229
  4016fc:	00f00b93          	li	s7,15
  401700:	02000c13          	li	s8,32
  401704:	00310c93          	addi	s9,sp,3
  401708:	02e00d13          	li	s10,46
  40170c:	0380006f          	j	401744 <fat32_find+0x114>
                    shortname[k++] = e[j];
  401710:	00158513          	addi	a0,a1,1
  401714:	00bc85b3          	add	a1,s9,a1
  401718:	00c58023          	sb	a2,0(a1)
        shortname[k] = '\0';
  40171c:	00ac8533          	add	a0,s9,a0
  401720:	00050023          	sb	zero,0(a0)
        if (strcmp(shortname, name) == 0) {
  401724:	00310513          	addi	a0,sp,3
  401728:	000a0593          	mv	a1,s4
  40172c:	00000097          	auipc	ra,0x0
  401730:	b88080e7          	jalr	-1144(ra) # 4012b4 <strcmp>
  401734:	14050063          	beqz	a0,401874 <fat32_find+0x244>
    for (int i = 0; i < 16; i++) {
  401738:	fffa8a93          	addi	s5,s5,-1
  40173c:	02098993          	addi	s3,s3,32
  401740:	f60a8ce3          	beqz	s5,4016b8 <fat32_find+0x88>
        if (e[0] == 0x00)
  401744:	0009c503          	lbu	a0,0(s3)
  401748:	ff6508e3          	beq	a0,s6,401738 <fat32_find+0x108>
  40174c:	f60506e3          	beqz	a0,4016b8 <fat32_find+0x88>
        if (e[11] == 0x0F)
  401750:	00b9c583          	lbu	a1,11(s3)
  401754:	ff7582e3          	beq	a1,s7,401738 <fat32_find+0x108>
            if (e[j] != ' ')
  401758:	01851a63          	bne	a0,s8,40176c <fat32_find+0x13c>
  40175c:	00000513          	li	a0,0
  401760:	0019c583          	lbu	a1,1(s3)
  401764:	01859c63          	bne	a1,s8,40177c <fat32_find+0x14c>
  401768:	0200006f          	j	401788 <fat32_find+0x158>
                shortname[k++] = e[j];
  40176c:	00a101a3          	sb	a0,3(sp)
  401770:	00100513          	li	a0,1
            if (e[j] != ' ')
  401774:	0019c583          	lbu	a1,1(s3)
  401778:	01858863          	beq	a1,s8,401788 <fat32_find+0x158>
                shortname[k++] = e[j];
  40177c:	00ac8633          	add	a2,s9,a0
  401780:	00150513          	addi	a0,a0,1
  401784:	00b60023          	sb	a1,0(a2)
            if (e[j] != ' ')
  401788:	0029c583          	lbu	a1,2(s3)
  40178c:	03859c63          	bne	a1,s8,4017c4 <fat32_find+0x194>
  401790:	0039c583          	lbu	a1,3(s3)
  401794:	05859263          	bne	a1,s8,4017d8 <fat32_find+0x1a8>
  401798:	0049c583          	lbu	a1,4(s3)
  40179c:	05859863          	bne	a1,s8,4017ec <fat32_find+0x1bc>
  4017a0:	0059c583          	lbu	a1,5(s3)
  4017a4:	05859e63          	bne	a1,s8,401800 <fat32_find+0x1d0>
  4017a8:	0069c583          	lbu	a1,6(s3)
  4017ac:	07859463          	bne	a1,s8,401814 <fat32_find+0x1e4>
  4017b0:	0079c583          	lbu	a1,7(s3)
  4017b4:	07859a63          	bne	a1,s8,401828 <fat32_find+0x1f8>
        if (e[8] != ' ') {
  4017b8:	0089c603          	lbu	a2,8(s3)
  4017bc:	f78600e3          	beq	a2,s8,40171c <fat32_find+0xec>
  4017c0:	07c0006f          	j	40183c <fat32_find+0x20c>
                shortname[k++] = e[j];
  4017c4:	00ac8633          	add	a2,s9,a0
  4017c8:	00150513          	addi	a0,a0,1
  4017cc:	00b60023          	sb	a1,0(a2)
            if (e[j] != ' ')
  4017d0:	0039c583          	lbu	a1,3(s3)
  4017d4:	fd8582e3          	beq	a1,s8,401798 <fat32_find+0x168>
                shortname[k++] = e[j];
  4017d8:	00ac8633          	add	a2,s9,a0
  4017dc:	00150513          	addi	a0,a0,1
  4017e0:	00b60023          	sb	a1,0(a2)
            if (e[j] != ' ')
  4017e4:	0049c583          	lbu	a1,4(s3)
  4017e8:	fb858ce3          	beq	a1,s8,4017a0 <fat32_find+0x170>
                shortname[k++] = e[j];
  4017ec:	00ac8633          	add	a2,s9,a0
  4017f0:	00150513          	addi	a0,a0,1
  4017f4:	00b60023          	sb	a1,0(a2)
            if (e[j] != ' ')
  4017f8:	0059c583          	lbu	a1,5(s3)
  4017fc:	fb8586e3          	beq	a1,s8,4017a8 <fat32_find+0x178>
                shortname[k++] = e[j];
  401800:	00ac8633          	add	a2,s9,a0
  401804:	00150513          	addi	a0,a0,1
  401808:	00b60023          	sb	a1,0(a2)
            if (e[j] != ' ')
  40180c:	0069c583          	lbu	a1,6(s3)
  401810:	fb8580e3          	beq	a1,s8,4017b0 <fat32_find+0x180>
                shortname[k++] = e[j];
  401814:	00ac8633          	add	a2,s9,a0
  401818:	00150513          	addi	a0,a0,1
  40181c:	00b60023          	sb	a1,0(a2)
            if (e[j] != ' ')
  401820:	0079c583          	lbu	a1,7(s3)
  401824:	f9858ae3          	beq	a1,s8,4017b8 <fat32_find+0x188>
                shortname[k++] = e[j];
  401828:	00ac8633          	add	a2,s9,a0
  40182c:	00150513          	addi	a0,a0,1
  401830:	00b60023          	sb	a1,0(a2)
        if (e[8] != ' ') {
  401834:	0089c603          	lbu	a2,8(s3)
  401838:	ef8602e3          	beq	a2,s8,40171c <fat32_find+0xec>
                if (e[j] != ' ')
  40183c:	0099c683          	lbu	a3,9(s3)
            shortname[k++] = '.';
  401840:	00ac8733          	add	a4,s9,a0
  401844:	01a70023          	sb	s10,0(a4)
                    shortname[k++] = e[j];
  401848:	00250593          	addi	a1,a0,2
  40184c:	00c700a3          	sb	a2,1(a4)
                if (e[j] != ' ')
  401850:	01868a63          	beq	a3,s8,401864 <fat32_find+0x234>
                    shortname[k++] = e[j];
  401854:	00bc85b3          	add	a1,s9,a1
  401858:	00350513          	addi	a0,a0,3
  40185c:	00d58023          	sb	a3,0(a1)
  401860:	00050593          	mv	a1,a0
                if (e[j] != ' ')
  401864:	00a9c603          	lbu	a2,10(s3)
  401868:	eb8614e3          	bne	a2,s8,401710 <fat32_find+0xe0>
  40186c:	00058513          	mv	a0,a1
  401870:	eadff06f          	j	40171c <fat32_find+0xec>
  401874:	00000913          	li	s2,0
                ((uint32_t)e[21] << 8);
  401878:	0159c503          	lbu	a0,21(s3)
                ((uint32_t)e[20]) |
  40187c:	0149c583          	lbu	a1,20(s3)
                ((uint32_t)e[26]) |
  401880:	01a9c603          	lbu	a2,26(s3)
                ((uint32_t)e[27] << 8);
  401884:	01b9c683          	lbu	a3,27(s3)
                (cl_hi << 16) | cl_lo;
  401888:	01851513          	slli	a0,a0,0x18
  40188c:	01059593          	slli	a1,a1,0x10
                ((uint32_t)e[26]) |
  401890:	00b56533          	or	a0,a0,a1
                ((uint32_t)e[27] << 8);
  401894:	00869693          	slli	a3,a3,0x8
                (cl_hi << 16) | cl_lo;
  401898:	00d66633          	or	a2,a2,a3
  40189c:	00c56533          	or	a0,a0,a2
            *cluster =
  4018a0:	00a4a023          	sw	a0,0(s1)
                ((uint32_t)e[29] << 8) |
  4018a4:	01d9c503          	lbu	a0,29(s3)
                ((uint32_t)e[28]) |
  4018a8:	01c9c583          	lbu	a1,28(s3)
                ((uint32_t)e[30] << 16) |
  4018ac:	01e9c603          	lbu	a2,30(s3)
                ((uint32_t)e[31] << 24);
  4018b0:	01f9c683          	lbu	a3,31(s3)
                ((uint32_t)e[29] << 8) |
  4018b4:	00851513          	slli	a0,a0,0x8
                ((uint32_t)e[28]) |
  4018b8:	00b56533          	or	a0,a0,a1
                ((uint32_t)e[30] << 16) |
  4018bc:	01061613          	slli	a2,a2,0x10
                ((uint32_t)e[31] << 24);
  4018c0:	01869693          	slli	a3,a3,0x18
                ((uint32_t)e[29] << 8) |
  4018c4:	00d66633          	or	a2,a2,a3
                ((uint32_t)e[30] << 16) |
  4018c8:	00c56533          	or	a0,a0,a2
            *size =
  4018cc:	00a42023          	sw	a0,0(s0)
  4018d0:	de9ff06f          	j	4016b8 <fat32_find+0x88>

004018d4 <cluster_to_lba>:
    return g_fat32.data_begin +
  4018d4:	004025b7          	lui	a1,0x402
  4018d8:	63058593          	addi	a1,a1,1584 # 402630 <g_fat32>
           g_fat32.sectors_per_cluster;
  4018dc:	0105a603          	lw	a2,16(a1)
    return g_fat32.data_begin +
  4018e0:	0085a583          	lw	a1,8(a1)
           (cluster - 2) *
  4018e4:	ffe50513          	addi	a0,a0,-2
  4018e8:	02a60533          	mul	a0,a2,a0
    return g_fat32.data_begin +
  4018ec:	00b50533          	add	a0,a0,a1
  4018f0:	00008067          	ret

004018f4 <fat32_ls>:

void fat32_ls(void)
{
  4018f4:	fd010113          	addi	sp,sp,-48
  4018f8:	02112623          	sw	ra,44(sp)
  4018fc:	02812423          	sw	s0,40(sp)
  401900:	02912223          	sw	s1,36(sp)
  401904:	03212023          	sw	s2,32(sp)
  401908:	01312e23          	sw	s3,28(sp)
  40190c:	01412c23          	sw	s4,24(sp)
  401910:	01512a23          	sw	s5,20(sp)
  401914:	01612823          	sw	s6,16(sp)
  401918:	01712623          	sw	s7,12(sp)
  40191c:	01812423          	sw	s8,8(sp)
    uint8_t *buf = fat32_buf;

    if (fat32_mount())
  401920:	00000097          	auipc	ra,0x0
  401924:	be8080e7          	jalr	-1048(ra) # 401508 <fat32_mount>
  401928:	02051e63          	bnez	a0,401964 <fat32_ls+0x70>
        return;

    uint32_t root_lba =
        cluster_to_lba(g_fat32.root_cluster);
  40192c:	00402537          	lui	a0,0x402
  401930:	63050993          	addi	s3,a0,1584 # 402630 <g_fat32>
  401934:	00c9a503          	lw	a0,12(s3)
           g_fat32.sectors_per_cluster;
  401938:	0109a583          	lw	a1,16(s3)
    return g_fat32.data_begin +
  40193c:	0089a603          	lw	a2,8(s3)
           (cluster - 2) *
  401940:	ffe50513          	addi	a0,a0,-2
  401944:	02a58533          	mul	a0,a1,a0
    return g_fat32.data_begin +
  401948:	00c50533          	add	a0,a0,a2

    if (call_sd_read_buf_api(root_lba, buf))
  40194c:	004025b7          	lui	a1,0x402
  401950:	43058413          	addi	s0,a1,1072 # 402430 <fat32_buf>
  401954:	00040593          	mv	a1,s0
  401958:	00000097          	auipc	ra,0x0
  40195c:	aac080e7          	jalr	-1364(ra) # 401404 <call_sd_read_buf_api>
  401960:	02050a63          	beqz	a0,401994 <fat32_ls+0xa0>
  401964:	02c12083          	lw	ra,44(sp)
  401968:	02812403          	lw	s0,40(sp)
  40196c:	02412483          	lw	s1,36(sp)
  401970:	02012903          	lw	s2,32(sp)
  401974:	01c12983          	lw	s3,28(sp)
  401978:	01812a03          	lw	s4,24(sp)
  40197c:	01412a83          	lw	s5,20(sp)
  401980:	01012b03          	lw	s6,16(sp)
  401984:	00c12b83          	lw	s7,12(sp)
  401988:	00812c03          	lw	s8,8(sp)
        printf(" cl=%x lba=%x size=%x\n",
                cl,
                lba,
                size);
    }
}
  40198c:	03010113          	addi	sp,sp,48
  401990:	00008067          	ret
  401994:	01000a13          	li	s4,16
  401998:	0e500a93          	li	s5,229
  40199c:	00f00b13          	li	s6,15
  4019a0:	02000b93          	li	s7,32
  4019a4:	00402537          	lui	a0,0x402
  4019a8:	1cd50493          	addi	s1,a0,461 # 4021cd <__modsi3+0xfd>
  4019ac:	00200c13          	li	s8,2
  4019b0:	00402537          	lui	a0,0x402
  4019b4:	27a50913          	addi	s2,a0,634 # 40227a <__modsi3+0x1aa>
  4019b8:	0580006f          	j	401a10 <fat32_ls+0x11c>
           g_fat32.sectors_per_cluster;
  4019bc:	0109a503          	lw	a0,16(s3)
    return g_fat32.data_begin +
  4019c0:	0089a603          	lw	a2,8(s3)
           (cluster - 2) *
  4019c4:	ffe58693          	addi	a3,a1,-2
  4019c8:	02d50533          	mul	a0,a0,a3
    return g_fat32.data_begin +
  4019cc:	00c50633          	add	a2,a0,a2
            ((uint32_t)e[29] << 8) |
  4019d0:	01d44503          	lbu	a0,29(s0)
            ((uint32_t)e[28]) |
  4019d4:	01c44683          	lbu	a3,28(s0)
            ((uint32_t)e[30] << 16) |
  4019d8:	01e44703          	lbu	a4,30(s0)
            ((uint32_t)e[31] << 24);
  4019dc:	01f44783          	lbu	a5,31(s0)
            ((uint32_t)e[29] << 8) |
  4019e0:	00851513          	slli	a0,a0,0x8
            ((uint32_t)e[28]) |
  4019e4:	00d56533          	or	a0,a0,a3
            ((uint32_t)e[30] << 16) |
  4019e8:	01071713          	slli	a4,a4,0x10
            ((uint32_t)e[31] << 24);
  4019ec:	01879793          	slli	a5,a5,0x18
            ((uint32_t)e[29] << 8) |
  4019f0:	00f766b3          	or	a3,a4,a5
            ((uint32_t)e[30] << 16) |
  4019f4:	00d566b3          	or	a3,a0,a3
        printf(" cl=%x lba=%x size=%x\n",
  4019f8:	00090513          	mv	a0,s2
  4019fc:	fffff097          	auipc	ra,0xfffff
  401a00:	58c080e7          	jalr	1420(ra) # 400f88 <printf>
    for (int i = 0; i < 16; i++) {
  401a04:	fffa0a13          	addi	s4,s4,-1
  401a08:	02040413          	addi	s0,s0,32
  401a0c:	f40a0ce3          	beqz	s4,401964 <fat32_ls+0x70>
        if (e[0] == 0x00)
  401a10:	00044503          	lbu	a0,0(s0)
  401a14:	ff5508e3          	beq	a0,s5,401a04 <fat32_ls+0x110>
  401a18:	f40506e3          	beqz	a0,401964 <fat32_ls+0x70>
        if (e[11] == 0x0F)
  401a1c:	00b44583          	lbu	a1,11(s0)
  401a20:	ff6582e3          	beq	a1,s6,401a04 <fat32_ls+0x110>
            if (e[j] != ' ')
  401a24:	05751463          	bne	a0,s7,401a6c <fat32_ls+0x178>
  401a28:	00144503          	lbu	a0,1(s0)
  401a2c:	05751863          	bne	a0,s7,401a7c <fat32_ls+0x188>
  401a30:	00244503          	lbu	a0,2(s0)
  401a34:	05751c63          	bne	a0,s7,401a8c <fat32_ls+0x198>
  401a38:	00344503          	lbu	a0,3(s0)
  401a3c:	07751063          	bne	a0,s7,401a9c <fat32_ls+0x1a8>
  401a40:	00444503          	lbu	a0,4(s0)
  401a44:	07751463          	bne	a0,s7,401aac <fat32_ls+0x1b8>
  401a48:	00544503          	lbu	a0,5(s0)
  401a4c:	07751863          	bne	a0,s7,401abc <fat32_ls+0x1c8>
  401a50:	00644503          	lbu	a0,6(s0)
  401a54:	07751c63          	bne	a0,s7,401acc <fat32_ls+0x1d8>
  401a58:	00744503          	lbu	a0,7(s0)
  401a5c:	09751063          	bne	a0,s7,401adc <fat32_ls+0x1e8>
        if (e[8] != ' ') {
  401a60:	00844503          	lbu	a0,8(s0)
  401a64:	09751463          	bne	a0,s7,401aec <fat32_ls+0x1f8>
  401a68:	0b00006f          	j	401b18 <fat32_ls+0x224>
                putchar(e[j]);
  401a6c:	fffff097          	auipc	ra,0xfffff
  401a70:	43c080e7          	jalr	1084(ra) # 400ea8 <putchar>
            if (e[j] != ' ')
  401a74:	00144503          	lbu	a0,1(s0)
  401a78:	fb750ce3          	beq	a0,s7,401a30 <fat32_ls+0x13c>
                putchar(e[j]);
  401a7c:	fffff097          	auipc	ra,0xfffff
  401a80:	42c080e7          	jalr	1068(ra) # 400ea8 <putchar>
            if (e[j] != ' ')
  401a84:	00244503          	lbu	a0,2(s0)
  401a88:	fb7508e3          	beq	a0,s7,401a38 <fat32_ls+0x144>
                putchar(e[j]);
  401a8c:	fffff097          	auipc	ra,0xfffff
  401a90:	41c080e7          	jalr	1052(ra) # 400ea8 <putchar>
            if (e[j] != ' ')
  401a94:	00344503          	lbu	a0,3(s0)
  401a98:	fb7504e3          	beq	a0,s7,401a40 <fat32_ls+0x14c>
                putchar(e[j]);
  401a9c:	fffff097          	auipc	ra,0xfffff
  401aa0:	40c080e7          	jalr	1036(ra) # 400ea8 <putchar>
            if (e[j] != ' ')
  401aa4:	00444503          	lbu	a0,4(s0)
  401aa8:	fb7500e3          	beq	a0,s7,401a48 <fat32_ls+0x154>
                putchar(e[j]);
  401aac:	fffff097          	auipc	ra,0xfffff
  401ab0:	3fc080e7          	jalr	1020(ra) # 400ea8 <putchar>
            if (e[j] != ' ')
  401ab4:	00544503          	lbu	a0,5(s0)
  401ab8:	f9750ce3          	beq	a0,s7,401a50 <fat32_ls+0x15c>
                putchar(e[j]);
  401abc:	fffff097          	auipc	ra,0xfffff
  401ac0:	3ec080e7          	jalr	1004(ra) # 400ea8 <putchar>
            if (e[j] != ' ')
  401ac4:	00644503          	lbu	a0,6(s0)
  401ac8:	f97508e3          	beq	a0,s7,401a58 <fat32_ls+0x164>
                putchar(e[j]);
  401acc:	fffff097          	auipc	ra,0xfffff
  401ad0:	3dc080e7          	jalr	988(ra) # 400ea8 <putchar>
            if (e[j] != ' ')
  401ad4:	00744503          	lbu	a0,7(s0)
  401ad8:	f97504e3          	beq	a0,s7,401a60 <fat32_ls+0x16c>
                putchar(e[j]);
  401adc:	fffff097          	auipc	ra,0xfffff
  401ae0:	3cc080e7          	jalr	972(ra) # 400ea8 <putchar>
        if (e[8] != ' ') {
  401ae4:	00844503          	lbu	a0,8(s0)
  401ae8:	03750863          	beq	a0,s7,401b18 <fat32_ls+0x224>
            putchar('.');
  401aec:	02e00513          	li	a0,46
  401af0:	fffff097          	auipc	ra,0xfffff
  401af4:	3b8080e7          	jalr	952(ra) # 400ea8 <putchar>
                if (e[j] != ' ')
  401af8:	00844503          	lbu	a0,8(s0)
  401afc:	07751063          	bne	a0,s7,401b5c <fat32_ls+0x268>
  401b00:	00944503          	lbu	a0,9(s0)
  401b04:	07751463          	bne	a0,s7,401b6c <fat32_ls+0x278>
  401b08:	00a44503          	lbu	a0,10(s0)
  401b0c:	01750663          	beq	a0,s7,401b18 <fat32_ls+0x224>
                    putchar(e[j]);
  401b10:	fffff097          	auipc	ra,0xfffff
  401b14:	398080e7          	jalr	920(ra) # 400ea8 <putchar>
        printf(" attr=%x", (uint32_t)e[11]);
  401b18:	00b44583          	lbu	a1,11(s0)
  401b1c:	00048513          	mv	a0,s1
  401b20:	fffff097          	auipc	ra,0xfffff
  401b24:	468080e7          	jalr	1128(ra) # 400f88 <printf>
            ((uint32_t)e[27] << 8);
  401b28:	01b44503          	lbu	a0,27(s0)
            ((uint32_t)e[21] << 8);
  401b2c:	01544583          	lbu	a1,21(s0)
            ((uint32_t)e[20]) |
  401b30:	01444603          	lbu	a2,20(s0)
            ((uint32_t)e[26]) |
  401b34:	01a44683          	lbu	a3,26(s0)
            ((uint32_t)e[27] << 8);
  401b38:	00851513          	slli	a0,a0,0x8
            (cl_hi << 16) | cl_lo;
  401b3c:	01859593          	slli	a1,a1,0x18
  401b40:	01061613          	slli	a2,a2,0x10
            ((uint32_t)e[26]) |
  401b44:	00c5e5b3          	or	a1,a1,a2
            (cl_hi << 16) | cl_lo;
  401b48:	00a6e533          	or	a0,a3,a0
  401b4c:	00a5e5b3          	or	a1,a1,a0
        if (cl >= 2)
  401b50:	e785f6e3          	bgeu	a1,s8,4019bc <fat32_ls+0xc8>
  401b54:	00000613          	li	a2,0
  401b58:	e79ff06f          	j	4019d0 <fat32_ls+0xdc>
                    putchar(e[j]);
  401b5c:	fffff097          	auipc	ra,0xfffff
  401b60:	34c080e7          	jalr	844(ra) # 400ea8 <putchar>
                if (e[j] != ' ')
  401b64:	00944503          	lbu	a0,9(s0)
  401b68:	fb7500e3          	beq	a0,s7,401b08 <fat32_ls+0x214>
                    putchar(e[j]);
  401b6c:	fffff097          	auipc	ra,0xfffff
  401b70:	33c080e7          	jalr	828(ra) # 400ea8 <putchar>
                if (e[j] != ' ')
  401b74:	00a44503          	lbu	a0,10(s0)
  401b78:	f9751ce3          	bne	a0,s7,401b10 <fat32_ls+0x21c>
  401b7c:	f9dff06f          	j	401b18 <fat32_ls+0x224>

00401b80 <fat32_touch>:

    return 0;
}

int fat32_touch(const char *name)
{
  401b80:	fe010113          	addi	sp,sp,-32
  401b84:	00112e23          	sw	ra,28(sp)
  401b88:	00812c23          	sw	s0,24(sp)
  401b8c:	00912a23          	sw	s1,20(sp)
  401b90:	01212823          	sw	s2,16(sp)
  401b94:	01312623          	sw	s3,12(sp)
  401b98:	00050413          	mv	s0,a0
    uint8_t *buf = fat32_buf;

    if (fat32_mount())
  401b9c:	00000097          	auipc	ra,0x0
  401ba0:	96c080e7          	jalr	-1684(ra) # 401508 <fat32_mount>
  401ba4:	fff00993          	li	s3,-1
  401ba8:	3e051663          	bnez	a0,401f94 <fat32_touch+0x414>
        return -1;

    uint32_t root_lba =
        cluster_to_lba(g_fat32.root_cluster);
  401bac:	00402537          	lui	a0,0x402
  401bb0:	63050513          	addi	a0,a0,1584 # 402630 <g_fat32>
  401bb4:	00c52583          	lw	a1,12(a0)
           g_fat32.sectors_per_cluster;
  401bb8:	01052603          	lw	a2,16(a0)
    return g_fat32.data_begin +
  401bbc:	00852483          	lw	s1,8(a0)
           (cluster - 2) *
  401bc0:	ffe58593          	addi	a1,a1,-2
  401bc4:	02b60533          	mul	a0,a2,a1
    return g_fat32.data_begin +
  401bc8:	009504b3          	add	s1,a0,s1

    if (call_sd_read_buf_api(root_lba, buf))
  401bcc:	00402537          	lui	a0,0x402
  401bd0:	43050593          	addi	a1,a0,1072 # 402430 <fat32_buf>
  401bd4:	00048513          	mv	a0,s1
  401bd8:	00000097          	auipc	ra,0x0
  401bdc:	82c080e7          	jalr	-2004(ra) # 401404 <call_sd_read_buf_api>
  401be0:	3a051a63          	bnez	a0,401f94 <fat32_touch+0x414>
  401be4:	02000593          	li	a1,32
        out[i] = ' ';
  401be8:	00b100a3          	sb	a1,1(sp)
  401bec:	00b10123          	sb	a1,2(sp)
  401bf0:	00b101a3          	sb	a1,3(sp)
  401bf4:	00b10223          	sb	a1,4(sp)
  401bf8:	00b102a3          	sb	a1,5(sp)
  401bfc:	00b10323          	sb	a1,6(sp)
  401c00:	00b103a3          	sb	a1,7(sp)
    while (*name &&
  401c04:	00044503          	lbu	a0,0(s0)
        out[i] = ' ';
  401c08:	00b10423          	sb	a1,8(sp)
  401c0c:	00b104a3          	sb	a1,9(sp)
  401c10:	00b10523          	sb	a1,10(sp)
  401c14:	00b105a3          	sb	a1,11(sp)
    while (*name &&
  401c18:	04050263          	beqz	a0,401c5c <fat32_touch+0xdc>
  401c1c:	00000593          	li	a1,0
  401c20:	02e00613          	li	a2,46
  401c24:	00700693          	li	a3,7
  401c28:	00110713          	addi	a4,sp,1
           *name != '.' &&
  401c2c:	0ff57793          	zext.b	a5,a0
  401c30:	02c78a63          	beq	a5,a2,401c64 <fat32_touch+0xe4>
  401c34:	02b6e863          	bltu	a3,a1,401c64 <fat32_touch+0xe4>
        out[pos++] = *name++;
  401c38:	00b407b3          	add	a5,s0,a1
  401c3c:	00b70833          	add	a6,a4,a1
  401c40:	00a80023          	sb	a0,0(a6)
    while (*name &&
  401c44:	0017c503          	lbu	a0,1(a5)
        out[pos++] = *name++;
  401c48:	00158793          	addi	a5,a1,1
  401c4c:	00078593          	mv	a1,a5
    while (*name &&
  401c50:	fc051ee3          	bnez	a0,401c2c <fat32_touch+0xac>
    while (*name &&
  401c54:	00f405b3          	add	a1,s0,a5
  401c58:	0100006f          	j	401c68 <fat32_touch+0xe8>
  401c5c:	00040593          	mv	a1,s0
  401c60:	0080006f          	j	401c68 <fat32_touch+0xe8>
  401c64:	00b405b3          	add	a1,s0,a1
  401c68:	00158593          	addi	a1,a1,1
  401c6c:	02e00613          	li	a2,46
  401c70:	0ff57513          	zext.b	a0,a0
  401c74:	00050c63          	beqz	a0,401c8c <fat32_touch+0x10c>
  401c78:	00c50a63          	beq	a0,a2,401c8c <fat32_touch+0x10c>
  401c7c:	0005c503          	lbu	a0,0(a1)
  401c80:	00158593          	addi	a1,a1,1
  401c84:	0ff57513          	zext.b	a0,a0
  401c88:	fe0518e3          	bnez	a0,401c78 <fat32_touch+0xf8>
    if (*name == '.')
  401c8c:	fd250513          	addi	a0,a0,-46
  401c90:	00153513          	seqz	a0,a0
    while (*name && pos < 11) {
  401c94:	00a58533          	add	a0,a1,a0
  401c98:	fff54583          	lbu	a1,-1(a0)
  401c9c:	02058863          	beqz	a1,401ccc <fat32_touch+0x14c>
  401ca0:	00000613          	li	a2,0
  401ca4:	00910693          	addi	a3,sp,9
  401ca8:	00900713          	li	a4,9
        out[pos++] = *name++;
  401cac:	00860793          	addi	a5,a2,8
  401cb0:	00c68833          	add	a6,a3,a2
  401cb4:	00b80023          	sb	a1,0(a6)
    while (*name && pos < 11) {
  401cb8:	00f76a63          	bltu	a4,a5,401ccc <fat32_touch+0x14c>
  401cbc:	00c505b3          	add	a1,a0,a2
  401cc0:	0005c583          	lbu	a1,0(a1)
  401cc4:	00160613          	addi	a2,a2,1
  401cc8:	fe0592e3          	bnez	a1,401cac <fat32_touch+0x12c>

    for (int i = 0; i < 16; i++) {

        uint8_t *e = &buf[i * 32];

        if (e[0] != 0x00 &&
  401ccc:	00402537          	lui	a0,0x402
  401cd0:	43054583          	lbu	a1,1072(a0) # 402430 <fat32_buf>
  401cd4:	43050913          	addi	s2,a0,1072
  401cd8:	0e500613          	li	a2,229
  401cdc:	00090513          	mv	a0,s2
  401ce0:	1ac58a63          	beq	a1,a2,401e94 <fat32_touch+0x314>
  401ce4:	00090513          	mv	a0,s2
  401ce8:	1a058663          	beqz	a1,401e94 <fat32_touch+0x314>
  401cec:	00402537          	lui	a0,0x402
  401cf0:	43050513          	addi	a0,a0,1072 # 402430 <fat32_buf>
  401cf4:	02054583          	lbu	a1,32(a0)
  401cf8:	02050513          	addi	a0,a0,32
  401cfc:	18058c63          	beqz	a1,401e94 <fat32_touch+0x314>
  401d00:	0e500613          	li	a2,229
  401d04:	18c58863          	beq	a1,a2,401e94 <fat32_touch+0x314>
  401d08:	00402537          	lui	a0,0x402
  401d0c:	43050513          	addi	a0,a0,1072 # 402430 <fat32_buf>
  401d10:	04054583          	lbu	a1,64(a0)
  401d14:	04050513          	addi	a0,a0,64
  401d18:	16058e63          	beqz	a1,401e94 <fat32_touch+0x314>
  401d1c:	0e500613          	li	a2,229
  401d20:	16c58a63          	beq	a1,a2,401e94 <fat32_touch+0x314>
  401d24:	00402537          	lui	a0,0x402
  401d28:	43050513          	addi	a0,a0,1072 # 402430 <fat32_buf>
  401d2c:	06054583          	lbu	a1,96(a0)
  401d30:	06050513          	addi	a0,a0,96
  401d34:	16058063          	beqz	a1,401e94 <fat32_touch+0x314>
  401d38:	0e500613          	li	a2,229
  401d3c:	14c58c63          	beq	a1,a2,401e94 <fat32_touch+0x314>
  401d40:	00402537          	lui	a0,0x402
  401d44:	43050513          	addi	a0,a0,1072 # 402430 <fat32_buf>
  401d48:	08054583          	lbu	a1,128(a0)
  401d4c:	08050513          	addi	a0,a0,128
  401d50:	14058263          	beqz	a1,401e94 <fat32_touch+0x314>
  401d54:	0e500613          	li	a2,229
  401d58:	12c58e63          	beq	a1,a2,401e94 <fat32_touch+0x314>
  401d5c:	00402537          	lui	a0,0x402
  401d60:	43050513          	addi	a0,a0,1072 # 402430 <fat32_buf>
  401d64:	0a054583          	lbu	a1,160(a0)
  401d68:	0a050513          	addi	a0,a0,160
  401d6c:	12058463          	beqz	a1,401e94 <fat32_touch+0x314>
  401d70:	0e500613          	li	a2,229
  401d74:	12c58063          	beq	a1,a2,401e94 <fat32_touch+0x314>
  401d78:	00402537          	lui	a0,0x402
  401d7c:	43050513          	addi	a0,a0,1072 # 402430 <fat32_buf>
  401d80:	0c054583          	lbu	a1,192(a0)
  401d84:	0c050513          	addi	a0,a0,192
  401d88:	10058663          	beqz	a1,401e94 <fat32_touch+0x314>
  401d8c:	0e500613          	li	a2,229
  401d90:	10c58263          	beq	a1,a2,401e94 <fat32_touch+0x314>
  401d94:	00402537          	lui	a0,0x402
  401d98:	43050513          	addi	a0,a0,1072 # 402430 <fat32_buf>
  401d9c:	0e054583          	lbu	a1,224(a0)
  401da0:	0e050513          	addi	a0,a0,224
  401da4:	0e058863          	beqz	a1,401e94 <fat32_touch+0x314>
  401da8:	0e500613          	li	a2,229
  401dac:	0ec58463          	beq	a1,a2,401e94 <fat32_touch+0x314>
  401db0:	00402537          	lui	a0,0x402
  401db4:	43050513          	addi	a0,a0,1072 # 402430 <fat32_buf>
  401db8:	10054583          	lbu	a1,256(a0)
  401dbc:	10050513          	addi	a0,a0,256
  401dc0:	0c058a63          	beqz	a1,401e94 <fat32_touch+0x314>
  401dc4:	0e500613          	li	a2,229
  401dc8:	0cc58663          	beq	a1,a2,401e94 <fat32_touch+0x314>
  401dcc:	00402537          	lui	a0,0x402
  401dd0:	43050513          	addi	a0,a0,1072 # 402430 <fat32_buf>
  401dd4:	12054583          	lbu	a1,288(a0)
  401dd8:	12050513          	addi	a0,a0,288
  401ddc:	0a058c63          	beqz	a1,401e94 <fat32_touch+0x314>
  401de0:	0e500613          	li	a2,229
  401de4:	0ac58863          	beq	a1,a2,401e94 <fat32_touch+0x314>
  401de8:	00402537          	lui	a0,0x402
  401dec:	43050513          	addi	a0,a0,1072 # 402430 <fat32_buf>
  401df0:	14054583          	lbu	a1,320(a0)
  401df4:	14050513          	addi	a0,a0,320
  401df8:	08058e63          	beqz	a1,401e94 <fat32_touch+0x314>
  401dfc:	0e500613          	li	a2,229
  401e00:	08c58a63          	beq	a1,a2,401e94 <fat32_touch+0x314>
  401e04:	00402537          	lui	a0,0x402
  401e08:	43050513          	addi	a0,a0,1072 # 402430 <fat32_buf>
  401e0c:	16054583          	lbu	a1,352(a0)
  401e10:	16050513          	addi	a0,a0,352
  401e14:	08058063          	beqz	a1,401e94 <fat32_touch+0x314>
  401e18:	0e500613          	li	a2,229
  401e1c:	06c58c63          	beq	a1,a2,401e94 <fat32_touch+0x314>
  401e20:	00402537          	lui	a0,0x402
  401e24:	43050513          	addi	a0,a0,1072 # 402430 <fat32_buf>
  401e28:	18054583          	lbu	a1,384(a0)
  401e2c:	18050513          	addi	a0,a0,384
  401e30:	06058263          	beqz	a1,401e94 <fat32_touch+0x314>
  401e34:	0e500613          	li	a2,229
  401e38:	04c58e63          	beq	a1,a2,401e94 <fat32_touch+0x314>
  401e3c:	00402537          	lui	a0,0x402
  401e40:	43050513          	addi	a0,a0,1072 # 402430 <fat32_buf>
  401e44:	1a054583          	lbu	a1,416(a0)
  401e48:	1a050513          	addi	a0,a0,416
  401e4c:	04058463          	beqz	a1,401e94 <fat32_touch+0x314>
  401e50:	0e500613          	li	a2,229
  401e54:	04c58063          	beq	a1,a2,401e94 <fat32_touch+0x314>
  401e58:	00402537          	lui	a0,0x402
  401e5c:	43050513          	addi	a0,a0,1072 # 402430 <fat32_buf>
  401e60:	1c054583          	lbu	a1,448(a0)
  401e64:	1c050513          	addi	a0,a0,448
  401e68:	02058663          	beqz	a1,401e94 <fat32_touch+0x314>
  401e6c:	0e500613          	li	a2,229
  401e70:	02c58263          	beq	a1,a2,401e94 <fat32_touch+0x314>
  401e74:	00402537          	lui	a0,0x402
  401e78:	43050513          	addi	a0,a0,1072 # 402430 <fat32_buf>
  401e7c:	1e054583          	lbu	a1,480(a0)
  401e80:	1e050513          	addi	a0,a0,480
  401e84:	00058863          	beqz	a1,401e94 <fat32_touch+0x314>
  401e88:	0e500613          	li	a2,229
  401e8c:	fff00993          	li	s3,-1
  401e90:	10c59263          	bne	a1,a2,401f94 <fat32_touch+0x414>
        for (int j = 0; j < 32; j++)
            e[j] = 0;

        // 8.3 filename
        for (int j = 0; j < 11; j++)
            e[j] = shortname[j];
  401e94:	00114583          	lbu	a1,1(sp)
  401e98:	00214603          	lbu	a2,2(sp)
  401e9c:	00314683          	lbu	a3,3(sp)
  401ea0:	00b50023          	sb	a1,0(a0)
  401ea4:	00c500a3          	sb	a2,1(a0)
  401ea8:	00d50123          	sb	a3,2(a0)
  401eac:	00414583          	lbu	a1,4(sp)
  401eb0:	00514603          	lbu	a2,5(sp)
  401eb4:	00614683          	lbu	a3,6(sp)
  401eb8:	00714703          	lbu	a4,7(sp)
  401ebc:	00b501a3          	sb	a1,3(a0)
  401ec0:	00c50223          	sb	a2,4(a0)
  401ec4:	00d502a3          	sb	a3,5(a0)
  401ec8:	00e50323          	sb	a4,6(a0)
  401ecc:	00814583          	lbu	a1,8(sp)
            e[j] = 0;
  401ed0:	00050623          	sb	zero,12(a0)
  401ed4:	000506a3          	sb	zero,13(a0)
  401ed8:	00050723          	sb	zero,14(a0)
            e[j] = shortname[j];
  401edc:	00b503a3          	sb	a1,7(a0)
  401ee0:	00914583          	lbu	a1,9(sp)
            e[j] = 0;
  401ee4:	000507a3          	sb	zero,15(a0)
  401ee8:	00050823          	sb	zero,16(a0)
  401eec:	000508a3          	sb	zero,17(a0)
            e[j] = shortname[j];
  401ef0:	00b50423          	sb	a1,8(a0)
  401ef4:	00a14583          	lbu	a1,10(sp)
            e[j] = 0;
  401ef8:	00050923          	sb	zero,18(a0)
  401efc:	000509a3          	sb	zero,19(a0)
  401f00:	00050b23          	sb	zero,22(a0)
            e[j] = shortname[j];
  401f04:	00b504a3          	sb	a1,9(a0)
  401f08:	00b14583          	lbu	a1,11(sp)
            e[j] = 0;
  401f0c:	00050ba3          	sb	zero,23(a0)
  401f10:	00050c23          	sb	zero,24(a0)
  401f14:	00050ca3          	sb	zero,25(a0)
            e[j] = shortname[j];
  401f18:	00b50523          	sb	a1,10(a0)
  401f1c:	02000593          	li	a1,32

        // archive
        e[11] = 0x20;
  401f20:	00b505a3          	sb	a1,11(a0)

        // first cluster = 0
        e[20] = 0;
  401f24:	00050a23          	sb	zero,20(a0)
        e[21] = 0;
  401f28:	00050aa3          	sb	zero,21(a0)
        e[26] = 0;
  401f2c:	00050d23          	sb	zero,26(a0)
        e[27] = 0;
  401f30:	00050da3          	sb	zero,27(a0)

        // size = 0
        e[28] = 0;
  401f34:	00050e23          	sb	zero,28(a0)
        e[29] = 0;
  401f38:	00050ea3          	sb	zero,29(a0)
        e[30] = 0;
  401f3c:	00050f23          	sb	zero,30(a0)
        e[31] = 0;
  401f40:	00050fa3          	sb	zero,31(a0)

        printf("USER BUF: ");
  401f44:	00402537          	lui	a0,0x402
  401f48:	22550513          	addi	a0,a0,549 # 402225 <__modsi3+0x155>
  401f4c:	fffff097          	auipc	ra,0xfffff
  401f50:	03c080e7          	jalr	60(ra) # 400f88 <printf>
        for (int i = 0; i < 16; i++) {
            printf("%x ", (uint32_t)buf[i]);
        }
        */

        printf("\n");
  401f54:	00402537          	lui	a0,0x402
  401f58:	31350513          	addi	a0,a0,787 # 402313 <__modsi3+0x243>
  401f5c:	fffff097          	auipc	ra,0xfffff
  401f60:	02c080e7          	jalr	44(ra) # 400f88 <printf>

        if (call_sd_write_buf_api(root_lba, buf))
  401f64:	00048513          	mv	a0,s1
  401f68:	00090593          	mv	a1,s2
  401f6c:	fffff097          	auipc	ra,0xfffff
  401f70:	2fc080e7          	jalr	764(ra) # 401268 <call_sd_write_buf_api>
  401f74:	fff00993          	li	s3,-1
  401f78:	00051e63          	bnez	a0,401f94 <fat32_touch+0x414>
            return -1;

        printf("created: %s\n", name);
  401f7c:	00402537          	lui	a0,0x402
  401f80:	2de50513          	addi	a0,a0,734 # 4022de <__modsi3+0x20e>
  401f84:	00040593          	mv	a1,s0
  401f88:	fffff097          	auipc	ra,0xfffff
  401f8c:	000080e7          	jalr	ra # 400f88 <printf>
  401f90:	00000993          	li	s3,0

        return 0;
    }

    return -1;
  401f94:	00098513          	mv	a0,s3
  401f98:	01c12083          	lw	ra,28(sp)
  401f9c:	01812403          	lw	s0,24(sp)
  401fa0:	01412483          	lw	s1,20(sp)
  401fa4:	01012903          	lw	s2,16(sp)
  401fa8:	00c12983          	lw	s3,12(sp)
  401fac:	02010113          	addi	sp,sp,32
  401fb0:	00008067          	ret

00401fb4 <__udivsi3>:
  401fb4:	04058a63          	beqz	a1,402008 <__udivsi3+0x54>
  401fb8:	00000813          	li	a6,0
  401fbc:	00000613          	li	a2,0
  401fc0:	01f00693          	li	a3,31
  401fc4:	00100713          	li	a4,1
  401fc8:	fff00793          	li	a5,-1
  401fcc:	00181813          	slli	a6,a6,0x1
  401fd0:	00d558b3          	srl	a7,a0,a3
  401fd4:	0018f893          	andi	a7,a7,1
  401fd8:	0108e833          	or	a6,a7,a6
  401fdc:	00b838b3          	sltu	a7,a6,a1
  401fe0:	00d712b3          	sll	t0,a4,a3
  401fe4:	fff88893          	addi	a7,a7,-1
  401fe8:	0058f2b3          	and	t0,a7,t0
  401fec:	00c2e633          	or	a2,t0,a2
  401ff0:	00b8f8b3          	and	a7,a7,a1
  401ff4:	fff68693          	addi	a3,a3,-1
  401ff8:	41180833          	sub	a6,a6,a7
  401ffc:	fcf698e3          	bne	a3,a5,401fcc <__udivsi3+0x18>
  402000:	00060513          	mv	a0,a2
  402004:	00008067          	ret
  402008:	00000513          	li	a0,0
  40200c:	00008067          	ret

00402010 <__umodsi3>:
  402010:	00000613          	li	a2,0
  402014:	02058a63          	beqz	a1,402048 <__umodsi3+0x38>
  402018:	01f00693          	li	a3,31
  40201c:	fff00713          	li	a4,-1
  402020:	00161613          	slli	a2,a2,0x1
  402024:	00d557b3          	srl	a5,a0,a3
  402028:	0017f793          	andi	a5,a5,1
  40202c:	00c7e633          	or	a2,a5,a2
  402030:	00b637b3          	sltu	a5,a2,a1
  402034:	fff78793          	addi	a5,a5,-1
  402038:	00b7f7b3          	and	a5,a5,a1
  40203c:	fff68693          	addi	a3,a3,-1
  402040:	40f60633          	sub	a2,a2,a5
  402044:	fce69ee3          	bne	a3,a4,402020 <__umodsi3+0x10>
  402048:	00060513          	mv	a0,a2
  40204c:	00008067          	ret

00402050 <__divsi3>:
  402050:	06058c63          	beqz	a1,4020c8 <__divsi3+0x78>
  402054:	00000293          	li	t0,0
  402058:	00000613          	li	a2,0
  40205c:	41f55693          	srai	a3,a0,0x1f
  402060:	00d54733          	xor	a4,a0,a3
  402064:	40d706b3          	sub	a3,a4,a3
  402068:	41f5d713          	srai	a4,a1,0x1f
  40206c:	00e5c7b3          	xor	a5,a1,a4
  402070:	40e78733          	sub	a4,a5,a4
  402074:	01f00793          	li	a5,31
  402078:	00100813          	li	a6,1
  40207c:	fff00893          	li	a7,-1
  402080:	00129293          	slli	t0,t0,0x1
  402084:	00f6d333          	srl	t1,a3,a5
  402088:	00137313          	andi	t1,t1,1
  40208c:	005362b3          	or	t0,t1,t0
  402090:	00e2b333          	sltu	t1,t0,a4
  402094:	00f813b3          	sll	t2,a6,a5
  402098:	fff30313          	addi	t1,t1,-1
  40209c:	007373b3          	and	t2,t1,t2
  4020a0:	00c3e633          	or	a2,t2,a2
  4020a4:	00e37333          	and	t1,t1,a4
  4020a8:	fff78793          	addi	a5,a5,-1
  4020ac:	406282b3          	sub	t0,t0,t1
  4020b0:	fd1798e3          	bne	a5,a7,402080 <__divsi3+0x30>
  4020b4:	00a5c533          	xor	a0,a1,a0
  4020b8:	00055463          	bgez	a0,4020c0 <__divsi3+0x70>
  4020bc:	40c00633          	neg	a2,a2
  4020c0:	00060513          	mv	a0,a2
  4020c4:	00008067          	ret
  4020c8:	00000513          	li	a0,0
  4020cc:	00008067          	ret

004020d0 <__modsi3>:
  4020d0:	00000613          	li	a2,0
  4020d4:	04058a63          	beqz	a1,402128 <__modsi3+0x58>
  4020d8:	41f55693          	srai	a3,a0,0x1f
  4020dc:	00d54733          	xor	a4,a0,a3
  4020e0:	40d706b3          	sub	a3,a4,a3
  4020e4:	41f5d713          	srai	a4,a1,0x1f
  4020e8:	00e5c5b3          	xor	a1,a1,a4
  4020ec:	40e585b3          	sub	a1,a1,a4
  4020f0:	01f00713          	li	a4,31
  4020f4:	fff00793          	li	a5,-1
  4020f8:	00161613          	slli	a2,a2,0x1
  4020fc:	00e6d833          	srl	a6,a3,a4
  402100:	00187813          	andi	a6,a6,1
  402104:	00c86633          	or	a2,a6,a2
  402108:	00b63833          	sltu	a6,a2,a1
  40210c:	fff80813          	addi	a6,a6,-1
  402110:	00b87833          	and	a6,a6,a1
  402114:	fff70713          	addi	a4,a4,-1
  402118:	41060633          	sub	a2,a2,a6
  40211c:	fcf71ee3          	bne	a4,a5,4020f8 <__modsi3+0x28>
  402120:	00055463          	bgez	a0,402128 <__modsi3+0x58>
  402124:	40c00633          	neg	a2,a2
  402128:	00060513          	mv	a0,a2
  40212c:	00008067          	ret

セクション .rodata の逆アセンブル:

00402130 <$d.2-0x20b>:
  402130:	7375                	.insn	2, 0x7375
  402132:	6761                	.insn	2, 0x6761
  402134:	3a65                	.insn	2, 0x3a65
  402136:	6620                	.insn	2, 0x6620
  402138:	7461                	.insn	2, 0x7461
  40213a:	635f3233          	.insn	4, 0x635f3233
  40213e:	7461                	.insn	2, 0x7461
  402140:	3c20                	.insn	2, 0x3c20
  402142:	6966                	.insn	2, 0x6966
  402144:	656c                	.insn	2, 0x656c
  402146:	0a3e                	.insn	2, 0x0a3e
  402148:	4d00                	.insn	2, 0x4d00
  40214a:	4349                	.insn	2, 0x4349
  40214c:	542e                	.insn	2, 0x542e
  40214e:	5458                	.insn	2, 0x5458
  402150:	6320                	.insn	2, 0x6320
  402152:	3d6c                	.insn	2, 0x3d6c
  402154:	7825                	.insn	2, 0x7825
  402156:	6c20                	.insn	2, 0x6c20
  402158:	6162                	.insn	2, 0x6162
  40215a:	253d                	.insn	2, 0x253d
  40215c:	2078                	.insn	2, 0x2078
  40215e:	657a6973          	csrrsi	s2,hviprio2h,20
  402162:	253d                	.insn	2, 0x253d
  402164:	0a78                	.insn	2, 0x0a78
  402166:	5300                	.insn	2, 0x5300
  402168:	70203257          	.insn	4, 0x70203257
  40216c:	6572                	.insn	2, 0x6572
  40216e:	64657373          	csrrci	t1,hviprio1,10
  402172:	000a                	.insn	2, 0x000a
  402174:	6166                	.insn	2, 0x6166
  402176:	3374                	.insn	2, 0x3374
  402178:	5f32                	.insn	2, 0x5f32
  40217a:	736c                	.insn	2, 0x736c
  40217c:	6600                	.insn	2, 0x6600
  40217e:	7461                	.insn	2, 0x7461
  402180:	635f3233          	.insn	4, 0x635f3233
  402184:	7461                	.insn	2, 0x7461
  402186:	6600                	.insn	2, 0x6600
  402188:	7461                	.insn	2, 0x7461
  40218a:	745f3233          	.insn	4, 0x745f3233
  40218e:	6863756f          	jal	a0,439814 <__user_stack_top+0x161c4>
  402192:	6620                	.insn	2, 0x6620
  402194:	6961                	.insn	2, 0x6961
  402196:	656c                	.insn	2, 0x656c
  402198:	0a64                	.insn	2, 0x0a64
  40219a:	4d00                	.insn	2, 0x4d00
  40219c:	4349                	.insn	2, 0x4349
  40219e:	542e                	.insn	2, 0x542e
  4021a0:	5458                	.insn	2, 0x5458
  4021a2:	6e20                	.insn	2, 0x6e20
  4021a4:	6620746f          	jal	s0,409806 <__user_stack_start+0x61b6>
  4021a8:	646e756f          	jal	a0,4e97ee <__user_stack_top+0xc619e>
  4021ac:	000a                	.insn	2, 0x000a
  4021ae:	735f6473          	csrrsi	s0,mhpmevent21h,30
  4021b2:	6365                	.insn	2, 0x6365
  4021b4:	6f74                	.insn	2, 0x6f74
  4021b6:	2072                	.insn	2, 0x2072
  4021b8:	74697277          	.insn	4, 0x74697277
  4021bc:	2065                	.insn	2, 0x2065
  4021be:	74636573          	csrrsi	a0,0x746,6
  4021c2:	3c20726f          	jal	tp,409584 <__user_stack_start+0x5f34>
  4021c6:	3520                	.insn	2, 0x3520
  4021c8:	3030                	.insn	2, 0x3030
  4021ca:	0a30                	.insn	2, 0x0a30
  4021cc:	2000                	.insn	2, 0x2000
  4021ce:	7461                	.insn	2, 0x7461
  4021d0:	7274                	.insn	2, 0x7274
  4021d2:	253d                	.insn	2, 0x253d
  4021d4:	0078                	.insn	2, 0x0078
  4021d6:	725f6473          	csrrsi	s0,mhpmevent5h,30
  4021da:	6165                	.insn	2, 0x6165
  4021dc:	0064                	.insn	2, 0x0064
  4021de:	775f6473          	csrrsi	s0,0x775,30
  4021e2:	6972                	.insn	2, 0x6972
  4021e4:	6574                	.insn	2, 0x6574
  4021e6:	7500                	.insn	2, 0x7500
  4021e8:	65676173          	csrrsi	sp,hviprio1h,14
  4021ec:	203a                	.insn	2, 0x203a
  4021ee:	6166                	.insn	2, 0x6166
  4021f0:	3374                	.insn	2, 0x3374
  4021f2:	5f32                	.insn	2, 0x5f32
  4021f4:	6f74                	.insn	2, 0x6f74
  4021f6:	6375                	.insn	2, 0x6375
  4021f8:	2068                	.insn	2, 0x2068
  4021fa:	663c                	.insn	2, 0x663c
  4021fc:	6c69                	.insn	2, 0x6c69
  4021fe:	3e65                	.insn	2, 0x3e65
  402200:	000a                	.insn	2, 0x000a
  402202:	666c6573          	csrrsi	a0,0x666,24
  402206:	745f 7365 0074      	.insn	6, 0x00747365745f
  40220c:	6548                	.insn	2, 0x6548
  40220e:	6c6c                	.insn	2, 0x6c6c
  402210:	6f77206f          	j	475106 <__user_stack_top+0x51ab6>
  402214:	6c72                	.insn	2, 0x6c72
  402216:	2064                	.insn	2, 0x2064
  402218:	7266                	.insn	2, 0x7266
  40221a:	73206d6f          	jal	s10,40894c <__user_stack_start+0x52fc>
  40221e:	6568                	.insn	2, 0x6568
  402220:	6c6c                	.insn	2, 0x6c6c
  402222:	0a21                	.insn	2, 0x0a21
  402224:	5500                	.insn	2, 0x5500
  402226:	20524553          	.insn	4, 0x20524553
  40222a:	5542                	.insn	2, 0x5542
  40222c:	3a46                	.insn	2, 0x3a46
  40222e:	0020                	.insn	2, 0x0020
  402230:	7270                	.insn	2, 0x7270
  402232:	6d69                	.insn	2, 0x6d69
  402234:	7365                	.insn	2, 0x7365
  402236:	7500                	.insn	2, 0x7500
  402238:	6b6e                	.insn	2, 0x6b6e
  40223a:	6f6e                	.insn	2, 0x6f6e
  40223c:	63206e77          	.insn	4, 0x63206e77
  402240:	616d6d6f          	jal	s10,4d8856 <__user_stack_top+0xb5206>
  402244:	646e                	.insn	2, 0x646e
  402246:	203a                	.insn	2, 0x203a
  402248:	7325                	.insn	2, 0x7325
  40224a:	000a                	.insn	2, 0x000a
  40224c:	6f74                	.insn	2, 0x6f74
  40224e:	6174                	.insn	2, 0x6174
  402250:	206c                	.insn	2, 0x206c
  402252:	7270                	.insn	2, 0x7270
  402254:	6d69                	.insn	2, 0x6d69
  402256:	7365                	.insn	2, 0x7365
  402258:	203a                	.insn	2, 0x203a
  40225a:	6425                	.insn	2, 0x6425
  40225c:	2820                	.insn	2, 0x2820
  40225e:	2e30                	.insn	2, 0x2e30
  402260:	252e                	.insn	2, 0x252e
  402262:	2964                	.insn	2, 0x2964
  402264:	000a                	.insn	2, 0x000a
  402266:	735f6173          	csrrsi	sp,mhpmevent21h,30
  40226a:	6174                	.insn	2, 0x6174
  40226c:	7472                	.insn	2, 0x7472
  40226e:	6600                	.insn	2, 0x6600
  402270:	7461                	.insn	2, 0x7461
  402272:	695f3233          	.insn	4, 0x695f3233
  402276:	666e                	.insn	2, 0x666e
  402278:	6320006f          	j	4028aa <__user_stack_bottom+0x25a>
  40227c:	3d6c                	.insn	2, 0x3d6c
  40227e:	7825                	.insn	2, 0x7825
  402280:	6c20                	.insn	2, 0x6c20
  402282:	6162                	.insn	2, 0x6162
  402284:	253d                	.insn	2, 0x253d
  402286:	2078                	.insn	2, 0x2078
  402288:	657a6973          	csrrsi	s2,hviprio2h,20
  40228c:	253d                	.insn	2, 0x253d
  40228e:	0a78                	.insn	2, 0x0a78
  402290:	6800                	.insn	2, 0x6800
  402292:	6c65                	.insn	2, 0x6c65
  402294:	6f6c                	.insn	2, 0x6f6c
  402296:	5300                	.insn	2, 0x5300
  402298:	70203157          	.insn	4, 0x70203157
  40229c:	6572                	.insn	2, 0x6572
  40229e:	64657373          	csrrci	t1,hviprio1,10
  4022a2:	000a                	.insn	2, 0x000a
  4022a4:	616d                	.insn	2, 0x616d
  4022a6:	7274                	.insn	2, 0x7274
  4022a8:	7869                	.insn	2, 0x7869
  4022aa:	7320                	.insn	2, 0x7320
  4022ac:	7a69                	.insn	2, 0x7a69
  4022ae:	2065                	.insn	2, 0x2065
  4022b0:	203e                	.insn	2, 0x203e
  4022b2:	0a34                	.insn	2, 0x0a34
  4022b4:	6300                	.insn	2, 0x6300
  4022b6:	616d6d6f          	jal	s10,4d88cc <__user_stack_top+0xb527c>
  4022ba:	646e                	.insn	2, 0x646e
  4022bc:	000a3a73          	csrrc	s4,0x0,s4
  4022c0:	696d                	.insn	2, 0x696d
  4022c2:	72775f63          	bge	a4,t2,402a00 <__user_stack_bottom+0x3b0>
  4022c6:	7469                	.insn	2, 0x7469
  4022c8:	0065                	.insn	2, 0x0065
  4022ca:	4146                	.insn	2, 0x4146
  4022cc:	3354                	.insn	2, 0x3354
  4022ce:	2032                	.insn	2, 0x2032
  4022d0:	6f6d                	.insn	2, 0x6f6d
  4022d2:	6e75                	.insn	2, 0x6e75
  4022d4:	2074                	.insn	2, 0x2074
  4022d6:	6166                	.insn	2, 0x6166
  4022d8:	6c69                	.insn	2, 0x6c69
  4022da:	6465                	.insn	2, 0x6465
  4022dc:	000a                	.insn	2, 0x000a
  4022de:	61657263          	bgeu	a0,s6,4028e2 <__user_stack_bottom+0x292>
  4022e2:	6574                	.insn	2, 0x6574
  4022e4:	3a64                	.insn	2, 0x3a64
  4022e6:	2520                	.insn	2, 0x2520
  4022e8:	64000a73          	.insn	4, 0x64000a73
  4022ec:	7461                	.insn	2, 0x7461
  4022ee:	5f61                	.insn	2, 0x5f61
  4022f0:	6562                	.insn	2, 0x6562
  4022f2:	3d6e6967          	.insn	4, 0x3d6e6967
  4022f6:	7825                	.insn	2, 0x7825
  4022f8:	000a                	.insn	2, 0x000a
  4022fa:	7375                	.insn	2, 0x7375
  4022fc:	6761                	.insn	2, 0x6761
  4022fe:	3a65                	.insn	2, 0x3a65
  402300:	6d20                	.insn	2, 0x6d20
  402302:	6369                	.insn	2, 0x6369
  402304:	725f 6165 2064      	.insn	6, 0x20646165725f
  40230a:	633c                	.insn	2, 0x633c
  40230c:	746e756f          	jal	a0,4e9a52 <__user_stack_top+0xc6402>
  402310:	0a3e                	.insn	2, 0x0a3e
  402312:	0a00                	.insn	2, 0x0a00
  402314:	6800                	.insn	2, 0x6800
  402316:	6c65                	.insn	2, 0x6c65
  402318:	0070                	.insn	2, 0x0070
  40231a:	696d                	.insn	2, 0x696d
  40231c:	65725f63          	bge	tp,s7,40297a <__user_stack_bottom+0x32a>
  402320:	6461                	.insn	2, 0x6461
  402322:	4d00                	.insn	2, 0x4d00
  402324:	4349                	.insn	2, 0x4349
  402326:	542e                	.insn	2, 0x542e
  402328:	5458                	.insn	2, 0x5458
  40232a:	6820                	.insn	2, 0x6820
  40232c:	7361                	.insn	2, 0x7361
  40232e:	6e20                	.insn	2, 0x6e20
  402330:	6c63206f          	j	4349f6 <__user_stack_top+0x113a6>
  402334:	7375                	.insn	2, 0x7375
  402336:	6574                	.insn	2, 0x6574
  402338:	0a72                	.insn	2, 0x0a72
	...

0040233b <$d.2>:
  40233b:	494d                	.insn	2, 0x494d
  40233d:	58542e43          	.insn	4, 0x58542e43
  402341:	0054                	.insn	2, 0x0054
  402343:	6f72                	.insn	2, 0x6f72
  402345:	635f746f          	jal	s0,4fa179 <__user_stack_top+0xd6b29>
  402349:	756c                	.insn	2, 0x756c
  40234b:	72657473          	csrrci	s0,mhpmevent6h,10
  40234f:	253d                	.insn	2, 0x253d
  402351:	0a78                	.insn	2, 0x0a78
  402353:	7100                	.insn	2, 0x7100
	...

00402356 <$d.1>:
  402356:	6c656873          	csrrsi	a6,0x6c6,10
  40235a:	206c                	.insn	2, 0x206c
  40235c:	72617473          	csrrci	s0,mhpmevent6h,2
  402360:	2e74                	.insn	2, 0x2e74
  402362:	000a                	.insn	2, 0x000a
  402364:	7564                	.insn	2, 0x7564
  402366:	706d                	.insn	2, 0x706d
  402368:	7500                	.insn	2, 0x7500
  40236a:	65676173          	csrrsi	sp,hviprio1h,14
  40236e:	203a                	.insn	2, 0x203a
  402370:	696d                	.insn	2, 0x696d
  402372:	72775f63          	bge	a4,t2,402ab0 <__user_stack_bottom+0x460>
  402376:	7469                	.insn	2, 0x7469
  402378:	2065                	.insn	2, 0x2065
  40237a:	633c                	.insn	2, 0x633c
  40237c:	746e756f          	jal	a0,4e9ac2 <__user_stack_top+0xc6472>
  402380:	0a3e                	.insn	2, 0x0a3e
  402382:	7300                	.insn	2, 0x7300
  402384:	6370                	.insn	2, 0x6370
  402386:	253d                	.insn	2, 0x253d
  402388:	0a78                	.insn	2, 0x0a78
  40238a:	6600                	.insn	2, 0x6600
  40238c:	7461                	.insn	2, 0x7461
  40238e:	745f3233          	.insn	4, 0x745f3233
  402392:	6863756f          	jal	a0,439a18 <__user_stack_top+0x163c8>
  402396:	2500                	.insn	2, 0x2500
  402398:	2064                	.insn	2, 0x2064
  40239a:	6600                	.insn	2, 0x6600
  40239c:	7461                	.insn	2, 0x7461
  40239e:	625f 6765 6e69      	.insn	6, 0x6e696765625f
  4023a4:	253d                	.insn	2, 0x253d
  4023a6:	0a78                	.insn	2, 0x0a78
  4023a8:	3000                	.insn	2, 0x3000
  4023aa:	3231                	.insn	2, 0x3231
  4023ac:	36353433          	.insn	4, 0x36353433
  4023b0:	61393837          	lui	a6,0x61393
  4023b4:	6362                	.insn	2, 0x6362
  4023b6:	6564                	.insn	2, 0x6564
  4023b8:	0066                	.insn	2, 0x0066
  4023ba:	7375                	.insn	2, 0x7375
  4023bc:	6761                	.insn	2, 0x6761
  4023be:	3a65                	.insn	2, 0x3a65
  4023c0:	7320                	.insn	2, 0x7320
  4023c2:	5f64                	.insn	2, 0x5f64
  4023c4:	6572                	.insn	2, 0x6572
  4023c6:	6461                	.insn	2, 0x6461
  4023c8:	3c20                	.insn	2, 0x3c20
  4023ca:	74636573          	csrrsi	a0,0x746,6
  4023ce:	0a3e726f          	jal	tp,4e9c70 <__user_stack_top+0xc6620>
  4023d2:	6d00                	.insn	2, 0x6d00
  4023d4:	7861                	.insn	2, 0x7861
  4023d6:	7420                	.insn	2, 0x7420
  4023d8:	6c206f6f          	jal	t5,408a9a <__user_stack_start+0x544a>
  4023dc:	7261                	.insn	2, 0x7261
  4023de:	28206567          	.insn	4, 0x28206567
  4023e2:	3d3c                	.insn	2, 0x3d3c
  4023e4:	3031                	.insn	2, 0x3031
  4023e6:	3030                	.insn	2, 0x3030
  4023e8:	3030                	.insn	2, 0x3030
  4023ea:	0a29                	.insn	2, 0x0a29
  4023ec:	7100                	.insn	2, 0x7100
  4023ee:	6975                	.insn	2, 0x6975
  4023f0:	0074                	.insn	2, 0x0074

004023f2 <$d.1>:
  4023f2:	6966                	.insn	2, 0x6966
  4023f4:	656c                	.insn	2, 0x656c
  4023f6:	6e20                	.insn	2, 0x6e20
  4023f8:	6620746f          	jal	s0,409a5a <__user_stack_start+0x640a>
  4023fc:	646e756f          	jal	a0,4e9a42 <__user_stack_top+0xc63f2>
  402400:	000a                	.insn	2, 0x000a
  402402:	7375                	.insn	2, 0x7375
  402404:	6761                	.insn	2, 0x6761
  402406:	3a65                	.insn	2, 0x3a65
  402408:	7320                	.insn	2, 0x7320
  40240a:	5f64                	.insn	2, 0x5f64
  40240c:	74697277          	.insn	4, 0x74697277
  402410:	2065                	.insn	2, 0x2065
  402412:	733c                	.insn	2, 0x733c
  402414:	6365                	.insn	2, 0x6365
  402416:	6f74                	.insn	2, 0x6f74
  402418:	3e72                	.insn	2, 0x3e72
  40241a:	000a                	.insn	2, 0x000a
  40241c:	6170                	.insn	2, 0x6170
  40241e:	7472                	.insn	2, 0x7472
  402420:	6c5f 6162 253d      	.insn	6, 0x253d61626c5f
  402426:	0a78                	.insn	2, 0x0a78
  402428:	6500                	.insn	2, 0x6500
  40242a:	6978                	.insn	2, 0x6978
  40242c:	0074                	.insn	2, 0x0074

セクション .debug_loc の逆アセンブル:

00000000 <$d.2>:
       0:	0048                	.insn	2, 0x0048
       2:	0000                	.insn	2, 0x0000
       4:	0238                	.insn	2, 0x0238
       6:	0000                	.insn	2, 0x0000
       8:	0002                	.insn	2, 0x0002
       a:	9f30                	.insn	2, 0x9f30
       c:	0238                	.insn	2, 0x0238
       e:	0000                	.insn	2, 0x0000
      10:	0990                	.insn	2, 0x0990
      12:	0000                	.insn	2, 0x0000
      14:	0001                	.insn	2, 0x0001
      16:	006a                	.insn	2, 0x006a
      18:	0000                	.insn	2, 0x0000
      1a:	0000                	.insn	2, 0x0000
      1c:	0000                	.insn	2, 0x0000
      1e:	3800                	.insn	2, 0x3800
      20:	0002                	.insn	2, 0x0002
      22:	4800                	.insn	2, 0x4800
      24:	0002                	.insn	2, 0x0002
      26:	0100                	.insn	2, 0x0100
      28:	6400                	.insn	2, 0x6400
      2a:	0434                	.insn	2, 0x0434
      2c:	0000                	.insn	2, 0x0000
      2e:	0438                	.insn	2, 0x0438
      30:	0000                	.insn	2, 0x0000
      32:	0001                	.insn	2, 0x0001
      34:	00043863          	.insn	4, 0x00043863
      38:	cc00                	.insn	2, 0xcc00
      3a:	0004                	.insn	2, 0x0004
      3c:	0100                	.insn	2, 0x0100
      3e:	6400                	.insn	2, 0x6400
      40:	05fc                	.insn	2, 0x05fc
      42:	0000                	.insn	2, 0x0000
      44:	064c                	.insn	2, 0x064c
      46:	0000                	.insn	2, 0x0000
      48:	0001                	.insn	2, 0x0001
      4a:	7064                	.insn	2, 0x7064
      4c:	0006                	.insn	2, 0x0006
      4e:	7800                	.insn	2, 0x7800
      50:	0006                	.insn	2, 0x0006
      52:	0100                	.insn	2, 0x0100
      54:	6400                	.insn	2, 0x6400
      56:	0684                	.insn	2, 0x0684
      58:	0000                	.insn	2, 0x0000
      5a:	0694                	.insn	2, 0x0694
      5c:	0000                	.insn	2, 0x0000
      5e:	0001                	.insn	2, 0x0001
      60:	ec64                	.insn	2, 0xec64
      62:	0006                	.insn	2, 0x0006
      64:	5800                	.insn	2, 0x5800
      66:	01000007          	.insn	4, 0x01000007
      6a:	6400                	.insn	2, 0x6400
      6c:	0764                	.insn	2, 0x0764
      6e:	0000                	.insn	2, 0x0000
      70:	0798                	.insn	2, 0x0798
      72:	0000                	.insn	2, 0x0000
      74:	0001                	.insn	2, 0x0001
      76:	a864                	.insn	2, 0xa864
      78:	b0000007          	.insn	4, 0xb0000007
      7c:	01000007          	.insn	4, 0x01000007
      80:	6400                	.insn	2, 0x6400
	...
      8a:	030c                	.insn	2, 0x030c
      8c:	0000                	.insn	2, 0x0000
      8e:	0310                	.insn	2, 0x0310
      90:	0000                	.insn	2, 0x0000
      92:	00110003          	lb	zero,1(sp)
      96:	209f 0003 2c00      	.insn	6, 0x2c000003209f
      9c:	0004                	.insn	2, 0x0004
      9e:	0100                	.insn	2, 0x0100
      a0:	6300                	.insn	2, 0x6300
	...
      aa:	0320                	.insn	2, 0x0320
      ac:	0000                	.insn	2, 0x0000
      ae:	0328                	.insn	2, 0x0328
      b0:	0000                	.insn	2, 0x0000
      b2:	0001                	.insn	2, 0x0001
      b4:	7c5a                	.insn	2, 0x7c5a
      b6:	cc000003          	lb	zero,-832(zero) # fffffcc0 <USER_MAX+0xffaffcc0>
      ba:	01000003          	lb	zero,16(zero) # 10 <$d.2+0x10>
      be:	5a00                	.insn	2, 0x5a00
      c0:	03e8                	.insn	2, 0x03e8
      c2:	0000                	.insn	2, 0x0000
      c4:	03ec                	.insn	2, 0x03ec
      c6:	0000                	.insn	2, 0x0000
      c8:	0001                	.insn	2, 0x0001
      ca:	005a                	.insn	2, 0x005a
      cc:	0000                	.insn	2, 0x0000
      ce:	0000                	.insn	2, 0x0000
      d0:	0000                	.insn	2, 0x0000
      d2:	2000                	.insn	2, 0x2000
      d4:	28000003          	lb	zero,640(zero) # 280 <$d.10+0x84>
      d8:	01000003          	lb	zero,16(zero) # 10 <$d.2+0x10>
      dc:	6a00                	.insn	2, 0x6a00
      de:	0374                	.insn	2, 0x0374
      e0:	0000                	.insn	2, 0x0000
      e2:	0404                	.insn	2, 0x0404
      e4:	0000                	.insn	2, 0x0000
      e6:	0001                	.insn	2, 0x0001
      e8:	006a                	.insn	2, 0x006a
      ea:	0000                	.insn	2, 0x0000
      ec:	0000                	.insn	2, 0x0000
      ee:	0000                	.insn	2, 0x0000
      f0:	6000                	.insn	2, 0x6000
      f2:	68000003          	lb	zero,1664(zero) # 680 <$d.3+0x11e>
      f6:	06000003          	lb	zero,96(zero) # 60 <$d.2+0x60>
      fa:	7a00                	.insn	2, 0x7a00
      fc:	1000                	.insn	2, 0x1000
      fe:	1a01                	.insn	2, 0x1a01
     100:	009f 0000 0000      	.insn	6, 0x009f
     106:	0000                	.insn	2, 0x0000
     108:	0c00                	.insn	2, 0x0c00
     10a:	0004                	.insn	2, 0x0004
     10c:	2c00                	.insn	2, 0x2c00
     10e:	0004                	.insn	2, 0x0004
     110:	0100                	.insn	2, 0x0100
     112:	5a00                	.insn	2, 0x5a00
     114:	0434                	.insn	2, 0x0434
     116:	0000                	.insn	2, 0x0000
     118:	046c                	.insn	2, 0x046c
     11a:	0000                	.insn	2, 0x0000
     11c:	0001                	.insn	2, 0x0001
     11e:	00046c5b          	.insn	4, 0x00046c5b
     122:	7400                	.insn	2, 0x7400
     124:	0004                	.insn	2, 0x0004
     126:	0300                	.insn	2, 0x0300
     128:	7b00                	.insn	2, 0x7b00
     12a:	9f01                	.insn	2, 0x9f01
	...
     134:	05fc                	.insn	2, 0x05fc
     136:	0000                	.insn	2, 0x0000
     138:	064c                	.insn	2, 0x064c
     13a:	0000                	.insn	2, 0x0000
     13c:	0006                	.insn	2, 0x0006
     13e:	8010                	.insn	2, 0x8010
     140:	8080                	.insn	2, 0x8080
     142:	9f01                	.insn	2, 0x9f01
     144:	0670                	.insn	2, 0x0670
     146:	0000                	.insn	2, 0x0000
     148:	068c                	.insn	2, 0x068c
     14a:	0000                	.insn	2, 0x0000
     14c:	0006                	.insn	2, 0x0006
     14e:	8010                	.insn	2, 0x8010
     150:	8080                	.insn	2, 0x8080
     152:	9f01                	.insn	2, 0x9f01
     154:	06f4                	.insn	2, 0x06f4
     156:	0000                	.insn	2, 0x0000
     158:	074c                	.insn	2, 0x074c
     15a:	0000                	.insn	2, 0x0000
     15c:	0006                	.insn	2, 0x0006
     15e:	8010                	.insn	2, 0x8010
     160:	8080                	.insn	2, 0x8080
     162:	9f01                	.insn	2, 0x9f01
     164:	074c                	.insn	2, 0x074c
     166:	0000                	.insn	2, 0x0000
     168:	0760                	.insn	2, 0x0760
     16a:	0000                	.insn	2, 0x0000
     16c:	0001                	.insn	2, 0x0001
     16e:	645a                	.insn	2, 0x645a
     170:	b8000007          	.insn	4, 0xb8000007
     174:	01000007          	.insn	4, 0x01000007
     178:	5a00                	.insn	2, 0x5a00
     17a:	0814                	.insn	2, 0x0814
     17c:	0000                	.insn	2, 0x0000
     17e:	0874                	.insn	2, 0x0874
     180:	0000                	.insn	2, 0x0000
     182:	0001                	.insn	2, 0x0001
     184:	005a                	.insn	2, 0x005a
     186:	0000                	.insn	2, 0x0000
     188:	0000                	.insn	2, 0x0000
     18a:	0000                	.insn	2, 0x0000
     18c:	fc00                	.insn	2, 0xfc00
     18e:	0005                	.insn	2, 0x0005
     190:	4c00                	.insn	2, 0x4c00
     192:	0006                	.insn	2, 0x0006
     194:	0400                	.insn	2, 0x0400
     196:	1000                	.insn	2, 0x1000
     198:	0280                	.insn	2, 0x0280
     19a:	789f 0006 8000      	.insn	6, 0x80000006789f
     1a0:	0006                	.insn	2, 0x0006
     1a2:	0100                	.insn	2, 0x0100
     1a4:	5b00                	.insn	2, 0x5b00
     1a6:	0684                	.insn	2, 0x0684
     1a8:	0000                	.insn	2, 0x0000
     1aa:	068c                	.insn	2, 0x068c
     1ac:	0000                	.insn	2, 0x0000
     1ae:	0004                	.insn	2, 0x0004
     1b0:	8010                	.insn	2, 0x8010
     1b2:	9f02                	.insn	2, 0x9f02
     1b4:	06f4                	.insn	2, 0x06f4
     1b6:	0000                	.insn	2, 0x0000
     1b8:	0758                	.insn	2, 0x0758
     1ba:	0000                	.insn	2, 0x0000
     1bc:	0004                	.insn	2, 0x0004
     1be:	8010                	.insn	2, 0x8010
     1c0:	9f02                	.insn	2, 0x9f02
     1c2:	0758                	.insn	2, 0x0758
     1c4:	0000                	.insn	2, 0x0000
     1c6:	0760                	.insn	2, 0x0760
     1c8:	0000                	.insn	2, 0x0000
     1ca:	0001                	.insn	2, 0x0001
     1cc:	0007645b          	.insn	4, 0x0007645b
     1d0:	b800                	.insn	2, 0xb800
     1d2:	04000007          	.insn	4, 0x04000007
     1d6:	1000                	.insn	2, 0x1000
     1d8:	0280                	.insn	2, 0x0280
     1da:	149f 0008 6c00      	.insn	6, 0x6c000008149f
     1e0:	0008                	.insn	2, 0x0008
     1e2:	0400                	.insn	2, 0x0400
     1e4:	1000                	.insn	2, 0x1000
     1e6:	0280                	.insn	2, 0x0280
     1e8:	6c9f 0008 7400      	.insn	6, 0x740000086c9f
     1ee:	0008                	.insn	2, 0x0008
     1f0:	0100                	.insn	2, 0x0100
     1f2:	5b00                	.insn	2, 0x5b00
	...
     1fc:	0608                	.insn	2, 0x0608
     1fe:	0000                	.insn	2, 0x0000
     200:	064c                	.insn	2, 0x064c
     202:	0000                	.insn	2, 0x0000
     204:	0002                	.insn	2, 0x0002
     206:	9f30                	.insn	2, 0x9f30
     208:	0684                	.insn	2, 0x0684
     20a:	0000                	.insn	2, 0x0000
     20c:	068c                	.insn	2, 0x068c
     20e:	0000                	.insn	2, 0x0000
     210:	0002                	.insn	2, 0x0002
     212:	9f30                	.insn	2, 0x9f30
     214:	06f4                	.insn	2, 0x06f4
     216:	0000                	.insn	2, 0x0000
     218:	0700                	.insn	2, 0x0700
     21a:	0000                	.insn	2, 0x0000
     21c:	0002                	.insn	2, 0x0002
     21e:	9f30                	.insn	2, 0x9f30
     220:	0700                	.insn	2, 0x0700
     222:	0000                	.insn	2, 0x0000
     224:	0710                	.insn	2, 0x0710
     226:	0000                	.insn	2, 0x0000
     228:	0001                	.insn	2, 0x0001
     22a:	145a                	.insn	2, 0x145a
     22c:	4c000007          	.insn	4, 0x4c000007
     230:	01000007          	.insn	4, 0x01000007
     234:	5a00                	.insn	2, 0x5a00
	...
     23e:	0608                	.insn	2, 0x0608
     240:	0000                	.insn	2, 0x0000
     242:	060c                	.insn	2, 0x060c
     244:	0000                	.insn	2, 0x0000
     246:	0001                	.insn	2, 0x0001
     248:	185d                	.insn	2, 0x185d
     24a:	0006                	.insn	2, 0x0006
     24c:	1c00                	.insn	2, 0x1c00
     24e:	0006                	.insn	2, 0x0006
     250:	0300                	.insn	2, 0x0300
     252:	7d00                	.insn	2, 0x7d00
     254:	061c9f7f 06400000 	.insn	12, 0x0003000006400000061c9f7f
     25c:	00030000 
     260:	7e7d                	.insn	2, 0x7e7d
     262:	449f 0006 4c00      	.insn	6, 0x4c000006449f
     268:	0006                	.insn	2, 0x0006
     26a:	0100                	.insn	2, 0x0100
     26c:	5d00                	.insn	2, 0x5d00
     26e:	0688                	.insn	2, 0x0688
     270:	0000                	.insn	2, 0x0000
     272:	068c                	.insn	2, 0x068c
     274:	0000                	.insn	2, 0x0000
     276:	0001                	.insn	2, 0x0001
     278:	005d                	.insn	2, 0x005d
     27a:	18000007          	.insn	4, 0x18000007
     27e:	01000007          	.insn	4, 0x01000007
     282:	5d00                	.insn	2, 0x5d00
     284:	071c                	.insn	2, 0x071c
     286:	0000                	.insn	2, 0x0000
     288:	074c                	.insn	2, 0x074c
     28a:	0000                	.insn	2, 0x0000
     28c:	0001                	.insn	2, 0x0001
     28e:	005d                	.insn	2, 0x005d
     290:	0000                	.insn	2, 0x0000
     292:	0000                	.insn	2, 0x0000
     294:	0000                	.insn	2, 0x0000
     296:	4c00                	.insn	2, 0x4c00
     298:	0006                	.insn	2, 0x0006
     29a:	6000                	.insn	2, 0x6000
     29c:	0006                	.insn	2, 0x0006
     29e:	0400                	.insn	2, 0x0400
     2a0:	1000                	.insn	2, 0x1000
     2a2:	07e8                	.insn	2, 0x07e8
     2a4:	609f 0006 7000      	.insn	6, 0x70000006609f
     2aa:	0006                	.insn	2, 0x0006
     2ac:	0100                	.insn	2, 0x0100
     2ae:	5b00                	.insn	2, 0x5b00
     2b0:	06bc                	.insn	2, 0x06bc
     2b2:	0000                	.insn	2, 0x0000
     2b4:	06c8                	.insn	2, 0x06c8
     2b6:	0000                	.insn	2, 0x0000
     2b8:	0001                	.insn	2, 0x0001
     2ba:	0000005b          	.insn	4, 0x005b
     2be:	0000                	.insn	2, 0x0000
     2c0:	0000                	.insn	2, 0x0000
     2c2:	9400                	.insn	2, 0x9400
     2c4:	0006                	.insn	2, 0x0006
     2c6:	a800                	.insn	2, 0xa800
     2c8:	0006                	.insn	2, 0x0006
     2ca:	0200                	.insn	2, 0x0200
     2cc:	3400                	.insn	2, 0x3400
     2ce:	a89f 0006 b800      	.insn	6, 0xb8000006a89f
     2d4:	0006                	.insn	2, 0x0006
     2d6:	0100                	.insn	2, 0x0100
     2d8:	5b00                	.insn	2, 0x5b00
     2da:	07dc                	.insn	2, 0x07dc
     2dc:	0000                	.insn	2, 0x0000
     2de:	07e8                	.insn	2, 0x07e8
     2e0:	0000                	.insn	2, 0x0000
     2e2:	0001                	.insn	2, 0x0001
     2e4:	0000005b          	.insn	4, 0x005b
     2e8:	0000                	.insn	2, 0x0000
     2ea:	0000                	.insn	2, 0x0000
     2ec:	e000                	.insn	2, 0xe000
     2ee:	0006                	.insn	2, 0x0006
     2f0:	e800                	.insn	2, 0xe800
     2f2:	0006                	.insn	2, 0x0006
     2f4:	0100                	.insn	2, 0x0100
     2f6:	5a00                	.insn	2, 0x5a00
	...
     300:	0700                	.insn	2, 0x0700
     302:	0000                	.insn	2, 0x0000
     304:	0708                	.insn	2, 0x0708
     306:	0000                	.insn	2, 0x0000
     308:	0001                	.insn	2, 0x0001
     30a:	1c5c                	.insn	2, 0x1c5c
     30c:	4c000007          	.insn	4, 0x4c000007
     310:	01000007          	.insn	4, 0x01000007
     314:	5c00                	.insn	2, 0x5c00
	...
     31e:	070c                	.insn	2, 0x070c
     320:	0000                	.insn	2, 0x0000
     322:	071c                	.insn	2, 0x071c
     324:	0000                	.insn	2, 0x0000
     326:	0001                	.insn	2, 0x0001
     328:	005e                	.insn	2, 0x005e
     32a:	0000                	.insn	2, 0x0000
     32c:	0000                	.insn	2, 0x0000
     32e:	0000                	.insn	2, 0x0000
     330:	6800                	.insn	2, 0x6800
     332:	b8000007          	.insn	4, 0xb8000007
     336:	02000007          	.insn	4, 0x02000007
     33a:	3000                	.insn	2, 0x3000
     33c:	149f 0008 2000      	.insn	6, 0x20000008149f
     342:	0008                	.insn	2, 0x0008
     344:	0200                	.insn	2, 0x0200
     346:	3000                	.insn	2, 0x3000
     348:	209f 0008 3000      	.insn	6, 0x30000008209f
     34e:	0008                	.insn	2, 0x0008
     350:	0100                	.insn	2, 0x0100
     352:	5b00                	.insn	2, 0x5b00
     354:	0834                	.insn	2, 0x0834
     356:	0000                	.insn	2, 0x0000
     358:	086c                	.insn	2, 0x086c
     35a:	0000                	.insn	2, 0x0000
     35c:	0001                	.insn	2, 0x0001
     35e:	0000005b          	.insn	4, 0x005b
     362:	0000                	.insn	2, 0x0000
     364:	0000                	.insn	2, 0x0000
     366:	6800                	.insn	2, 0x6800
     368:	6c000007          	.insn	4, 0x6c000007
     36c:	01000007          	.insn	4, 0x01000007
     370:	5d00                	.insn	2, 0x5d00
     372:	0770                	.insn	2, 0x0770
     374:	0000                	.insn	2, 0x0000
     376:	0774                	.insn	2, 0x0774
     378:	0000                	.insn	2, 0x0000
     37a:	7f7d0003          	lb	zero,2039(s10)
     37e:	749f 0007 9c00      	.insn	6, 0x9c000007749f
     384:	03000007          	.insn	4, 0x03000007
     388:	7d00                	.insn	2, 0x7d00
     38a:	9f7e                	.insn	2, 0x9f7e
     38c:	07a0                	.insn	2, 0x07a0
     38e:	0000                	.insn	2, 0x0000
     390:	07a8                	.insn	2, 0x07a8
     392:	0000                	.insn	2, 0x0000
     394:	0001                	.insn	2, 0x0001
     396:	a85d                	.insn	2, 0xa85d
     398:	ac000007          	.insn	4, 0xac000007
     39c:	03000007          	.insn	4, 0x03000007
     3a0:	7d00                	.insn	2, 0x7d00
     3a2:	9f7e                	.insn	2, 0x9f7e
     3a4:	07b0                	.insn	2, 0x07b0
     3a6:	0000                	.insn	2, 0x0000
     3a8:	07b8                	.insn	2, 0x07b8
     3aa:	0000                	.insn	2, 0x0000
     3ac:	0001                	.insn	2, 0x0001
     3ae:	205d                	.insn	2, 0x205d
     3b0:	0008                	.insn	2, 0x0008
     3b2:	3800                	.insn	2, 0x3800
     3b4:	0008                	.insn	2, 0x0008
     3b6:	0100                	.insn	2, 0x0100
     3b8:	5d00                	.insn	2, 0x5d00
     3ba:	083c                	.insn	2, 0x083c
     3bc:	0000                	.insn	2, 0x0000
     3be:	086c                	.insn	2, 0x086c
     3c0:	0000                	.insn	2, 0x0000
     3c2:	0001                	.insn	2, 0x0001
     3c4:	005d                	.insn	2, 0x005d
     3c6:	0000                	.insn	2, 0x0000
     3c8:	0000                	.insn	2, 0x0000
     3ca:	0000                	.insn	2, 0x0000
     3cc:	cc00                	.insn	2, 0xcc00
     3ce:	d4000007          	.insn	4, 0xd4000007
     3d2:	01000007          	.insn	4, 0x01000007
     3d6:	5a00                	.insn	2, 0x5a00
	...
     3e0:	0800                	.insn	2, 0x0800
     3e2:	0000                	.insn	2, 0x0000
     3e4:	0808                	.insn	2, 0x0808
     3e6:	0000                	.insn	2, 0x0000
     3e8:	0001                	.insn	2, 0x0001
     3ea:	005a                	.insn	2, 0x005a
     3ec:	0000                	.insn	2, 0x0000
     3ee:	0000                	.insn	2, 0x0000
     3f0:	0000                	.insn	2, 0x0000
     3f2:	2000                	.insn	2, 0x2000
     3f4:	0008                	.insn	2, 0x0008
     3f6:	2800                	.insn	2, 0x2800
     3f8:	0008                	.insn	2, 0x0008
     3fa:	0100                	.insn	2, 0x0100
     3fc:	5c00                	.insn	2, 0x5c00
     3fe:	083c                	.insn	2, 0x083c
     400:	0000                	.insn	2, 0x0000
     402:	086c                	.insn	2, 0x086c
     404:	0000                	.insn	2, 0x0000
     406:	0001                	.insn	2, 0x0001
     408:	005c                	.insn	2, 0x005c
     40a:	0000                	.insn	2, 0x0000
     40c:	0000                	.insn	2, 0x0000
     40e:	0000                	.insn	2, 0x0000
     410:	2c00                	.insn	2, 0x2c00
     412:	0008                	.insn	2, 0x0008
     414:	3c00                	.insn	2, 0x3c00
     416:	0008                	.insn	2, 0x0008
     418:	0100                	.insn	2, 0x0100
     41a:	5e00                	.insn	2, 0x5e00
	...
     424:	0890                	.insn	2, 0x0890
     426:	0000                	.insn	2, 0x0000
     428:	08ac                	.insn	2, 0x08ac
     42a:	0000                	.insn	2, 0x0000
     42c:	0001                	.insn	2, 0x0001
     42e:	0000005b          	.insn	4, 0x005b
     432:	0000                	.insn	2, 0x0000
     434:	0000                	.insn	2, 0x0000
     436:	9000                	.insn	2, 0x9000
     438:	0009                	.insn	2, 0x0009
     43a:	a000                	.insn	2, 0xa000
     43c:	0009                	.insn	2, 0x0009
     43e:	0100                	.insn	2, 0x0100
     440:	5a00                	.insn	2, 0x5a00
     442:	09a0                	.insn	2, 0x09a0
     444:	0000                	.insn	2, 0x0000
     446:	09a4                	.insn	2, 0x09a4
     448:	0000                	.insn	2, 0x0000
     44a:	7f7c0003          	lb	zero,2039(s8)
     44e:	a49f 0009 c800      	.insn	6, 0xc8000009a49f
     454:	0009                	.insn	2, 0x0009
     456:	0300                	.insn	2, 0x0300
     458:	7c00                	.insn	2, 0x7c00
     45a:	9f7e                	.insn	2, 0x9f7e
     45c:	09cc                	.insn	2, 0x09cc
     45e:	0000                	.insn	2, 0x0000
     460:	09d4                	.insn	2, 0x09d4
     462:	0000                	.insn	2, 0x0000
     464:	0001                	.insn	2, 0x0001
     466:	d45c                	.insn	2, 0xd45c
     468:	0009                	.insn	2, 0x0009
     46a:	d800                	.insn	2, 0xd800
     46c:	0009                	.insn	2, 0x0009
     46e:	0300                	.insn	2, 0x0300
     470:	7c00                	.insn	2, 0x7c00
     472:	9f7e                	.insn	2, 0x9f7e
     474:	09d8                	.insn	2, 0x09d8
     476:	0000                	.insn	2, 0x0000
     478:	09e4                	.insn	2, 0x09e4
     47a:	0000                	.insn	2, 0x0000
     47c:	0001                	.insn	2, 0x0001
     47e:	e45c                	.insn	2, 0xe45c
     480:	0009                	.insn	2, 0x0009
     482:	e800                	.insn	2, 0xe800
     484:	0009                	.insn	2, 0x0009
     486:	0300                	.insn	2, 0x0300
     488:	7c00                	.insn	2, 0x7c00
     48a:	9f7e                	.insn	2, 0x9f7e
     48c:	0a04                	.insn	2, 0x0a04
     48e:	0000                	.insn	2, 0x0000
     490:	0a1c                	.insn	2, 0x0a1c
     492:	0000                	.insn	2, 0x0000
     494:	0001                	.insn	2, 0x0001
     496:	205c                	.insn	2, 0x205c
     498:	000a                	.insn	2, 0x000a
     49a:	5000                	.insn	2, 0x5000
     49c:	000a                	.insn	2, 0x000a
     49e:	0100                	.insn	2, 0x0100
     4a0:	5c00                	.insn	2, 0x5c00
	...
     4aa:	0990                	.insn	2, 0x0990
     4ac:	0000                	.insn	2, 0x0000
     4ae:	0a04                	.insn	2, 0x0a04
     4b0:	0000                	.insn	2, 0x0000
     4b2:	0002                	.insn	2, 0x0002
     4b4:	9f30                	.insn	2, 0x9f30
     4b6:	0a04                	.insn	2, 0x0a04
     4b8:	0000                	.insn	2, 0x0000
     4ba:	0a14                	.insn	2, 0x0a14
     4bc:	0000                	.insn	2, 0x0000
     4be:	0001                	.insn	2, 0x0001
     4c0:	185d                	.insn	2, 0x185d
     4c2:	000a                	.insn	2, 0x000a
     4c4:	5c00                	.insn	2, 0x5c00
     4c6:	000a                	.insn	2, 0x000a
     4c8:	0100                	.insn	2, 0x0100
     4ca:	5d00                	.insn	2, 0x5d00
	...
     4d4:	0a04                	.insn	2, 0x0a04
     4d6:	0000                	.insn	2, 0x0000
     4d8:	0a0c                	.insn	2, 0x0a0c
     4da:	0000                	.insn	2, 0x0000
     4dc:	0001                	.insn	2, 0x0001
     4de:	205a                	.insn	2, 0x205a
     4e0:	000a                	.insn	2, 0x000a
     4e2:	5000                	.insn	2, 0x5000
     4e4:	000a                	.insn	2, 0x000a
     4e6:	0100                	.insn	2, 0x0100
     4e8:	5a00                	.insn	2, 0x5a00
	...
     4f2:	0a10                	.insn	2, 0x0a10
     4f4:	0000                	.insn	2, 0x0000
     4f6:	0a20                	.insn	2, 0x0a20
     4f8:	0000                	.insn	2, 0x0000
     4fa:	0001                	.insn	2, 0x0001
     4fc:	0061                	.insn	2, 0x0061
     4fe:	0000                	.insn	2, 0x0000
     500:	0000                	.insn	2, 0x0000
     502:	0000                	.insn	2, 0x0000
     504:	5c00                	.insn	2, 0x5c00
     506:	000a                	.insn	2, 0x000a
     508:	7c00                	.insn	2, 0x7c00
     50a:	000a                	.insn	2, 0x000a
     50c:	0100                	.insn	2, 0x0100
     50e:	5a00                	.insn	2, 0x5a00
     510:	0a7c                	.insn	2, 0x0a7c
     512:	0000                	.insn	2, 0x0000
     514:	0b00                	.insn	2, 0x0b00
     516:	0000                	.insn	2, 0x0000
     518:	0001                	.insn	2, 0x0001
     51a:	0058                	.insn	2, 0x0058
     51c:	0000                	.insn	2, 0x0000
     51e:	0000                	.insn	2, 0x0000
     520:	0000                	.insn	2, 0x0000
     522:	7c00                	.insn	2, 0x7c00
     524:	000a                	.insn	2, 0x000a
     526:	9000                	.insn	2, 0x9000
     528:	000a                	.insn	2, 0x000a
     52a:	0200                	.insn	2, 0x0200
     52c:	3200                	.insn	2, 0x3200
     52e:	909f 000a d400      	.insn	6, 0xd400000a909f
     534:	000a                	.insn	2, 0x000a
     536:	0100                	.insn	2, 0x0100
     538:	6200                	.insn	2, 0x6200
	...
     542:	0a7c                	.insn	2, 0x0a7c
     544:	0000                	.insn	2, 0x0000
     546:	0a90                	.insn	2, 0x0a90
     548:	0000                	.insn	2, 0x0000
     54a:	00110003          	lb	zero,1(sp)
     54e:	909f 000a e800      	.insn	6, 0xe800000a909f
     554:	000a                	.insn	2, 0x000a
     556:	0100                	.insn	2, 0x0100
     558:	5900                	.insn	2, 0x5900
	...

00000562 <$d.3>:
     562:	ffff                	.insn	2, 0xffff
     564:	ffff                	.insn	2, 0xffff
     566:	0b34                	.insn	2, 0x0b34
     568:	0040                	.insn	2, 0x0040
     56a:	0000                	.insn	2, 0x0000
     56c:	0000                	.insn	2, 0x0000
     56e:	0014                	.insn	2, 0x0014
     570:	0000                	.insn	2, 0x0000
     572:	00110003          	lb	zero,1(sp)
     576:	009f 0000 0000      	.insn	6, 0x009f
     57c:	0000                	.insn	2, 0x0000
     57e:	ff00                	.insn	2, 0xff00
     580:	ffff                	.insn	2, 0xffff
     582:	400b34ff 00001800 	.insn	16, 0x5a0001000000280000001800400b34ff
     58a:	00002800 5a000100 
     592:	0028                	.insn	2, 0x0028
     594:	0000                	.insn	2, 0x0000
     596:	0374                	.insn	2, 0x0374
     598:	0000                	.insn	2, 0x0000
     59a:	0001                	.insn	2, 0x0001
     59c:	005f 0000 0000      	.insn	6, 0x005f
     5a2:	0000                	.insn	2, 0x0000
     5a4:	ff00                	.insn	2, 0xff00
     5a6:	ffff                	.insn	2, 0xffff
     5a8:	400b34ff 00002800 	.insn	16, 0x300002000000580000002800400b34ff
     5b0:	00005800 30000200 
     5b8:	589f 0000 b000      	.insn	6, 0xb0000000589f
     5be:	0000                	.insn	2, 0x0000
     5c0:	0100                	.insn	2, 0x0100
     5c2:	5b00                	.insn	2, 0x5b00
	...
     5cc:	ffff                	.insn	2, 0xffff
     5ce:	ffff                	.insn	2, 0xffff
     5d0:	0b34                	.insn	2, 0x0b34
     5d2:	0040                	.insn	2, 0x0040
     5d4:	0058                	.insn	2, 0x0058
     5d6:	0000                	.insn	2, 0x0000
     5d8:	0074                	.insn	2, 0x0074
     5da:	0000                	.insn	2, 0x0000
     5dc:	0002                	.insn	2, 0x0002
     5de:	9f30                	.insn	2, 0x9f30
     5e0:	0074                	.insn	2, 0x0074
     5e2:	0000                	.insn	2, 0x0000
     5e4:	0088                	.insn	2, 0x0088
     5e6:	0000                	.insn	2, 0x0000
     5e8:	0006                	.insn	2, 0x0006
     5ea:	007a                	.insn	2, 0x007a
     5ec:	0311                	.insn	2, 0x0311
     5ee:	00889f1b          	.insn	4, 0x00889f1b
     5f2:	0000                	.insn	2, 0x0000
     5f4:	009c                	.insn	2, 0x009c
     5f6:	0000                	.insn	2, 0x0000
     5f8:	0009                	.insn	2, 0x0009
     5fa:	007a                	.insn	2, 0x007a
     5fc:	0311                	.insn	2, 0x0311
     5fe:	2201111b          	.insn	4, 0x2201111b
     602:	009f 0000 0000      	.insn	6, 0x009f
     608:	0000                	.insn	2, 0x0000
     60a:	ff00                	.insn	2, 0xff00
     60c:	ffff                	.insn	2, 0xffff
     60e:	400b34ff 0000d000 	.insn	16, 0x5f00010000010c000000d000400b34ff
     616:	00010c00 5f000100 
     61e:	0194                	.insn	2, 0x0194
     620:	0000                	.insn	2, 0x0000
     622:	01cc                	.insn	2, 0x01cc
     624:	0000                	.insn	2, 0x0000
     626:	0001                	.insn	2, 0x0001
     628:	005f 0000 0000      	.insn	6, 0x005f
     62e:	0000                	.insn	2, 0x0000
     630:	ff00                	.insn	2, 0xff00
     632:	ffff                	.insn	2, 0xffff
     634:	400b34ff 0000d000 	.insn	16, 0x3a00020000010c000000d000400b34ff
     63c:	00010c00 3a000200 
     644:	949f 0001 cc00      	.insn	6, 0xcc000001949f
     64a:	0001                	.insn	2, 0x0001
     64c:	0200                	.insn	2, 0x0200
     64e:	3a00                	.insn	2, 0x3a00
     650:	009f 0000 0000      	.insn	6, 0x009f
     656:	0000                	.insn	2, 0x0000
     658:	ff00                	.insn	2, 0xff00
     65a:	ffff                	.insn	2, 0xffff
     65c:	400b34ff 0000d000 	.insn	16, 0x7200030000010c000000d000400b34ff
     664:	00010c00 72000300 
     66c:	9f10                	.insn	2, 0x9f10
	...
     676:	ffff                	.insn	2, 0xffff
     678:	ffff                	.insn	2, 0xffff
     67a:	0b34                	.insn	2, 0x0b34
     67c:	0040                	.insn	2, 0x0040
     67e:	00d0                	.insn	2, 0x00d0
     680:	0000                	.insn	2, 0x0000
     682:	010c                	.insn	2, 0x010c
     684:	0000                	.insn	2, 0x0000
     686:	0005                	.insn	2, 0x0005
     688:	9072                	.insn	2, 0x9072
     68a:	0180                	.insn	2, 0x0180
     68c:	009f 0000 0000      	.insn	6, 0x009f
     692:	0000                	.insn	2, 0x0000
     694:	ff00                	.insn	2, 0xff00
     696:	ffff                	.insn	2, 0xffff
     698:	400b34ff 0000d000 	.insn	16, 0x7200050000010c000000d000400b34ff
     6a0:	00010c00 72000500 
     6a8:	a090                	.insn	2, 0xa090
     6aa:	9f01                	.insn	2, 0x9f01
	...
     6b4:	ffff                	.insn	2, 0xffff
     6b6:	ffff                	.insn	2, 0xffff
     6b8:	0b34                	.insn	2, 0x0b34
     6ba:	0040                	.insn	2, 0x0040
     6bc:	00ec                	.insn	2, 0x00ec
     6be:	0000                	.insn	2, 0x0000
     6c0:	010c                	.insn	2, 0x010c
     6c2:	0000                	.insn	2, 0x0000
     6c4:	0001                	.insn	2, 0x0001
     6c6:	0061                	.insn	2, 0x0061
     6c8:	0000                	.insn	2, 0x0000
     6ca:	0000                	.insn	2, 0x0000
     6cc:	0000                	.insn	2, 0x0000
     6ce:	ff00                	.insn	2, 0xff00
     6d0:	ffff                	.insn	2, 0xffff
     6d2:	400b34ff 0000f000 	.insn	16, 0x1000030000010c000000f000400b34ff
     6da:	00010c00 10000300 
     6e2:	9f41                	.insn	2, 0x9f41
     6e4:	01b4                	.insn	2, 0x01b4
     6e6:	0000                	.insn	2, 0x0000
     6e8:	01cc                	.insn	2, 0x01cc
     6ea:	0000                	.insn	2, 0x0000
     6ec:	41100003          	lb	zero,1041(zero) # 411 <$d.6+0x189>
     6f0:	009f 0000 0000      	.insn	6, 0x009f
     6f6:	0000                	.insn	2, 0x0000
     6f8:	ff00                	.insn	2, 0xff00
     6fa:	ffff                	.insn	2, 0xffff
     6fc:	400b34ff 0000fc00 	.insn	16, 0x3a00020000010c000000fc00400b34ff
     704:	00010c00 3a000200 
     70c:	c09f 0001 cc00      	.insn	6, 0xcc000001c09f
     712:	0001                	.insn	2, 0x0001
     714:	0200                	.insn	2, 0x0200
     716:	3a00                	.insn	2, 0x3a00
     718:	009f 0000 0000      	.insn	6, 0x009f
     71e:	0000                	.insn	2, 0x0000
     720:	ff00                	.insn	2, 0xff00
     722:	ffff                	.insn	2, 0xffff
     724:	400b34ff 00010800 	.insn	16, 0x300002000001240000010800400b34ff
     72c:	00012400 30000200 
     734:	249f 0001 7400      	.insn	6, 0x74000001249f
     73a:	0001                	.insn	2, 0x0001
     73c:	0100                	.insn	2, 0x0100
     73e:	5b00                	.insn	2, 0x5b00
	...
     748:	ffff                	.insn	2, 0xffff
     74a:	ffff                	.insn	2, 0xffff
     74c:	0b34                	.insn	2, 0x0b34
     74e:	0040                	.insn	2, 0x0040
     750:	0124                	.insn	2, 0x0124
     752:	0000                	.insn	2, 0x0000
     754:	0134                	.insn	2, 0x0134
     756:	0000                	.insn	2, 0x0000
     758:	0002                	.insn	2, 0x0002
     75a:	9f30                	.insn	2, 0x9f30
     75c:	0134                	.insn	2, 0x0134
     75e:	0000                	.insn	2, 0x0000
     760:	0150                	.insn	2, 0x0150
     762:	0000                	.insn	2, 0x0000
     764:	000c                	.insn	2, 0x000c
     766:	0081                	.insn	2, 0x0081
     768:	9072                	.insn	2, 0x9072
     76a:	01a0                	.insn	2, 0x01a0
     76c:	111c                	.insn	2, 0x111c
     76e:	00c0                	.insn	2, 0x00c0
     770:	01509f1b          	.insn	4, 0x01509f1b
     774:	0000                	.insn	2, 0x0000
     776:	0158                	.insn	2, 0x0158
     778:	0000                	.insn	2, 0x0000
     77a:	0081000f          	.insn	4, 0x0081000f
     77e:	9072                	.insn	2, 0x9072
     780:	01a0                	.insn	2, 0x01a0
     782:	111c                	.insn	2, 0x111c
     784:	00c0                	.insn	2, 0x00c0
     786:	2201111b          	.insn	4, 0x2201111b
     78a:	009f 0000 0000      	.insn	6, 0x009f
     790:	0000                	.insn	2, 0x0000
     792:	ff00                	.insn	2, 0xff00
     794:	ffff                	.insn	2, 0xffff
     796:	400b34ff 0001d000 	.insn	16, 0x3a0002000001fc000001d000400b34ff
     79e:	0001fc00 3a000200 
     7a6:	a49f 0002 cc00      	.insn	6, 0xcc000002a49f
     7ac:	0002                	.insn	2, 0x0002
     7ae:	0200                	.insn	2, 0x0200
     7b0:	3a00                	.insn	2, 0x3a00
     7b2:	009f 0000 0000      	.insn	6, 0x009f
     7b8:	0000                	.insn	2, 0x0000
     7ba:	ff00                	.insn	2, 0xff00
     7bc:	ffff                	.insn	2, 0xffff
     7be:	400b34ff 0001e000 	.insn	16, 0x100003000001fc000001e000400b34ff
     7c6:	0001fc00 10000300 
     7ce:	9f42                	.insn	2, 0x9f42
     7d0:	02b4                	.insn	2, 0x02b4
     7d2:	0000                	.insn	2, 0x0000
     7d4:	02cc                	.insn	2, 0x02cc
     7d6:	0000                	.insn	2, 0x0000
     7d8:	42100003          	lb	zero,1057(zero) # 421 <$d.6+0x199>
     7dc:	009f 0000 0000      	.insn	6, 0x009f
     7e2:	0000                	.insn	2, 0x0000
     7e4:	ff00                	.insn	2, 0xff00
     7e6:	ffff                	.insn	2, 0xffff
     7e8:	400b34ff 0001ec00 	.insn	16, 0x3a0002000001fc000001ec00400b34ff
     7f0:	0001fc00 3a000200 
     7f8:	c09f 0002 cc00      	.insn	6, 0xcc000002c09f
     7fe:	0002                	.insn	2, 0x0002
     800:	0200                	.insn	2, 0x0200
     802:	3a00                	.insn	2, 0x3a00
     804:	009f 0000 0000      	.insn	6, 0x009f
     80a:	0000                	.insn	2, 0x0000
     80c:	ff00                	.insn	2, 0xff00
     80e:	ffff                	.insn	2, 0xffff
     810:	400b34ff 0001f800 	.insn	16, 0x30000200000220000001f800400b34ff
     818:	00022000 30000200 
     820:	209f 0002 7000      	.insn	6, 0x70000002209f
     826:	0002                	.insn	2, 0x0002
     828:	0100                	.insn	2, 0x0100
     82a:	5b00                	.insn	2, 0x5b00
	...
     834:	ffff                	.insn	2, 0xffff
     836:	ffff                	.insn	2, 0xffff
     838:	0b34                	.insn	2, 0x0b34
     83a:	0040                	.insn	2, 0x0040
     83c:	0220                	.insn	2, 0x0220
     83e:	0000                	.insn	2, 0x0000
     840:	0230                	.insn	2, 0x0230
     842:	0000                	.insn	2, 0x0000
     844:	0002                	.insn	2, 0x0002
     846:	9f30                	.insn	2, 0x9f30
     848:	0230                	.insn	2, 0x0230
     84a:	0000                	.insn	2, 0x0000
     84c:	024c                	.insn	2, 0x024c
     84e:	0000                	.insn	2, 0x0000
     850:	000c                	.insn	2, 0x000c
     852:	0081                	.insn	2, 0x0081
     854:	9072                	.insn	2, 0x9072
     856:	0180                	.insn	2, 0x0180
     858:	111c                	.insn	2, 0x111c
     85a:	00c0                	.insn	2, 0x00c0
     85c:	024c9f1b          	.insn	4, 0x024c9f1b
     860:	0000                	.insn	2, 0x0000
     862:	0254                	.insn	2, 0x0254
     864:	0000                	.insn	2, 0x0000
     866:	0081000f          	.insn	4, 0x0081000f
     86a:	9072                	.insn	2, 0x9072
     86c:	0180                	.insn	2, 0x0180
     86e:	111c                	.insn	2, 0x111c
     870:	00c0                	.insn	2, 0x00c0
     872:	2201111b          	.insn	4, 0x2201111b
     876:	009f 0000 0000      	.insn	6, 0x009f
     87c:	0000                	.insn	2, 0x0000
     87e:	ff00                	.insn	2, 0xff00
     880:	ffff                	.insn	2, 0xffff
     882:	400b34ff 00027400 	.insn	16, 0x3a0002000002a00000027400400b34ff
     88a:	0002a000 3a000200 
     892:	d09f 0002 fc00      	.insn	6, 0xfc000002d09f
     898:	0002                	.insn	2, 0x0002
     89a:	0200                	.insn	2, 0x0200
     89c:	3a00                	.insn	2, 0x3a00
     89e:	009f 0000 0000      	.insn	6, 0x009f
     8a4:	0000                	.insn	2, 0x0000
     8a6:	ff00                	.insn	2, 0xff00
     8a8:	ffff                	.insn	2, 0xffff
     8aa:	400b34ff 00028400 	.insn	16, 0x100003000002a00000028400400b34ff
     8b2:	0002a000 10000300 
     8ba:	02e09f43          	.insn	4, 0x02e09f43
     8be:	0000                	.insn	2, 0x0000
     8c0:	02fc                	.insn	2, 0x02fc
     8c2:	0000                	.insn	2, 0x0000
     8c4:	43100003          	lb	zero,1073(zero) # 431 <$d.6+0x1a9>
     8c8:	009f 0000 0000      	.insn	6, 0x009f
     8ce:	0000                	.insn	2, 0x0000
     8d0:	ff00                	.insn	2, 0xff00
     8d2:	ffff                	.insn	2, 0xffff
     8d4:	400b34ff 00029000 	.insn	16, 0x3a0002000002a00000029000400b34ff
     8dc:	0002a000 3a000200 
     8e4:	ec9f 0002 fc00      	.insn	6, 0xfc000002ec9f
     8ea:	0002                	.insn	2, 0x0002
     8ec:	0200                	.insn	2, 0x0200
     8ee:	3a00                	.insn	2, 0x3a00
     8f0:	009f 0000 0000      	.insn	6, 0x009f
     8f6:	0000                	.insn	2, 0x0000
     8f8:	ff00                	.insn	2, 0xff00
     8fa:	ffff                	.insn	2, 0xffff
     8fc:	400b34ff 0002f800 	.insn	16, 0x3000020000030c000002f800400b34ff
     904:	00030c00 30000200 
     90c:	0c9f 0003 5400      	.insn	6, 0x540000030c9f
     912:	01000003          	lb	zero,16(zero) # 10 <$d.2+0x10>
     916:	5b00                	.insn	2, 0x5b00
	...
     920:	ffff                	.insn	2, 0xffff
     922:	ffff                	.insn	2, 0xffff
     924:	0b34                	.insn	2, 0x0b34
     926:	0040                	.insn	2, 0x0040
     928:	0314                	.insn	2, 0x0314
     92a:	0000                	.insn	2, 0x0000
     92c:	0330                	.insn	2, 0x0330
     92e:	0000                	.insn	2, 0x0000
     930:	0009                	.insn	2, 0x0009
     932:	0075                	.insn	2, 0x0075
     934:	007f 111c 1b7f 309f 	.insn	10, 0x0003309f1b7f111c007f
     93c:	0003 
     93e:	3400                	.insn	2, 0x3400
     940:	0c000003          	lb	zero,192(zero) # c0 <$d.10+0x4c>
     944:	7500                	.insn	2, 0x7500
     946:	7f00                	.insn	2, 0x7f00
     948:	1c00                	.insn	2, 0x1c00
     94a:	7f11                	.insn	2, 0x7f11
     94c:	2201111b          	.insn	4, 0x2201111b
     950:	009f 0000 0000      	.insn	6, 0x009f
     956:	0000                	.insn	2, 0x0000
     958:	ff00                	.insn	2, 0xff00
     95a:	ffff                	.insn	2, 0xffff
     95c:	400b34ff 00037400 	.insn	16, 0x5a0001000003780000037400400b34ff
     964:	00037800 5a000100 
     96c:	0378                	.insn	2, 0x0378
     96e:	0000                	.insn	2, 0x0000
     970:	0388                	.insn	2, 0x0388
     972:	0000                	.insn	2, 0x0000
     974:	0001                	.insn	2, 0x0001
     976:	0000005b          	.insn	4, 0x005b
     97a:	0000                	.insn	2, 0x0000
     97c:	0000                	.insn	2, 0x0000
     97e:	ff00                	.insn	2, 0xff00
     980:	ffff                	.insn	2, 0xffff
     982:	400b34ff 00038800 	.insn	16, 0x5a00010000038c0000038800400b34ff
     98a:	00038c00 5a000100 
     992:	038c                	.insn	2, 0x038c
     994:	0000                	.insn	2, 0x0000
     996:	039c                	.insn	2, 0x039c
     998:	0000                	.insn	2, 0x0000
     99a:	0001                	.insn	2, 0x0001
     99c:	0000005b          	.insn	4, 0x005b
     9a0:	0000                	.insn	2, 0x0000
     9a2:	0000                	.insn	2, 0x0000
     9a4:	ff00                	.insn	2, 0xff00
     9a6:	ffff                	.insn	2, 0xffff
     9a8:	400b34ff 00039c00 	.insn	16, 0x5a0001000003a40000039c00400b34ff
     9b0:	0003a400 5a000100 
	...
     9c0:	ffff                	.insn	2, 0xffff
     9c2:	ffff                	.insn	2, 0xffff
     9c4:	0b34                	.insn	2, 0x0b34
     9c6:	0040                	.insn	2, 0x0040
     9c8:	03a8                	.insn	2, 0x03a8
     9ca:	0000                	.insn	2, 0x0000
     9cc:	03bc                	.insn	2, 0x03bc
     9ce:	0000                	.insn	2, 0x0000
     9d0:	0001                	.insn	2, 0x0001
     9d2:	bc5a                	.insn	2, 0xbc5a
     9d4:	0c000003          	lb	zero,192(zero) # c0 <$d.10+0x4c>
     9d8:	0004                	.insn	2, 0x0004
     9da:	0100                	.insn	2, 0x0100
     9dc:	5800                	.insn	2, 0x5800
     9de:	0418                	.insn	2, 0x0418
     9e0:	0000                	.insn	2, 0x0000
     9e2:	0454                	.insn	2, 0x0454
     9e4:	0000                	.insn	2, 0x0000
     9e6:	0001                	.insn	2, 0x0001
     9e8:	0058                	.insn	2, 0x0058
     9ea:	0000                	.insn	2, 0x0000
     9ec:	0000                	.insn	2, 0x0000
     9ee:	0000                	.insn	2, 0x0000
     9f0:	ff00                	.insn	2, 0xff00
     9f2:	ffff                	.insn	2, 0xffff
     9f4:	400b34ff 00042c00 	.insn	16, 0x590001000004540000042c00400b34ff
     9fc:	00045400 59000100 
	...
     a0c:	ffff                	.insn	2, 0xffff
     a0e:	ffff                	.insn	2, 0xffff
     a10:	0b34                	.insn	2, 0x0b34
     a12:	0040                	.insn	2, 0x0040
     a14:	0440                	.insn	2, 0x0440
     a16:	0000                	.insn	2, 0x0000
     a18:	0450                	.insn	2, 0x0450
     a1a:	0000                	.insn	2, 0x0000
     a1c:	0001                	.insn	2, 0x0001
     a1e:	5058                	.insn	2, 0x5058
     a20:	0004                	.insn	2, 0x0004
     a22:	5400                	.insn	2, 0x5400
     a24:	0004                	.insn	2, 0x0004
     a26:	0100                	.insn	2, 0x0100
     a28:	5a00                	.insn	2, 0x5a00
	...
     a32:	ffff                	.insn	2, 0xffff
     a34:	ffff                	.insn	2, 0xffff
     a36:	0b34                	.insn	2, 0x0b34
     a38:	0040                	.insn	2, 0x0040
     a3a:	0454                	.insn	2, 0x0454
     a3c:	0000                	.insn	2, 0x0000
     a3e:	0470                	.insn	2, 0x0470
     a40:	0000                	.insn	2, 0x0000
     a42:	0001                	.insn	2, 0x0001
     a44:	705a                	.insn	2, 0x705a
     a46:	0004                	.insn	2, 0x0004
     a48:	1000                	.insn	2, 0x1000
     a4a:	01000007          	.insn	4, 0x01000007
     a4e:	5500                	.insn	2, 0x5500
	...
     a58:	ffff                	.insn	2, 0xffff
     a5a:	ffff                	.insn	2, 0xffff
     a5c:	0b34                	.insn	2, 0x0b34
     a5e:	0040                	.insn	2, 0x0040
     a60:	0520                	.insn	2, 0x0520
     a62:	0000                	.insn	2, 0x0000
     a64:	053c                	.insn	2, 0x053c
     a66:	0000                	.insn	2, 0x0000
     a68:	0001                	.insn	2, 0x0001
     a6a:	8059                	.insn	2, 0x8059
     a6c:	0006                	.insn	2, 0x0006
     a6e:	9000                	.insn	2, 0x9000
     a70:	0006                	.insn	2, 0x0006
     a72:	0100                	.insn	2, 0x0100
     a74:	5900                	.insn	2, 0x5900
	...
     a7e:	ffff                	.insn	2, 0xffff
     a80:	ffff                	.insn	2, 0xffff
     a82:	0b34                	.insn	2, 0x0b34
     a84:	0040                	.insn	2, 0x0040
     a86:	0524                	.insn	2, 0x0524
     a88:	0000                	.insn	2, 0x0000
     a8a:	053c                	.insn	2, 0x053c
     a8c:	0000                	.insn	2, 0x0000
     a8e:	0001                	.insn	2, 0x0001
     a90:	9059                	.insn	2, 0x9059
     a92:	0006                	.insn	2, 0x0006
     a94:	9c00                	.insn	2, 0x9c00
     a96:	0006                	.insn	2, 0x0006
     a98:	0100                	.insn	2, 0x0100
     a9a:	5900                	.insn	2, 0x5900
     a9c:	069c                	.insn	2, 0x069c
     a9e:	0000                	.insn	2, 0x0000
     aa0:	06a4                	.insn	2, 0x06a4
     aa2:	0000                	.insn	2, 0x0000
     aa4:	0001                	.insn	2, 0x0001
     aa6:	a45d                	.insn	2, 0xa45d
     aa8:	0006                	.insn	2, 0x0006
     aaa:	c000                	.insn	2, 0xc000
     aac:	0006                	.insn	2, 0x0006
     aae:	0100                	.insn	2, 0x0100
     ab0:	5900                	.insn	2, 0x5900
	...
     aba:	ffff                	.insn	2, 0xffff
     abc:	ffff                	.insn	2, 0xffff
     abe:	0b34                	.insn	2, 0x0b34
     ac0:	0040                	.insn	2, 0x0040
     ac2:	0524                	.insn	2, 0x0524
     ac4:	0000                	.insn	2, 0x0000
     ac6:	053c                	.insn	2, 0x053c
     ac8:	0000                	.insn	2, 0x0000
     aca:	00110003          	lb	zero,1(sp)
     ace:	909f 0006 9400      	.insn	6, 0x94000006909f
     ad4:	0006                	.insn	2, 0x0006
     ad6:	0300                	.insn	2, 0x0300
     ad8:	1100                	.insn	2, 0x1100
     ada:	9f00                	.insn	2, 0x9f00
     adc:	069c                	.insn	2, 0x069c
     ade:	0000                	.insn	2, 0x0000
     ae0:	06b4                	.insn	2, 0x06b4
     ae2:	0000                	.insn	2, 0x0000
     ae4:	0001                	.insn	2, 0x0001
     ae6:	b462                	.insn	2, 0xb462
     ae8:	0006                	.insn	2, 0x0006
     aea:	c000                	.insn	2, 0xc000
     aec:	0006                	.insn	2, 0x0006
     aee:	0100                	.insn	2, 0x0100
     af0:	5a00                	.insn	2, 0x5a00
	...
     afa:	ffff                	.insn	2, 0xffff
     afc:	ffff                	.insn	2, 0xffff
     afe:	0b34                	.insn	2, 0x0b34
     b00:	0040                	.insn	2, 0x0040
     b02:	0554                	.insn	2, 0x0554
     b04:	0000                	.insn	2, 0x0000
     b06:	056c                	.insn	2, 0x056c
     b08:	0000                	.insn	2, 0x0000
     b0a:	07110003          	lb	zero,113(sp)
     b0e:	6c9f 0005 8800      	.insn	6, 0x880000056c9f
     b14:	0005                	.insn	2, 0x0005
     b16:	0300                	.insn	2, 0x0300
     b18:	1100                	.insn	2, 0x1100
     b1a:	9f06                	.insn	2, 0x9f06
     b1c:	0588                	.insn	2, 0x0588
     b1e:	0000                	.insn	2, 0x0000
     b20:	05a4                	.insn	2, 0x05a4
     b22:	0000                	.insn	2, 0x0000
     b24:	05110003          	lb	zero,81(sp)
     b28:	a49f 0005 c000      	.insn	6, 0xc0000005a49f
     b2e:	0005                	.insn	2, 0x0005
     b30:	0300                	.insn	2, 0x0300
     b32:	1100                	.insn	2, 0x1100
     b34:	9f04                	.insn	2, 0x9f04
     b36:	05c0                	.insn	2, 0x05c0
     b38:	0000                	.insn	2, 0x0000
     b3a:	05dc                	.insn	2, 0x05dc
     b3c:	0000                	.insn	2, 0x0000
     b3e:	03110003          	lb	zero,49(sp)
     b42:	dc9f 0005 f800      	.insn	6, 0xf8000005dc9f
     b48:	0005                	.insn	2, 0x0005
     b4a:	0300                	.insn	2, 0x0300
     b4c:	1100                	.insn	2, 0x1100
     b4e:	9f02                	.insn	2, 0x9f02
     b50:	05f8                	.insn	2, 0x05f8
     b52:	0000                	.insn	2, 0x0000
     b54:	0614                	.insn	2, 0x0614
     b56:	0000                	.insn	2, 0x0000
     b58:	01110003          	lb	zero,17(sp)
     b5c:	149f 0006 2c00      	.insn	6, 0x2c000006149f
     b62:	0006                	.insn	2, 0x0006
     b64:	0300                	.insn	2, 0x0300
     b66:	1100                	.insn	2, 0x1100
     b68:	9f00                	.insn	2, 0x9f00
     b6a:	062c                	.insn	2, 0x062c
     b6c:	0000                	.insn	2, 0x0000
     b6e:	0634                	.insn	2, 0x0634
     b70:	0000                	.insn	2, 0x0000
     b72:	7f110003          	lb	zero,2033(sp)
     b76:	009f 0000 0000      	.insn	6, 0x009f
     b7c:	0000                	.insn	2, 0x0000
     b7e:	ff00                	.insn	2, 0xff00
     b80:	ffff                	.insn	2, 0xffff
     b82:	400b34ff 00055400 	.insn	16, 0x590001000006180000055400400b34ff
     b8a:	00061800 59000100 
	...
     b9a:	ffff                	.insn	2, 0xffff
     b9c:	ffff                	.insn	2, 0xffff
     b9e:	0b34                	.insn	2, 0x0b34
     ba0:	0040                	.insn	2, 0x0040
     ba2:	0558                	.insn	2, 0x0558
     ba4:	0000                	.insn	2, 0x0000
     ba6:	055c                	.insn	2, 0x055c
     ba8:	0000                	.insn	2, 0x0000
     baa:	0001                	.insn	2, 0x0001
     bac:	745a                	.insn	2, 0x745a
     bae:	0005                	.insn	2, 0x0005
     bb0:	7800                	.insn	2, 0x7800
     bb2:	0005                	.insn	2, 0x0005
     bb4:	0100                	.insn	2, 0x0100
     bb6:	5a00                	.insn	2, 0x5a00
     bb8:	0590                	.insn	2, 0x0590
     bba:	0000                	.insn	2, 0x0000
     bbc:	0594                	.insn	2, 0x0594
     bbe:	0000                	.insn	2, 0x0000
     bc0:	0001                	.insn	2, 0x0001
     bc2:	ac5a                	.insn	2, 0xac5a
     bc4:	0005                	.insn	2, 0x0005
     bc6:	b000                	.insn	2, 0xb000
     bc8:	0005                	.insn	2, 0x0005
     bca:	0100                	.insn	2, 0x0100
     bcc:	5a00                	.insn	2, 0x5a00
     bce:	05c8                	.insn	2, 0x05c8
     bd0:	0000                	.insn	2, 0x0000
     bd2:	05cc                	.insn	2, 0x05cc
     bd4:	0000                	.insn	2, 0x0000
     bd6:	0001                	.insn	2, 0x0001
     bd8:	e45a                	.insn	2, 0xe45a
     bda:	0005                	.insn	2, 0x0005
     bdc:	e800                	.insn	2, 0xe800
     bde:	0005                	.insn	2, 0x0005
     be0:	0100                	.insn	2, 0x0100
     be2:	5a00                	.insn	2, 0x5a00
     be4:	0600                	.insn	2, 0x0600
     be6:	0000                	.insn	2, 0x0000
     be8:	0604                	.insn	2, 0x0604
     bea:	0000                	.insn	2, 0x0000
     bec:	0001                	.insn	2, 0x0001
     bee:	185a                	.insn	2, 0x185a
     bf0:	0006                	.insn	2, 0x0006
     bf2:	1c00                	.insn	2, 0x1c00
     bf4:	0006                	.insn	2, 0x0006
     bf6:	0100                	.insn	2, 0x0100
     bf8:	5900                	.insn	2, 0x5900
	...
     c02:	ffff                	.insn	2, 0xffff
     c04:	ffff                	.insn	2, 0xffff
     c06:	0b34                	.insn	2, 0x0b34
     c08:	0040                	.insn	2, 0x0040
     c0a:	0658                	.insn	2, 0x0658
     c0c:	0000                	.insn	2, 0x0000
     c0e:	0664                	.insn	2, 0x0664
     c10:	0000                	.insn	2, 0x0000
     c12:	0001                	.insn	2, 0x0001
     c14:	6462                	.insn	2, 0x6462
     c16:	0006                	.insn	2, 0x0006
     c18:	7000                	.insn	2, 0x7000
     c1a:	0006                	.insn	2, 0x0006
     c1c:	0300                	.insn	2, 0x0300
     c1e:	8200                	.insn	2, 0x8200
     c20:	06709f7f 06780000 	.insn	12, 0x000100000678000006709f7f
     c28:	00010000 
     c2c:	0062                	.insn	2, 0x0062
     c2e:	0000                	.insn	2, 0x0000
     c30:	0000                	.insn	2, 0x0000
     c32:	0000                	.insn	2, 0x0000
     c34:	ff00                	.insn	2, 0xff00
     c36:	ffff                	.insn	2, 0xffff
     c38:	400b34ff 00071000 	.insn	16, 0x5a0001000007180000071000400b34ff
     c40:	00071800 5a000100 
	...
     c50:	ffff                	.insn	2, 0xffff
     c52:	ffff                	.insn	2, 0xffff
     c54:	0b34                	.insn	2, 0x0b34
     c56:	0040                	.insn	2, 0x0040
     c58:	071c                	.insn	2, 0x071c
     c5a:	0000                	.insn	2, 0x0000
     c5c:	0724                	.insn	2, 0x0724
     c5e:	0000                	.insn	2, 0x0000
     c60:	0001                	.insn	2, 0x0001
     c62:	005a                	.insn	2, 0x005a
     c64:	0000                	.insn	2, 0x0000
     c66:	0000                	.insn	2, 0x0000
     c68:	0000                	.insn	2, 0x0000
     c6a:	ff00                	.insn	2, 0xff00
     c6c:	ffff                	.insn	2, 0xffff
     c6e:	400b34ff 00072800 	.insn	16, 0x5a0001000007300000072800400b34ff
     c76:	00073000 5a000100 
	...
     c86:	ffff                	.insn	2, 0xffff
     c88:	ffff                	.insn	2, 0xffff
     c8a:	0b34                	.insn	2, 0x0b34
     c8c:	0040                	.insn	2, 0x0040
     c8e:	0734                	.insn	2, 0x0734
     c90:	0000                	.insn	2, 0x0000
     c92:	073c                	.insn	2, 0x073c
     c94:	0000                	.insn	2, 0x0000
     c96:	0001                	.insn	2, 0x0001
     c98:	005a                	.insn	2, 0x005a
     c9a:	0000                	.insn	2, 0x0000
     c9c:	0000                	.insn	2, 0x0000
     c9e:	0000                	.insn	2, 0x0000
     ca0:	ff00                	.insn	2, 0xff00
     ca2:	ffff                	.insn	2, 0xffff
     ca4:	400b34ff 00074c00 	.insn	16, 0x5b00010000075c0000074c00400b34ff
     cac:	00075c00 5b000100 
     cb4:	0760                	.insn	2, 0x0760
     cb6:	0000                	.insn	2, 0x0000
     cb8:	0770                	.insn	2, 0x0770
     cba:	0000                	.insn	2, 0x0000
     cbc:	0001                	.insn	2, 0x0001
     cbe:	0000005b          	.insn	4, 0x005b
     cc2:	0000                	.insn	2, 0x0000
     cc4:	0000                	.insn	2, 0x0000
     cc6:	ff00                	.insn	2, 0xff00
     cc8:	ffff                	.insn	2, 0xffff
     cca:	400b34ff 00074c00 	.insn	16, 0x5a0001000007600000074c00400b34ff
     cd2:	00076000 5a000100 
     cda:	0760                	.insn	2, 0x0760
     cdc:	0000                	.insn	2, 0x0000
     cde:	076c                	.insn	2, 0x076c
     ce0:	0000                	.insn	2, 0x0000
     ce2:	0001                	.insn	2, 0x0001
     ce4:	6c5e                	.insn	2, 0x6c5e
     ce6:	78000007          	.insn	4, 0x78000007
     cea:	01000007          	.insn	4, 0x01000007
     cee:	5d00                	.insn	2, 0x5d00
	...
     cf8:	ffff                	.insn	2, 0xffff
     cfa:	ffff                	.insn	2, 0xffff
     cfc:	0b34                	.insn	2, 0x0b34
     cfe:	0040                	.insn	2, 0x0040
     d00:	0780                	.insn	2, 0x0780
     d02:	0000                	.insn	2, 0x0000
     d04:	078c                	.insn	2, 0x078c
     d06:	0000                	.insn	2, 0x0000
     d08:	0001                	.insn	2, 0x0001
     d0a:	8c5a                	.insn	2, 0x8c5a
     d0c:	98000007          	.insn	4, 0x98000007
     d10:	03000007          	.insn	4, 0x03000007
     d14:	7a00                	.insn	2, 0x7a00
     d16:	07989f7f 07a40000 	.insn	12, 0x0001000007a4000007989f7f
     d1e:	00010000 
     d22:	b05a                	.insn	2, 0xb05a
     d24:	b4000007          	.insn	4, 0xb4000007
     d28:	01000007          	.insn	4, 0x01000007
     d2c:	5a00                	.insn	2, 0x5a00
	...
     d36:	ffff                	.insn	2, 0xffff
     d38:	ffff                	.insn	2, 0xffff
     d3a:	0b34                	.insn	2, 0x0b34
     d3c:	0040                	.insn	2, 0x0040
     d3e:	0780                	.insn	2, 0x0780
     d40:	0000                	.insn	2, 0x0000
     d42:	07b8                	.insn	2, 0x07b8
     d44:	0000                	.insn	2, 0x0000
     d46:	0001                	.insn	2, 0x0001
     d48:	0000005b          	.insn	4, 0x005b
     d4c:	0000                	.insn	2, 0x0000
     d4e:	0000                	.insn	2, 0x0000
     d50:	ff00                	.insn	2, 0xff00
     d52:	ffff                	.insn	2, 0xffff
     d54:	400b34ff 0007c000 	.insn	16, 0x5a0001000007c4000007c000400b34ff
     d5c:	0007c400 5a000100 
     d64:	07c4                	.insn	2, 0x07c4
     d66:	0000                	.insn	2, 0x0000
     d68:	0808                	.insn	2, 0x0808
     d6a:	0000                	.insn	2, 0x0000
     d6c:	0001                	.insn	2, 0x0001
     d6e:	0008145b          	.insn	4, 0x0008145b
     d72:	6000                	.insn	2, 0x6000
     d74:	0008                	.insn	2, 0x0008
     d76:	0100                	.insn	2, 0x0100
     d78:	5b00                	.insn	2, 0x5b00
	...
     d82:	ffff                	.insn	2, 0xffff
     d84:	ffff                	.insn	2, 0xffff
     d86:	0b34                	.insn	2, 0x0b34
     d88:	0040                	.insn	2, 0x0040
     d8a:	07c4                	.insn	2, 0x07c4
     d8c:	0000                	.insn	2, 0x0000
     d8e:	07e4                	.insn	2, 0x07e4
     d90:	0000                	.insn	2, 0x0000
     d92:	0002                	.insn	2, 0x0002
     d94:	9f3a                	.insn	2, 0x9f3a
     d96:	07e4                	.insn	2, 0x07e4
     d98:	0000                	.insn	2, 0x0000
     d9a:	07f0                	.insn	2, 0x07f0
     d9c:	0000                	.insn	2, 0x0000
     d9e:	0002                	.insn	2, 0x0002
     da0:	9f40                	.insn	2, 0x9f40
     da2:	07f0                	.insn	2, 0x07f0
     da4:	0000                	.insn	2, 0x0000
     da6:	07fc                	.insn	2, 0x07fc
     da8:	0000                	.insn	2, 0x0000
     daa:	0001                	.insn	2, 0x0001
     dac:	fc5c                	.insn	2, 0xfc5c
     dae:	00000007          	.insn	4, 0x0007
     db2:	0008                	.insn	2, 0x0008
     db4:	0200                	.insn	2, 0x0200
     db6:	3a00                	.insn	2, 0x3a00
     db8:	009f 0000 0000      	.insn	6, 0x009f
     dbe:	0000                	.insn	2, 0x0000
     dc0:	ff00                	.insn	2, 0xff00
     dc2:	ffff                	.insn	2, 0xffff
     dc4:	400b34ff 0007f000 	.insn	16, 0x300002000007fc000007f000400b34ff
     dcc:	0007fc00 30000200 
     dd4:	149f 0008 5800      	.insn	6, 0x58000008149f
     dda:	0008                	.insn	2, 0x0008
     ddc:	0100                	.insn	2, 0x0100
     dde:	5a00                	.insn	2, 0x5a00
     de0:	085c                	.insn	2, 0x085c
     de2:	0000                	.insn	2, 0x0000
     de4:	0868                	.insn	2, 0x0868
     de6:	0000                	.insn	2, 0x0000
     de8:	0001                	.insn	2, 0x0001
     dea:	005a                	.insn	2, 0x005a
     dec:	0000                	.insn	2, 0x0000
     dee:	0000                	.insn	2, 0x0000
     df0:	0000                	.insn	2, 0x0000
     df2:	ff00                	.insn	2, 0xff00
     df4:	ffff                	.insn	2, 0xffff
     df6:	400b34ff 00081400 	.insn	16, 0x5d0001000008480000081400400b34ff
     dfe:	00084800 5d000100 
	...
     e0e:	ffff                	.insn	2, 0xffff
     e10:	ffff                	.insn	2, 0xffff
     e12:	0b34                	.insn	2, 0x0b34
     e14:	0040                	.insn	2, 0x0040
     e16:	084c                	.insn	2, 0x084c
     e18:	0000                	.insn	2, 0x0000
     e1a:	0864                	.insn	2, 0x0864
     e1c:	0000                	.insn	2, 0x0000
     e1e:	0001                	.insn	2, 0x0001
     e20:	0061                	.insn	2, 0x0061
     e22:	0000                	.insn	2, 0x0000
     e24:	0000                	.insn	2, 0x0000
     e26:	0000                	.insn	2, 0x0000
     e28:	ff00                	.insn	2, 0xff00
     e2a:	ffff                	.insn	2, 0xffff
     e2c:	400b34ff 00086800 	.insn	16, 0x5a0001000008740000086800400b34ff
     e34:	00087400 5a000100 
     e3c:	0878                	.insn	2, 0x0878
     e3e:	0000                	.insn	2, 0x0000
     e40:	08a4                	.insn	2, 0x08a4
     e42:	0000                	.insn	2, 0x0000
     e44:	0001                	.insn	2, 0x0001
     e46:	005a                	.insn	2, 0x005a
     e48:	0000                	.insn	2, 0x0000
     e4a:	0000                	.insn	2, 0x0000
     e4c:	0000                	.insn	2, 0x0000
     e4e:	ff00                	.insn	2, 0xff00
     e50:	ffff                	.insn	2, 0xffff
     e52:	400b34ff 00087800 	.insn	16, 0x320002000008880000087800400b34ff
     e5a:	00088800 32000200 
     e62:	889f 0008 8c00      	.insn	6, 0x8c000008889f
     e68:	0008                	.insn	2, 0x0008
     e6a:	0100                	.insn	2, 0x0100
     e6c:	5b00                	.insn	2, 0x5b00
     e6e:	088c                	.insn	2, 0x088c
     e70:	0000                	.insn	2, 0x0000
     e72:	0894                	.insn	2, 0x0894
     e74:	0000                	.insn	2, 0x0000
     e76:	017b0003          	lb	zero,23(s6)
     e7a:	949f 0008 9c00      	.insn	6, 0x9c000008949f
     e80:	0008                	.insn	2, 0x0008
     e82:	0100                	.insn	2, 0x0100
     e84:	5b00                	.insn	2, 0x5b00
	...
     e8e:	ffff                	.insn	2, 0xffff
     e90:	ffff                	.insn	2, 0xffff
     e92:	0b34                	.insn	2, 0x0b34
     e94:	0040                	.insn	2, 0x0040
     e96:	08b4                	.insn	2, 0x08b4
     e98:	0000                	.insn	2, 0x0000
     e9a:	08bc                	.insn	2, 0x08bc
     e9c:	0000                	.insn	2, 0x0000
     e9e:	0001                	.insn	2, 0x0001
     ea0:	0000005b          	.insn	4, 0x005b
     ea4:	0000                	.insn	2, 0x0000
     ea6:	0000                	.insn	2, 0x0000
     ea8:	ff00                	.insn	2, 0xff00
     eaa:	ffff                	.insn	2, 0xffff
     eac:	400b34ff 0008c800 	.insn	16, 0x5b0001000008d0000008c800400b34ff
     eb4:	0008d000 5b000100 
	...
     ec4:	ffff                	.insn	2, 0xffff
     ec6:	ffff                	.insn	2, 0xffff
     ec8:	0b34                	.insn	2, 0x0b34
     eca:	0040                	.insn	2, 0x0040
     ecc:	08d0                	.insn	2, 0x08d0
     ece:	0000                	.insn	2, 0x0000
     ed0:	08d8                	.insn	2, 0x08d8
     ed2:	0000                	.insn	2, 0x0000
     ed4:	0001                	.insn	2, 0x0001
     ed6:	005a                	.insn	2, 0x005a
     ed8:	0000                	.insn	2, 0x0000
     eda:	0000                	.insn	2, 0x0000
     edc:	0000                	.insn	2, 0x0000
     ede:	ff00                	.insn	2, 0xff00
     ee0:	ffff                	.insn	2, 0xffff
     ee2:	400b34ff 0008e400 	.insn	16, 0x5a0001000008e8000008e400400b34ff
     eea:	0008e800 5a000100 
	...

00000efa <$d.3>:
     efa:	0000                	.insn	2, 0x0000
     efc:	0000                	.insn	2, 0x0000
     efe:	0014                	.insn	2, 0x0014
     f00:	0000                	.insn	2, 0x0000
     f02:	0001                	.insn	2, 0x0001
     f04:	145a                	.insn	2, 0x145a
     f06:	0000                	.insn	2, 0x0000
     f08:	ac00                	.insn	2, 0xac00
     f0a:	0000                	.insn	2, 0x0000
     f0c:	0100                	.insn	2, 0x0100
     f0e:	5800                	.insn	2, 0x5800
	...
     f18:	005c                	.insn	2, 0x005c
     f1a:	0000                	.insn	2, 0x0000
     f1c:	0070                	.insn	2, 0x0070
     f1e:	0000                	.insn	2, 0x0000
     f20:	0001                	.insn	2, 0x0001
     f22:	005a                	.insn	2, 0x005a
     f24:	0000                	.insn	2, 0x0000
     f26:	0000                	.insn	2, 0x0000
     f28:	0000                	.insn	2, 0x0000
     f2a:	7800                	.insn	2, 0x7800
     f2c:	0000                	.insn	2, 0x0000
     f2e:	8400                	.insn	2, 0x8400
     f30:	0000                	.insn	2, 0x0000
     f32:	0100                	.insn	2, 0x0100
     f34:	5a00                	.insn	2, 0x5a00
	...
     f3e:	0094                	.insn	2, 0x0094
     f40:	0000                	.insn	2, 0x0000
     f42:	00b4                	.insn	2, 0x00b4
     f44:	0000                	.insn	2, 0x0000
     f46:	0002                	.insn	2, 0x0002
     f48:	9f30                	.insn	2, 0x9f30
     f4a:	00b4                	.insn	2, 0x00b4
     f4c:	0000                	.insn	2, 0x0000
     f4e:	00c0                	.insn	2, 0x00c0
     f50:	0000                	.insn	2, 0x0000
     f52:	0006                	.insn	2, 0x0006
     f54:	0078                	.insn	2, 0x0078
     f56:	1472                	.insn	2, 0x1472
     f58:	9f1c                	.insn	2, 0x9f1c
     f5a:	00c0                	.insn	2, 0x00c0
     f5c:	0000                	.insn	2, 0x0000
     f5e:	00c4                	.insn	2, 0x00c4
     f60:	0000                	.insn	2, 0x0000
     f62:	0009                	.insn	2, 0x0009
     f64:	0078                	.insn	2, 0x0078
     f66:	1472                	.insn	2, 0x1472
     f68:	111c                	.insn	2, 0x111c
     f6a:	2201                	.insn	2, 0x2201
     f6c:	009f 0000 0000      	.insn	6, 0x009f
     f72:	0000                	.insn	2, 0x0000
     f74:	0800                	.insn	2, 0x0800
     f76:	0001                	.insn	2, 0x0001
     f78:	0800                	.insn	2, 0x0800
     f7a:	0002                	.insn	2, 0x0002
     f7c:	0100                	.insn	2, 0x0100
     f7e:	5900                	.insn	2, 0x5900
	...
     f88:	017c                	.insn	2, 0x017c
     f8a:	0000                	.insn	2, 0x0000
     f8c:	01e8                	.insn	2, 0x01e8
     f8e:	0000                	.insn	2, 0x0000
     f90:	0001                	.insn	2, 0x0001
     f92:	0000005b          	.insn	4, 0x005b
     f96:	0000                	.insn	2, 0x0000
     f98:	0000                	.insn	2, 0x0000
     f9a:	a800                	.insn	2, 0xa800
     f9c:	0001                	.insn	2, 0x0001
     f9e:	f800                	.insn	2, 0xf800
     fa0:	0001                	.insn	2, 0x0001
     fa2:	0100                	.insn	2, 0x0100
     fa4:	5c00                	.insn	2, 0x5c00
	...
     fae:	01dc                	.insn	2, 0x01dc
     fb0:	0000                	.insn	2, 0x0000
     fb2:	01f0                	.insn	2, 0x01f0
     fb4:	0000                	.insn	2, 0x0000
     fb6:	0001                	.insn	2, 0x0001
     fb8:	005a                	.insn	2, 0x005a
     fba:	0000                	.insn	2, 0x0000
     fbc:	0000                	.insn	2, 0x0000
     fbe:	0000                	.insn	2, 0x0000
     fc0:	1400                	.insn	2, 0x1400
     fc2:	0002                	.insn	2, 0x0002
     fc4:	5400                	.insn	2, 0x5400
     fc6:	0002                	.insn	2, 0x0002
     fc8:	0100                	.insn	2, 0x0100
     fca:	5a00                	.insn	2, 0x5a00
     fcc:	0254                	.insn	2, 0x0254
     fce:	0000                	.insn	2, 0x0000
     fd0:	02b8                	.insn	2, 0x02b8
     fd2:	0000                	.insn	2, 0x0000
     fd4:	0001                	.insn	2, 0x0001
     fd6:	d864                	.insn	2, 0xd864
     fd8:	0002                	.insn	2, 0x0002
     fda:	b800                	.insn	2, 0xb800
     fdc:	0004                	.insn	2, 0x0004
     fde:	0100                	.insn	2, 0x0100
     fe0:	6400                	.insn	2, 0x6400
	...
     fea:	0214                	.insn	2, 0x0214
     fec:	0000                	.insn	2, 0x0000
     fee:	0250                	.insn	2, 0x0250
     ff0:	0000                	.insn	2, 0x0000
     ff2:	0001                	.insn	2, 0x0001
     ff4:	0002505b          	.insn	4, 0x0002505b
     ff8:	ac00                	.insn	2, 0xac00
     ffa:	0002                	.insn	2, 0x0002
     ffc:	0100                	.insn	2, 0x0100
     ffe:	5900                	.insn	2, 0x5900
    1000:	02d8                	.insn	2, 0x02d8
    1002:	0000                	.insn	2, 0x0000
    1004:	04b8                	.insn	2, 0x04b8
    1006:	0000                	.insn	2, 0x0000
    1008:	0001                	.insn	2, 0x0001
    100a:	0059                	.insn	2, 0x0059
    100c:	0000                	.insn	2, 0x0000
    100e:	0000                	.insn	2, 0x0000
    1010:	0000                	.insn	2, 0x0000
    1012:	1400                	.insn	2, 0x1400
    1014:	0002                	.insn	2, 0x0002
    1016:	4c00                	.insn	2, 0x4c00
    1018:	0002                	.insn	2, 0x0002
    101a:	0100                	.insn	2, 0x0100
    101c:	5c00                	.insn	2, 0x5c00
    101e:	024c                	.insn	2, 0x024c
    1020:	0000                	.insn	2, 0x0000
    1022:	02a8                	.insn	2, 0x02a8
    1024:	0000                	.insn	2, 0x0000
    1026:	0001                	.insn	2, 0x0001
    1028:	d858                	.insn	2, 0xd858
    102a:	0002                	.insn	2, 0x0002
    102c:	b800                	.insn	2, 0xb800
    102e:	0004                	.insn	2, 0x0004
    1030:	0100                	.insn	2, 0x0100
    1032:	5800                	.insn	2, 0x5800
	...
    103c:	0270                	.insn	2, 0x0270
    103e:	0000                	.insn	2, 0x0000
    1040:	027c                	.insn	2, 0x027c
    1042:	0000                	.insn	2, 0x0000
    1044:	0001                	.insn	2, 0x0001
    1046:	0000005b          	.insn	4, 0x005b
    104a:	0000                	.insn	2, 0x0000
    104c:	0000                	.insn	2, 0x0000
    104e:	8400                	.insn	2, 0x8400
    1050:	0002                	.insn	2, 0x0002
    1052:	9800                	.insn	2, 0x9800
    1054:	0002                	.insn	2, 0x0002
    1056:	0100                	.insn	2, 0x0100
    1058:	5a00                	.insn	2, 0x5a00
	...
    1062:	02f4                	.insn	2, 0x02f4
    1064:	0000                	.insn	2, 0x0000
    1066:	0300                	.insn	2, 0x0300
    1068:	0000                	.insn	2, 0x0000
    106a:	0a110003          	lb	zero,161(sp)
    106e:	2c9f 0004 3400      	.insn	6, 0x340000042c9f
    1074:	0004                	.insn	2, 0x0004
    1076:	0300                	.insn	2, 0x0300
    1078:	1100                	.insn	2, 0x1100
    107a:	9f08                	.insn	2, 0x9f08
    107c:	0434                	.insn	2, 0x0434
    107e:	0000                	.insn	2, 0x0000
    1080:	0448                	.insn	2, 0x0448
    1082:	0000                	.insn	2, 0x0000
    1084:	09110003          	lb	zero,145(sp)
    1088:	489f 0004 5000      	.insn	6, 0x50000004489f
    108e:	0004                	.insn	2, 0x0004
    1090:	0300                	.insn	2, 0x0300
    1092:	1100                	.insn	2, 0x1100
    1094:	9f0a                	.insn	2, 0x9f0a
	...
    109e:	02f4                	.insn	2, 0x02f4
    10a0:	0000                	.insn	2, 0x0000
    10a2:	02f8                	.insn	2, 0x02f8
    10a4:	0000                	.insn	2, 0x0000
    10a6:	0001                	.insn	2, 0x0001
    10a8:	0002f85b          	.insn	4, 0x0002f85b
    10ac:	0400                	.insn	2, 0x0400
    10ae:	01000003          	lb	zero,16(zero) # 10 <$d.2+0x10>
    10b2:	5a00                	.insn	2, 0x5a00
    10b4:	033c                	.insn	2, 0x033c
    10b6:	0000                	.insn	2, 0x0000
    10b8:	0344                	.insn	2, 0x0344
    10ba:	0000                	.insn	2, 0x0000
    10bc:	00110003          	lb	zero,1(sp)
    10c0:	449f 0003 5000      	.insn	6, 0x50000003449f
    10c6:	01000003          	lb	zero,16(zero) # 10 <$d.2+0x10>
    10ca:	5a00                	.insn	2, 0x5a00
    10cc:	0350                	.insn	2, 0x0350
    10ce:	0000                	.insn	2, 0x0000
    10d0:	0358                	.insn	2, 0x0358
    10d2:	0000                	.insn	2, 0x0000
    10d4:	01110003          	lb	zero,17(sp)
    10d8:	589f 0003 2000      	.insn	6, 0x20000003589f
    10de:	0004                	.insn	2, 0x0004
    10e0:	0100                	.insn	2, 0x0100
    10e2:	5a00                	.insn	2, 0x5a00
    10e4:	0420                	.insn	2, 0x0420
    10e6:	0000                	.insn	2, 0x0000
    10e8:	042c                	.insn	2, 0x042c
    10ea:	0000                	.insn	2, 0x0000
    10ec:	017a0003          	lb	zero,23(s4)
    10f0:	309f 0004 3c00      	.insn	6, 0x3c000004309f
    10f6:	0004                	.insn	2, 0x0004
    10f8:	0100                	.insn	2, 0x0100
    10fa:	5b00                	.insn	2, 0x5b00
    10fc:	0440                	.insn	2, 0x0440
    10fe:	0000                	.insn	2, 0x0000
    1100:	0448                	.insn	2, 0x0448
    1102:	0000                	.insn	2, 0x0000
    1104:	0001                	.insn	2, 0x0001
    1106:	485a                	.insn	2, 0x485a
    1108:	0004                	.insn	2, 0x0004
    110a:	5800                	.insn	2, 0x5800
    110c:	0004                	.insn	2, 0x0004
    110e:	0100                	.insn	2, 0x0100
    1110:	5b00                	.insn	2, 0x5b00
	...
    111a:	02f4                	.insn	2, 0x02f4
    111c:	0000                	.insn	2, 0x0000
    111e:	031c                	.insn	2, 0x031c
    1120:	0000                	.insn	2, 0x0000
    1122:	0009                	.insn	2, 0x0009
    1124:	0085                	.insn	2, 0x0085
    1126:	1011                	.insn	2, 0x1011
    1128:	111c                	.insn	2, 0x111c
    112a:	1c9f1b7f 20000003 	.insn	12, 0x0c000003200000031c9f1b7f
    1132:	0c000003 
    1136:	8500                	.insn	2, 0x8500
    1138:	1100                	.insn	2, 0x1100
    113a:	1c10                	.insn	2, 0x1c10
    113c:	7f11                	.insn	2, 0x7f11
    113e:	2201111b          	.insn	4, 0x2201111b
    1142:	289f 0003 b800      	.insn	6, 0xb8000003289f
    1148:	0004                	.insn	2, 0x0004
    114a:	0900                	.insn	2, 0x0900
    114c:	8500                	.insn	2, 0x8500
    114e:	1100                	.insn	2, 0x1100
    1150:	1c10                	.insn	2, 0x1c10
    1152:	7f11                	.insn	2, 0x7f11
    1154:	00009f1b          	.insn	4, 0x9f1b
    1158:	0000                	.insn	2, 0x0000
    115a:	0000                	.insn	2, 0x0000
    115c:	0000                	.insn	2, 0x0000
    115e:	033c                	.insn	2, 0x033c
    1160:	0000                	.insn	2, 0x0000
    1162:	0344                	.insn	2, 0x0344
    1164:	0000                	.insn	2, 0x0000
    1166:	00110003          	lb	zero,1(sp)
    116a:	449f 0003 5000      	.insn	6, 0x50000003449f
    1170:	03000003          	lb	zero,48(zero) # 30 <$d.2+0x30>
    1174:	1100                	.insn	2, 0x1100
    1176:	9f01                	.insn	2, 0x9f01
    1178:	0350                	.insn	2, 0x0350
    117a:	0000                	.insn	2, 0x0000
    117c:	0358                	.insn	2, 0x0358
    117e:	0000                	.insn	2, 0x0000
    1180:	00110003          	lb	zero,1(sp)
    1184:	589f 0003 6c00      	.insn	6, 0x6c000003589f
    118a:	03000003          	lb	zero,48(zero) # 30 <$d.2+0x30>
    118e:	1100                	.insn	2, 0x1100
    1190:	9f01                	.insn	2, 0x9f01
    1192:	036c                	.insn	2, 0x036c
    1194:	0000                	.insn	2, 0x0000
    1196:	0374                	.insn	2, 0x0374
    1198:	0000                	.insn	2, 0x0000
    119a:	02110003          	lb	zero,33(sp)
    119e:	749f 0003 7c00      	.insn	6, 0x7c000003749f
    11a4:	03000003          	lb	zero,48(zero) # 30 <$d.2+0x30>
    11a8:	1100                	.insn	2, 0x1100
    11aa:	037c9f03          	lh	t5,55(s9)
    11ae:	0000                	.insn	2, 0x0000
    11b0:	0384                	.insn	2, 0x0384
    11b2:	0000                	.insn	2, 0x0000
    11b4:	04110003          	lb	zero,65(sp)
    11b8:	849f 0003 8c00      	.insn	6, 0x8c000003849f
    11be:	03000003          	lb	zero,48(zero) # 30 <$d.2+0x30>
    11c2:	1100                	.insn	2, 0x1100
    11c4:	9f05                	.insn	2, 0x9f05
    11c6:	038c                	.insn	2, 0x038c
    11c8:	0000                	.insn	2, 0x0000
    11ca:	0394                	.insn	2, 0x0394
    11cc:	0000                	.insn	2, 0x0000
    11ce:	06110003          	lb	zero,97(sp)
    11d2:	949f 0003 9c00      	.insn	6, 0x9c000003949f
    11d8:	03000003          	lb	zero,48(zero) # 30 <$d.2+0x30>
    11dc:	1100                	.insn	2, 0x1100
    11de:	03a89f07          	.insn	4, 0x03a89f07
    11e2:	0000                	.insn	2, 0x0000
    11e4:	03b4                	.insn	2, 0x03b4
    11e6:	0000                	.insn	2, 0x0000
    11e8:	02110003          	lb	zero,33(sp)
    11ec:	b49f 0003 c800      	.insn	6, 0xc8000003b49f
    11f2:	03000003          	lb	zero,48(zero) # 30 <$d.2+0x30>
    11f6:	1100                	.insn	2, 0x1100
    11f8:	03c89f03          	lh	t5,60(a7)
    11fc:	0000                	.insn	2, 0x0000
    11fe:	03dc                	.insn	2, 0x03dc
    1200:	0000                	.insn	2, 0x0000
    1202:	04110003          	lb	zero,65(sp)
    1206:	dc9f 0003 f000      	.insn	6, 0xf0000003dc9f
    120c:	03000003          	lb	zero,48(zero) # 30 <$d.2+0x30>
    1210:	1100                	.insn	2, 0x1100
    1212:	9f05                	.insn	2, 0x9f05
    1214:	03f0                	.insn	2, 0x03f0
    1216:	0000                	.insn	2, 0x0000
    1218:	0404                	.insn	2, 0x0404
    121a:	0000                	.insn	2, 0x0000
    121c:	06110003          	lb	zero,97(sp)
    1220:	049f 0004 1800      	.insn	6, 0x18000004049f
    1226:	0004                	.insn	2, 0x0004
    1228:	0300                	.insn	2, 0x0300
    122a:	1100                	.insn	2, 0x1100
    122c:	04189f07          	.insn	4, 0x04189f07
    1230:	0000                	.insn	2, 0x0000
    1232:	0420                	.insn	2, 0x0420
    1234:	0000                	.insn	2, 0x0000
    1236:	08110003          	lb	zero,129(sp)
    123a:	009f 0000 0000      	.insn	6, 0x009f
    1240:	0000                	.insn	2, 0x0000
    1242:	b800                	.insn	2, 0xb800
    1244:	0004                	.insn	2, 0x0004
    1246:	cc00                	.insn	2, 0xcc00
    1248:	0004                	.insn	2, 0x0004
    124a:	0100                	.insn	2, 0x0100
    124c:	5a00                	.insn	2, 0x5a00
	...
    1256:	051c                	.insn	2, 0x051c
    1258:	0000                	.insn	2, 0x0000
    125a:	0528                	.insn	2, 0x0528
    125c:	0000                	.insn	2, 0x0000
    125e:	0001                	.insn	2, 0x0001
    1260:	005a                	.insn	2, 0x005a
    1262:	0000                	.insn	2, 0x0000
    1264:	0000                	.insn	2, 0x0000
    1266:	0000                	.insn	2, 0x0000
    1268:	3000                	.insn	2, 0x3000
    126a:	0005                	.insn	2, 0x0005
    126c:	4400                	.insn	2, 0x4400
    126e:	0005                	.insn	2, 0x0005
    1270:	0100                	.insn	2, 0x0100
    1272:	5a00                	.insn	2, 0x5a00
	...
    127c:	05a0                	.insn	2, 0x05a0
    127e:	0000                	.insn	2, 0x0000
    1280:	05e8                	.insn	2, 0x05e8
    1282:	0000                	.insn	2, 0x0000
    1284:	0001                	.insn	2, 0x0001
    1286:	0007345b          	.insn	4, 0x0007345b
    128a:	4000                	.insn	2, 0x4000
    128c:	01000007          	.insn	4, 0x01000007
    1290:	5b00                	.insn	2, 0x5b00
	...
    129a:	05a0                	.insn	2, 0x05a0
    129c:	0000                	.insn	2, 0x0000
    129e:	05b4                	.insn	2, 0x05b4
    12a0:	0000                	.insn	2, 0x0000
    12a2:	0002                	.insn	2, 0x0002
    12a4:	9f30                	.insn	2, 0x9f30
    12a6:	05b4                	.insn	2, 0x05b4
    12a8:	0000                	.insn	2, 0x0000
    12aa:	05e8                	.insn	2, 0x05e8
    12ac:	0000                	.insn	2, 0x0000
    12ae:	0001                	.insn	2, 0x0001
    12b0:	345c                	.insn	2, 0x345c
    12b2:	40000007          	.insn	4, 0x40000007
    12b6:	02000007          	.insn	4, 0x02000007
    12ba:	3000                	.insn	2, 0x3000
    12bc:	009f 0000 0000      	.insn	6, 0x009f
    12c2:	0000                	.insn	2, 0x0000
    12c4:	a000                	.insn	2, 0xa000
    12c6:	0005                	.insn	2, 0x0005
    12c8:	e800                	.insn	2, 0xe800
    12ca:	0005                	.insn	2, 0x0005
    12cc:	0900                	.insn	2, 0x0900
    12ce:	8400                	.insn	2, 0x8400
    12d0:	1100                	.insn	2, 0x1100
    12d2:	1c10                	.insn	2, 0x1c10
    12d4:	7f11                	.insn	2, 0x7f11
    12d6:	05e89f1b          	.insn	4, 0x05e89f1b
    12da:	0000                	.insn	2, 0x0000
    12dc:	05ec                	.insn	2, 0x05ec
    12de:	0000                	.insn	2, 0x0000
    12e0:	000c                	.insn	2, 0x000c
    12e2:	0084                	.insn	2, 0x0084
    12e4:	1011                	.insn	2, 0x1011
    12e6:	111c                	.insn	2, 0x111c
    12e8:	01111b7f 05f49f22 	.insn	12, 0x0764000005f49f2201111b7f
    12f0:	07640000 
    12f4:	0000                	.insn	2, 0x0000
    12f6:	0009                	.insn	2, 0x0009
    12f8:	0084                	.insn	2, 0x0084
    12fa:	1011                	.insn	2, 0x1011
    12fc:	111c                	.insn	2, 0x111c
    12fe:	009f1b7f 00000000 	.insn	12, 0xdc00000000000000009f1b7f
    1306:	dc000000 
    130a:	0005                	.insn	2, 0x0005
    130c:	e800                	.insn	2, 0xe800
    130e:	0005                	.insn	2, 0x0005
    1310:	0100                	.insn	2, 0x0100
    1312:	5d00                	.insn	2, 0x5d00
	...
    131c:	0608                	.insn	2, 0x0608
    131e:	0000                	.insn	2, 0x0000
    1320:	060c                	.insn	2, 0x060c
    1322:	0000                	.insn	2, 0x0000
    1324:	00110003          	lb	zero,1(sp)
    1328:	0c9f 0006 1400      	.insn	6, 0x140000060c9f
    132e:	0006                	.insn	2, 0x0006
    1330:	0300                	.insn	2, 0x0300
    1332:	1100                	.insn	2, 0x1100
    1334:	9f01                	.insn	2, 0x9f01
    1336:	0614                	.insn	2, 0x0614
    1338:	0000                	.insn	2, 0x0000
    133a:	061c                	.insn	2, 0x061c
    133c:	0000                	.insn	2, 0x0000
    133e:	02110003          	lb	zero,33(sp)
    1342:	1c9f 0006 2400      	.insn	6, 0x240000061c9f
    1348:	0006                	.insn	2, 0x0006
    134a:	0300                	.insn	2, 0x0300
    134c:	1100                	.insn	2, 0x1100
    134e:	06249f03          	lh	t5,98(s1)
    1352:	0000                	.insn	2, 0x0000
    1354:	062c                	.insn	2, 0x062c
    1356:	0000                	.insn	2, 0x0000
    1358:	04110003          	lb	zero,65(sp)
    135c:	2c9f 0006 3400      	.insn	6, 0x340000062c9f
    1362:	0006                	.insn	2, 0x0006
    1364:	0300                	.insn	2, 0x0300
    1366:	1100                	.insn	2, 0x1100
    1368:	9f05                	.insn	2, 0x9f05
    136a:	0634                	.insn	2, 0x0634
    136c:	0000                	.insn	2, 0x0000
    136e:	063c                	.insn	2, 0x063c
    1370:	0000                	.insn	2, 0x0000
    1372:	06110003          	lb	zero,97(sp)
    1376:	3c9f 0006 4400      	.insn	6, 0x440000063c9f
    137c:	0006                	.insn	2, 0x0006
    137e:	0300                	.insn	2, 0x0300
    1380:	1100                	.insn	2, 0x1100
    1382:	06509f07          	.insn	4, 0x06509f07
    1386:	0000                	.insn	2, 0x0000
    1388:	0658                	.insn	2, 0x0658
    138a:	0000                	.insn	2, 0x0000
    138c:	00110003          	lb	zero,1(sp)
    1390:	589f 0006 6800      	.insn	6, 0x68000006589f
    1396:	0006                	.insn	2, 0x0006
    1398:	0300                	.insn	2, 0x0300
    139a:	1100                	.insn	2, 0x1100
    139c:	9f01                	.insn	2, 0x9f01
    139e:	0668                	.insn	2, 0x0668
    13a0:	0000                	.insn	2, 0x0000
    13a2:	0678                	.insn	2, 0x0678
    13a4:	0000                	.insn	2, 0x0000
    13a6:	02110003          	lb	zero,33(sp)
    13aa:	789f 0006 8800      	.insn	6, 0x88000006789f
    13b0:	0006                	.insn	2, 0x0006
    13b2:	0300                	.insn	2, 0x0300
    13b4:	1100                	.insn	2, 0x1100
    13b6:	06889f03          	lh	t5,104(a7)
    13ba:	0000                	.insn	2, 0x0000
    13bc:	0698                	.insn	2, 0x0698
    13be:	0000                	.insn	2, 0x0000
    13c0:	04110003          	lb	zero,65(sp)
    13c4:	989f 0006 a800      	.insn	6, 0xa8000006989f
    13ca:	0006                	.insn	2, 0x0006
    13cc:	0300                	.insn	2, 0x0300
    13ce:	1100                	.insn	2, 0x1100
    13d0:	9f05                	.insn	2, 0x9f05
    13d2:	06a8                	.insn	2, 0x06a8
    13d4:	0000                	.insn	2, 0x0000
    13d6:	06b8                	.insn	2, 0x06b8
    13d8:	0000                	.insn	2, 0x0000
    13da:	06110003          	lb	zero,97(sp)
    13de:	b89f 0006 c800      	.insn	6, 0xc8000006b89f
    13e4:	0006                	.insn	2, 0x0006
    13e6:	0300                	.insn	2, 0x0300
    13e8:	1100                	.insn	2, 0x1100
    13ea:	06c89f07          	.insn	4, 0x06c89f07
    13ee:	0000                	.insn	2, 0x0000
    13f0:	06d0                	.insn	2, 0x06d0
    13f2:	0000                	.insn	2, 0x0000
    13f4:	08110003          	lb	zero,129(sp)
    13f8:	009f 0000 0000      	.insn	6, 0x009f
    13fe:	0000                	.insn	2, 0x0000
    1400:	dc00                	.insn	2, 0xdc00
    1402:	0006                	.insn	2, 0x0006
    1404:	e400                	.insn	2, 0xe400
    1406:	0006                	.insn	2, 0x0006
    1408:	0300                	.insn	2, 0x0300
    140a:	1100                	.insn	2, 0x1100
    140c:	9f08                	.insn	2, 0x9f08
    140e:	06e4                	.insn	2, 0x06e4
    1410:	0000                	.insn	2, 0x0000
    1412:	06ec                	.insn	2, 0x06ec
    1414:	0000                	.insn	2, 0x0000
    1416:	09110003          	lb	zero,145(sp)
    141a:	ec9f 0006 fc00      	.insn	6, 0xfc000006ec9f
    1420:	0006                	.insn	2, 0x0006
    1422:	0300                	.insn	2, 0x0300
    1424:	1100                	.insn	2, 0x1100
    1426:	9f0a                	.insn	2, 0x9f0a
    1428:	0740                	.insn	2, 0x0740
    142a:	0000                	.insn	2, 0x0000
    142c:	0748                	.insn	2, 0x0748
    142e:	0000                	.insn	2, 0x0000
    1430:	08110003          	lb	zero,129(sp)
    1434:	489f 0007 5800      	.insn	6, 0x58000007489f
    143a:	03000007          	.insn	4, 0x03000007
    143e:	1100                	.insn	2, 0x1100
    1440:	9f09                	.insn	2, 0x9f09
    1442:	0758                	.insn	2, 0x0758
    1444:	0000                	.insn	2, 0x0000
    1446:	0764                	.insn	2, 0x0764
    1448:	0000                	.insn	2, 0x0000
    144a:	0a110003          	lb	zero,161(sp)
    144e:	009f 0000 0000      	.insn	6, 0x009f
    1454:	0000                	.insn	2, 0x0000
    1456:	6400                	.insn	2, 0x6400
    1458:	80000007          	.insn	4, 0x80000007
    145c:	01000007          	.insn	4, 0x01000007
    1460:	5a00                	.insn	2, 0x5a00
    1462:	0780                	.insn	2, 0x0780
    1464:	0000                	.insn	2, 0x0000
    1466:	0b84                	.insn	2, 0x0b84
    1468:	0000                	.insn	2, 0x0000
    146a:	0001                	.insn	2, 0x0001
    146c:	0058                	.insn	2, 0x0058
    146e:	0000                	.insn	2, 0x0000
    1470:	0000                	.insn	2, 0x0000
    1472:	0000                	.insn	2, 0x0000
    1474:	9c00                	.insn	2, 0x9c00
    1476:	a8000007          	.insn	4, 0xa8000007
    147a:	01000007          	.insn	4, 0x01000007
    147e:	5b00                	.insn	2, 0x5b00
	...
    1488:	07b0                	.insn	2, 0x07b0
    148a:	0000                	.insn	2, 0x0000
    148c:	0b78                	.insn	2, 0x0b78
    148e:	0000                	.insn	2, 0x0000
    1490:	0001                	.insn	2, 0x0001
    1492:	0059                	.insn	2, 0x0059
    1494:	0000                	.insn	2, 0x0000
    1496:	0000                	.insn	2, 0x0000
    1498:	0000                	.insn	2, 0x0000
    149a:	cc00                	.insn	2, 0xcc00
    149c:	d0000007          	.insn	4, 0xd0000007
    14a0:	03000007          	.insn	4, 0x03000007
    14a4:	1100                	.insn	2, 0x1100
    14a6:	9f00                	.insn	2, 0x9f00
    14a8:	07d0                	.insn	2, 0x07d0
    14aa:	0000                	.insn	2, 0x0000
    14ac:	07d4                	.insn	2, 0x07d4
    14ae:	0000                	.insn	2, 0x0000
    14b0:	01110003          	lb	zero,17(sp)
    14b4:	d49f 0007 d800      	.insn	6, 0xd8000007d49f
    14ba:	03000007          	.insn	4, 0x03000007
    14be:	1100                	.insn	2, 0x1100
    14c0:	9f02                	.insn	2, 0x9f02
    14c2:	07d8                	.insn	2, 0x07d8
    14c4:	0000                	.insn	2, 0x0000
    14c6:	07dc                	.insn	2, 0x07dc
    14c8:	0000                	.insn	2, 0x0000
    14ca:	03110003          	lb	zero,49(sp)
    14ce:	dc9f 0007 e000      	.insn	6, 0xe0000007dc9f
    14d4:	03000007          	.insn	4, 0x03000007
    14d8:	1100                	.insn	2, 0x1100
    14da:	9f04                	.insn	2, 0x9f04
    14dc:	07e0                	.insn	2, 0x07e0
    14de:	0000                	.insn	2, 0x0000
    14e0:	07e4                	.insn	2, 0x07e4
    14e2:	0000                	.insn	2, 0x0000
    14e4:	05110003          	lb	zero,81(sp)
    14e8:	e49f 0007 e800      	.insn	6, 0xe8000007e49f
    14ee:	03000007          	.insn	4, 0x03000007
    14f2:	1100                	.insn	2, 0x1100
    14f4:	9f06                	.insn	2, 0x9f06
    14f6:	07e8                	.insn	2, 0x07e8
    14f8:	0000                	.insn	2, 0x0000
    14fa:	07f0                	.insn	2, 0x07f0
    14fc:	0000                	.insn	2, 0x0000
    14fe:	07110003          	lb	zero,113(sp)
    1502:	f09f 0007 f400      	.insn	6, 0xf4000007f09f
    1508:	03000007          	.insn	4, 0x03000007
    150c:	1100                	.insn	2, 0x1100
    150e:	9f08                	.insn	2, 0x9f08
    1510:	07f4                	.insn	2, 0x07f4
    1512:	0000                	.insn	2, 0x0000
    1514:	07f8                	.insn	2, 0x07f8
    1516:	0000                	.insn	2, 0x0000
    1518:	09110003          	lb	zero,145(sp)
    151c:	f89f 0007 fc00      	.insn	6, 0xfc000007f89f
    1522:	03000007          	.insn	4, 0x03000007
    1526:	1100                	.insn	2, 0x1100
    1528:	9f0a                	.insn	2, 0x9f0a
    152a:	07fc                	.insn	2, 0x07fc
    152c:	0000                	.insn	2, 0x0000
    152e:	08b0                	.insn	2, 0x08b0
    1530:	0000                	.insn	2, 0x0000
    1532:	0b110003          	lb	zero,177(sp)
    1536:	009f 0000 0000      	.insn	6, 0x009f
    153c:	0000                	.insn	2, 0x0000
    153e:	cc00                	.insn	2, 0xcc00
    1540:	54000007          	.insn	4, 0x54000007
    1544:	0008                	.insn	2, 0x0008
    1546:	0100                	.insn	2, 0x0100
    1548:	5800                	.insn	2, 0x5800
	...
    1552:	07fc                	.insn	2, 0x07fc
    1554:	0000                	.insn	2, 0x0000
    1556:	0810                	.insn	2, 0x0810
    1558:	0000                	.insn	2, 0x0000
    155a:	00110003          	lb	zero,1(sp)
    155e:	109f 0008 2000      	.insn	6, 0x20000008109f
    1564:	0008                	.insn	2, 0x0008
    1566:	0100                	.insn	2, 0x0100
    1568:	5b00                	.insn	2, 0x5b00
    156a:	0840                	.insn	2, 0x0840
    156c:	0000                	.insn	2, 0x0000
    156e:	0848                	.insn	2, 0x0848
    1570:	0000                	.insn	2, 0x0000
    1572:	00110003          	lb	zero,1(sp)
    1576:	489f 0008 4c00      	.insn	6, 0x4c000008489f
    157c:	0008                	.insn	2, 0x0008
    157e:	0100                	.insn	2, 0x0100
    1580:	5b00                	.insn	2, 0x5b00
    1582:	0878                	.insn	2, 0x0878
    1584:	0000                	.insn	2, 0x0000
    1586:	0890                	.insn	2, 0x0890
    1588:	0000                	.insn	2, 0x0000
    158a:	08110003          	lb	zero,129(sp)
    158e:	909f 0008 9400      	.insn	6, 0x94000008909f
    1594:	0008                	.insn	2, 0x0008
    1596:	0300                	.insn	2, 0x0300
    1598:	7c00                	.insn	2, 0x7c00
    159a:	9f08                	.insn	2, 0x9f08
    159c:	0894                	.insn	2, 0x0894
    159e:	0000                	.insn	2, 0x0000
    15a0:	08ac                	.insn	2, 0x08ac
    15a2:	0000                	.insn	2, 0x0000
    15a4:	097c0003          	lb	zero,151(s8)
    15a8:	009f 0000 0000      	.insn	6, 0x009f
    15ae:	0000                	.insn	2, 0x0000
    15b0:	b000                	.insn	2, 0xb000
    15b2:	0008                	.insn	2, 0x0008
    15b4:	d000                	.insn	2, 0xd000
    15b6:	0008                	.insn	2, 0x0008
    15b8:	0300                	.insn	2, 0x0300
    15ba:	1100                	.insn	2, 0x1100
    15bc:	9f00                	.insn	2, 0x9f00
    15be:	08d0                	.insn	2, 0x08d0
    15c0:	0000                	.insn	2, 0x0000
    15c2:	08ec                	.insn	2, 0x08ec
    15c4:	0000                	.insn	2, 0x0000
    15c6:	01110003          	lb	zero,17(sp)
    15ca:	ec9f 0008 0800      	.insn	6, 0x08000008ec9f
    15d0:	0009                	.insn	2, 0x0009
    15d2:	0300                	.insn	2, 0x0300
    15d4:	1100                	.insn	2, 0x1100
    15d6:	9f02                	.insn	2, 0x9f02
    15d8:	0908                	.insn	2, 0x0908
    15da:	0000                	.insn	2, 0x0000
    15dc:	0924                	.insn	2, 0x0924
    15de:	0000                	.insn	2, 0x0000
    15e0:	03110003          	lb	zero,49(sp)
    15e4:	249f 0009 4000      	.insn	6, 0x40000009249f
    15ea:	0009                	.insn	2, 0x0009
    15ec:	0300                	.insn	2, 0x0300
    15ee:	1100                	.insn	2, 0x1100
    15f0:	9f04                	.insn	2, 0x9f04
    15f2:	0940                	.insn	2, 0x0940
    15f4:	0000                	.insn	2, 0x0000
    15f6:	095c                	.insn	2, 0x095c
    15f8:	0000                	.insn	2, 0x0000
    15fa:	05110003          	lb	zero,81(sp)
    15fe:	5c9f 0009 7800      	.insn	6, 0x780000095c9f
    1604:	0009                	.insn	2, 0x0009
    1606:	0300                	.insn	2, 0x0300
    1608:	1100                	.insn	2, 0x1100
    160a:	9f06                	.insn	2, 0x9f06
    160c:	0978                	.insn	2, 0x0978
    160e:	0000                	.insn	2, 0x0000
    1610:	0994                	.insn	2, 0x0994
    1612:	0000                	.insn	2, 0x0000
    1614:	07110003          	lb	zero,113(sp)
    1618:	949f 0009 b000      	.insn	6, 0xb0000009949f
    161e:	0009                	.insn	2, 0x0009
    1620:	0300                	.insn	2, 0x0300
    1622:	1100                	.insn	2, 0x1100
    1624:	9f08                	.insn	2, 0x9f08
    1626:	09b0                	.insn	2, 0x09b0
    1628:	0000                	.insn	2, 0x0000
    162a:	09cc                	.insn	2, 0x09cc
    162c:	0000                	.insn	2, 0x0000
    162e:	09110003          	lb	zero,145(sp)
    1632:	cc9f 0009 e800      	.insn	6, 0xe8000009cc9f
    1638:	0009                	.insn	2, 0x0009
    163a:	0300                	.insn	2, 0x0300
    163c:	1100                	.insn	2, 0x1100
    163e:	9f0a                	.insn	2, 0x9f0a
    1640:	09e8                	.insn	2, 0x09e8
    1642:	0000                	.insn	2, 0x0000
    1644:	0a04                	.insn	2, 0x0a04
    1646:	0000                	.insn	2, 0x0000
    1648:	0b110003          	lb	zero,177(sp)
    164c:	049f 000a 2000      	.insn	6, 0x2000000a049f
    1652:	000a                	.insn	2, 0x000a
    1654:	0300                	.insn	2, 0x0300
    1656:	1100                	.insn	2, 0x1100
    1658:	9f0c                	.insn	2, 0x9f0c
    165a:	0a20                	.insn	2, 0x0a20
    165c:	0000                	.insn	2, 0x0000
    165e:	0a3c                	.insn	2, 0x0a3c
    1660:	0000                	.insn	2, 0x0000
    1662:	0d110003          	lb	zero,209(sp)
    1666:	3c9f 000a 5800      	.insn	6, 0x5800000a3c9f
    166c:	000a                	.insn	2, 0x000a
    166e:	0300                	.insn	2, 0x0300
    1670:	1100                	.insn	2, 0x1100
    1672:	9f0e                	.insn	2, 0x9f0e
    1674:	0a58                	.insn	2, 0x0a58
    1676:	0000                	.insn	2, 0x0000
    1678:	0a78                	.insn	2, 0x0a78
    167a:	0000                	.insn	2, 0x0000
    167c:	0f110003          	lb	zero,241(sp)
    1680:	009f 0000 0000      	.insn	6, 0x009f
    1686:	0000                	.insn	2, 0x0000
    1688:	bc00                	.insn	2, 0xbc00
    168a:	0008                	.insn	2, 0x0008
    168c:	e000                	.insn	2, 0xe000
    168e:	0008                	.insn	2, 0x0008
    1690:	0100                	.insn	2, 0x0100
    1692:	6200                	.insn	2, 0x6200
    1694:	08e0                	.insn	2, 0x08e0
    1696:	0000                	.insn	2, 0x0000
    1698:	08f0                	.insn	2, 0x08f0
    169a:	0000                	.insn	2, 0x0000
    169c:	0001                	.insn	2, 0x0001
    169e:	fc5a                	.insn	2, 0xfc5a
    16a0:	0008                	.insn	2, 0x0008
    16a2:	0c00                	.insn	2, 0x0c00
    16a4:	0009                	.insn	2, 0x0009
    16a6:	0100                	.insn	2, 0x0100
    16a8:	5a00                	.insn	2, 0x5a00
    16aa:	0918                	.insn	2, 0x0918
    16ac:	0000                	.insn	2, 0x0000
    16ae:	0928                	.insn	2, 0x0928
    16b0:	0000                	.insn	2, 0x0000
    16b2:	0001                	.insn	2, 0x0001
    16b4:	345a                	.insn	2, 0x345a
    16b6:	0009                	.insn	2, 0x0009
    16b8:	4400                	.insn	2, 0x4400
    16ba:	0009                	.insn	2, 0x0009
    16bc:	0100                	.insn	2, 0x0100
    16be:	5a00                	.insn	2, 0x5a00
    16c0:	0950                	.insn	2, 0x0950
    16c2:	0000                	.insn	2, 0x0000
    16c4:	0960                	.insn	2, 0x0960
    16c6:	0000                	.insn	2, 0x0000
    16c8:	0001                	.insn	2, 0x0001
    16ca:	6c5a                	.insn	2, 0x6c5a
    16cc:	0009                	.insn	2, 0x0009
    16ce:	7c00                	.insn	2, 0x7c00
    16d0:	0009                	.insn	2, 0x0009
    16d2:	0100                	.insn	2, 0x0100
    16d4:	5a00                	.insn	2, 0x5a00
    16d6:	0988                	.insn	2, 0x0988
    16d8:	0000                	.insn	2, 0x0000
    16da:	0998                	.insn	2, 0x0998
    16dc:	0000                	.insn	2, 0x0000
    16de:	0001                	.insn	2, 0x0001
    16e0:	a45a                	.insn	2, 0xa45a
    16e2:	0009                	.insn	2, 0x0009
    16e4:	b400                	.insn	2, 0xb400
    16e6:	0009                	.insn	2, 0x0009
    16e8:	0100                	.insn	2, 0x0100
    16ea:	5a00                	.insn	2, 0x5a00
    16ec:	09c0                	.insn	2, 0x09c0
    16ee:	0000                	.insn	2, 0x0000
    16f0:	09d0                	.insn	2, 0x09d0
    16f2:	0000                	.insn	2, 0x0000
    16f4:	0001                	.insn	2, 0x0001
    16f6:	dc5a                	.insn	2, 0xdc5a
    16f8:	0009                	.insn	2, 0x0009
    16fa:	ec00                	.insn	2, 0xec00
    16fc:	0009                	.insn	2, 0x0009
    16fe:	0100                	.insn	2, 0x0100
    1700:	5a00                	.insn	2, 0x5a00
    1702:	09f8                	.insn	2, 0x09f8
    1704:	0000                	.insn	2, 0x0000
    1706:	0a08                	.insn	2, 0x0a08
    1708:	0000                	.insn	2, 0x0000
    170a:	0001                	.insn	2, 0x0001
    170c:	145a                	.insn	2, 0x145a
    170e:	000a                	.insn	2, 0x000a
    1710:	2400                	.insn	2, 0x2400
    1712:	000a                	.insn	2, 0x000a
    1714:	0100                	.insn	2, 0x0100
    1716:	5a00                	.insn	2, 0x5a00
    1718:	0a30                	.insn	2, 0x0a30
    171a:	0000                	.insn	2, 0x0000
    171c:	0a40                	.insn	2, 0x0a40
    171e:	0000                	.insn	2, 0x0000
    1720:	0001                	.insn	2, 0x0001
    1722:	4c5a                	.insn	2, 0x4c5a
    1724:	000a                	.insn	2, 0x000a
    1726:	5c00                	.insn	2, 0x5c00
    1728:	000a                	.insn	2, 0x000a
    172a:	0100                	.insn	2, 0x0100
    172c:	5a00                	.insn	2, 0x5a00
    172e:	0a68                	.insn	2, 0x0a68
    1730:	0000                	.insn	2, 0x0000
    1732:	0a78                	.insn	2, 0x0a78
    1734:	0000                	.insn	2, 0x0000
    1736:	0001                	.insn	2, 0x0001
    1738:	005a                	.insn	2, 0x005a
    173a:	0000                	.insn	2, 0x0000
    173c:	0000                	.insn	2, 0x0000
    173e:	0000                	.insn	2, 0x0000
    1740:	7800                	.insn	2, 0x7800
    1742:	000a                	.insn	2, 0x000a
    1744:	b800                	.insn	2, 0xb800
    1746:	000a                	.insn	2, 0x000a
    1748:	0300                	.insn	2, 0x0300
    174a:	1100                	.insn	2, 0x1100
    174c:	9f0c                	.insn	2, 0x9f0c
    174e:	0ab8                	.insn	2, 0x0ab8
    1750:	0000                	.insn	2, 0x0000
    1752:	0abc                	.insn	2, 0x0abc
    1754:	0000                	.insn	2, 0x0000
    1756:	0d110003          	lb	zero,209(sp)
    175a:	bc9f 000a c000      	.insn	6, 0xc000000abc9f
    1760:	000a                	.insn	2, 0x000a
    1762:	0300                	.insn	2, 0x0300
    1764:	1100                	.insn	2, 0x1100
    1766:	9f0e                	.insn	2, 0x9f0e
    1768:	0ac0                	.insn	2, 0x0ac0
    176a:	0000                	.insn	2, 0x0000
    176c:	0acc                	.insn	2, 0x0acc
    176e:	0000                	.insn	2, 0x0000
    1770:	0f110003          	lb	zero,241(sp)
    1774:	cc9f 000a d000      	.insn	6, 0xd000000acc9f
    177a:	000a                	.insn	2, 0x000a
    177c:	0300                	.insn	2, 0x0300
    177e:	1100                	.insn	2, 0x1100
    1780:	9f10                	.insn	2, 0x9f10
    1782:	0ad0                	.insn	2, 0x0ad0
    1784:	0000                	.insn	2, 0x0000
    1786:	0ad4                	.insn	2, 0x0ad4
    1788:	0000                	.insn	2, 0x0000
    178a:	11110003          	lb	zero,273(sp)
    178e:	d49f 000a e000      	.insn	6, 0xe000000ad49f
    1794:	000a                	.insn	2, 0x000a
    1796:	0300                	.insn	2, 0x0300
    1798:	1100                	.insn	2, 0x1100
    179a:	9f12                	.insn	2, 0x9f12
    179c:	0ae0                	.insn	2, 0x0ae0
    179e:	0000                	.insn	2, 0x0000
    17a0:	0ae4                	.insn	2, 0x0ae4
    17a2:	0000                	.insn	2, 0x0000
    17a4:	13110003          	lb	zero,305(sp)
    17a8:	e49f 000a e800      	.insn	6, 0xe800000ae49f
    17ae:	000a                	.insn	2, 0x000a
    17b0:	0300                	.insn	2, 0x0300
    17b2:	1100                	.insn	2, 0x1100
    17b4:	9f16                	.insn	2, 0x9f16
    17b6:	0ae8                	.insn	2, 0x0ae8
    17b8:	0000                	.insn	2, 0x0000
    17ba:	0af4                	.insn	2, 0x0af4
    17bc:	0000                	.insn	2, 0x0000
    17be:	17110003          	lb	zero,369(sp)
    17c2:	f49f 000a f800      	.insn	6, 0xf800000af49f
    17c8:	000a                	.insn	2, 0x000a
    17ca:	0300                	.insn	2, 0x0300
    17cc:	1100                	.insn	2, 0x1100
    17ce:	9f18                	.insn	2, 0x9f18
    17d0:	0af8                	.insn	2, 0x0af8
    17d2:	0000                	.insn	2, 0x0000
    17d4:	0afc                	.insn	2, 0x0afc
    17d6:	0000                	.insn	2, 0x0000
    17d8:	19110003          	lb	zero,401(sp)
    17dc:	fc9f 000a 6000      	.insn	6, 0x6000000afc9f
    17e2:	0300000b          	.insn	4, 0x0300000b
    17e6:	1100                	.insn	2, 0x1100
    17e8:	9f20                	.insn	2, 0x9f20
	...
    17f2:	0a88                	.insn	2, 0x0a88
    17f4:	0000                	.insn	2, 0x0000
    17f6:	0a8c                	.insn	2, 0x0a8c
    17f8:	0000                	.insn	2, 0x0000
    17fa:	01110003          	lb	zero,17(sp)
    17fe:	8c9f 000a 9000      	.insn	6, 0x9000000a8c9f
    1804:	000a                	.insn	2, 0x000a
    1806:	0300                	.insn	2, 0x0300
    1808:	1100                	.insn	2, 0x1100
    180a:	9f02                	.insn	2, 0x9f02
    180c:	0a90                	.insn	2, 0x0a90
    180e:	0000                	.insn	2, 0x0000
    1810:	0aa4                	.insn	2, 0x0aa4
    1812:	0000                	.insn	2, 0x0000
    1814:	03110003          	lb	zero,49(sp)
    1818:	a49f 000a a800      	.insn	6, 0xa800000aa49f
    181e:	000a                	.insn	2, 0x000a
    1820:	0300                	.insn	2, 0x0300
    1822:	1100                	.insn	2, 0x1100
    1824:	9f04                	.insn	2, 0x9f04
    1826:	0aa8                	.insn	2, 0x0aa8
    1828:	0000                	.insn	2, 0x0000
    182a:	0aac                	.insn	2, 0x0aac
    182c:	0000                	.insn	2, 0x0000
    182e:	05110003          	lb	zero,81(sp)
    1832:	ac9f 000a b000      	.insn	6, 0xb000000aac9f
    1838:	000a                	.insn	2, 0x000a
    183a:	0300                	.insn	2, 0x0300
    183c:	1100                	.insn	2, 0x1100
    183e:	9f06                	.insn	2, 0x9f06
    1840:	0ab0                	.insn	2, 0x0ab0
    1842:	0000                	.insn	2, 0x0000
    1844:	0ac4                	.insn	2, 0x0ac4
    1846:	0000                	.insn	2, 0x0000
    1848:	07110003          	lb	zero,113(sp)
    184c:	c49f 000a d800      	.insn	6, 0xd800000ac49f
    1852:	000a                	.insn	2, 0x000a
    1854:	0300                	.insn	2, 0x0300
    1856:	1100                	.insn	2, 0x1100
    1858:	9f08                	.insn	2, 0x9f08
    185a:	0ad8                	.insn	2, 0x0ad8
    185c:	0000                	.insn	2, 0x0000
    185e:	0aec                	.insn	2, 0x0aec
    1860:	0000                	.insn	2, 0x0000
    1862:	09110003          	lb	zero,145(sp)
    1866:	ec9f 000a fc00      	.insn	6, 0xfc00000aec9f
    186c:	000a                	.insn	2, 0x000a
    186e:	0300                	.insn	2, 0x0300
    1870:	1100                	.insn	2, 0x1100
    1872:	9f0a                	.insn	2, 0x9f0a
    1874:	0afc                	.insn	2, 0x0afc
    1876:	0000                	.insn	2, 0x0000
    1878:	0b04                	.insn	2, 0x0b04
    187a:	0000                	.insn	2, 0x0000
    187c:	00110003          	lb	zero,1(sp)
    1880:	049f 000b 6000      	.insn	6, 0x6000000b049f
    1886:	0300000b          	.insn	4, 0x0300000b
    188a:	1100                	.insn	2, 0x1100
    188c:	00009f0b          	.insn	4, 0x9f0b
    1890:	0000                	.insn	2, 0x0000
    1892:	0000                	.insn	2, 0x0000
	...

セクション .debug_abbrev の逆アセンブル:

00000000 <$d.3>:
   0:	1101                	.insn	2, 0x1101
   2:	2501                	.insn	2, 0x2501
   4:	130e                	.insn	2, 0x130e
   6:	0305                	.insn	2, 0x0305
   8:	100e                	.insn	2, 0x100e
   a:	110e1b17          	auipc	s6,0x110e1
   e:	1201                	.insn	2, 0x1201
  10:	0006                	.insn	2, 0x0006
  12:	0200                	.insn	2, 0x0200
  14:	0034                	.insn	2, 0x0034
  16:	1349                	.insn	2, 0x1349
  18:	0b3a                	.insn	2, 0x0b3a
  1a:	18020b3b          	.insn	4, 0x18020b3b
  1e:	0000                	.insn	2, 0x0000
  20:	49010103          	lb	sp,1168(sp)
  24:	04000013          	li	zero,64
  28:	0021                	.insn	2, 0x0021
  2a:	1349                	.insn	2, 0x1349
  2c:	00000b37          	lui	s6,0x0
  30:	2405                	.insn	2, 0x2405
  32:	0300                	.insn	2, 0x0300
  34:	3e0e                	.insn	2, 0x3e0e
  36:	000b0b0b          	.insn	4, 0x000b0b0b
  3a:	0600                	.insn	2, 0x0600
  3c:	0024                	.insn	2, 0x0024
  3e:	0b0b0e03          	lb	t3,176(s6) # b0 <$d.10+0x3c>
  42:	0b3e                	.insn	2, 0x0b3e
  44:	0000                	.insn	2, 0x0000
  46:	49003407          	.insn	4, 0x49003407
  4a:	3b0b3a13          	sltiu	s4,s6,944
  4e:	0205                	.insn	2, 0x0205
  50:	0018                	.insn	2, 0x0018
  52:	0800                	.insn	2, 0x0800
  54:	0016                	.insn	2, 0x0016
  56:	1349                	.insn	2, 0x1349
  58:	0b3a0e03          	lb	t3,179(s4)
  5c:	00000b3b          	.insn	4, 0x0b3b
  60:	2e09                	.insn	2, 0x2e09
  62:	0301                	.insn	2, 0x0301
  64:	3a0e                	.insn	2, 0x3a0e
  66:	27053b0b          	.insn	4, 0x27053b0b
  6a:	4919                	.insn	2, 0x4919
  6c:	20193f13          	sltiu	t5,s2,513
  70:	0a00000b          	.insn	4, 0x0a00000b
  74:	0005                	.insn	2, 0x0005
  76:	0b3a0e03          	lb	t3,179(s4)
  7a:	1349053b          	.insn	4, 0x1349053b
  7e:	0000                	.insn	2, 0x0000
  80:	0300340b          	.insn	4, 0x0300340b
  84:	3a0e                	.insn	2, 0x3a0e
  86:	49053b0b          	.insn	4, 0x49053b0b
  8a:	0c000013          	li	zero,192
  8e:	0000010b          	.insn	4, 0x010b
  92:	0f0d                	.insn	2, 0x0f0d
  94:	4900                	.insn	2, 0x4900
  96:	0e000013          	li	zero,224
  9a:	0026                	.insn	2, 0x0026
  9c:	1349                	.insn	2, 0x1349
  9e:	0000                	.insn	2, 0x0000
  a0:	11012e0f          	.insn	4, 0x11012e0f
  a4:	1201                	.insn	2, 0x1201
  a6:	4006                	.insn	2, 0x4006
  a8:	9718                	.insn	2, 0x9718
  aa:	1942                	.insn	2, 0x1942
  ac:	0b3a0e03          	lb	t3,179(s4)
  b0:	19270b3b          	.insn	4, 0x19270b3b
